
SPD_DC_Motor.elf:     file format elf32-littlearm

Sections:
Idx Name          Size      VMA       LMA       File off  Algn
  0 .isr_vector   0000010c  08000000  08000000  00010000  2**0
                  CONTENTS, ALLOC, LOAD, READONLY, DATA
  1 .text         0000664c  0800010c  0800010c  0001010c  2**2
                  CONTENTS, ALLOC, LOAD, READONLY, CODE
  2 .rodata       0000091c  08006758  08006758  00016758  2**2
                  CONTENTS, ALLOC, LOAD, READONLY, DATA
  3 .ARM.extab    00000000  08007074  08007074  000200e0  2**0
                  CONTENTS
  4 .ARM          00000000  08007074  08007074  000200e0  2**0
                  CONTENTS
  5 .preinit_array 00000000  08007074  08007074  000200e0  2**0
                  CONTENTS, ALLOC, LOAD, DATA
  6 .init_array   00000004  08007074  08007074  00017074  2**2
                  CONTENTS, ALLOC, LOAD, DATA
  7 .fini_array   00000004  08007078  08007078  00017078  2**2
                  CONTENTS, ALLOC, LOAD, DATA
  8 .data         000000e0  20000000  0800707c  00020000  2**2
                  CONTENTS, ALLOC, LOAD, DATA
  9 .bss          00000478  200000e0  0800715c  000200e0  2**2
                  ALLOC
 10 ._user_heap_stack 00000600  20000558  0800715c  00020558  2**0
                  ALLOC
 11 .ARM.attributes 00000029  00000000  00000000  000200e0  2**0
                  CONTENTS, READONLY
 12 .comment      00000053  00000000  00000000  00020109  2**0
                  CONTENTS, READONLY
 13 .debug_frame  00000ac0  00000000  00000000  0002015c  2**2
                  CONTENTS, READONLY, DEBUGGING, OCTETS

Disassembly of section .text:

0800010c <__do_global_dtors_aux>:
 800010c:	b510      	push	{r4, lr}
 800010e:	4c05      	ldr	r4, [pc, #20]	; (8000124 <__do_global_dtors_aux+0x18>)
 8000110:	7823      	ldrb	r3, [r4, #0]
 8000112:	b933      	cbnz	r3, 8000122 <__do_global_dtors_aux+0x16>
 8000114:	4b04      	ldr	r3, [pc, #16]	; (8000128 <__do_global_dtors_aux+0x1c>)
 8000116:	b113      	cbz	r3, 800011e <__do_global_dtors_aux+0x12>
 8000118:	4804      	ldr	r0, [pc, #16]	; (800012c <__do_global_dtors_aux+0x20>)
 800011a:	f3af 8000 	nop.w
 800011e:	2301      	movs	r3, #1
 8000120:	7023      	strb	r3, [r4, #0]
 8000122:	bd10      	pop	{r4, pc}
 8000124:	200000e0 	.word	0x200000e0
 8000128:	00000000 	.word	0x00000000
 800012c:	08006740 	.word	0x08006740

08000130 <frame_dummy>:
 8000130:	b508      	push	{r3, lr}
 8000132:	4b03      	ldr	r3, [pc, #12]	; (8000140 <frame_dummy+0x10>)
 8000134:	b11b      	cbz	r3, 800013e <frame_dummy+0xe>
 8000136:	4903      	ldr	r1, [pc, #12]	; (8000144 <frame_dummy+0x14>)
 8000138:	4803      	ldr	r0, [pc, #12]	; (8000148 <frame_dummy+0x18>)
 800013a:	f3af 8000 	nop.w
 800013e:	bd08      	pop	{r3, pc}
 8000140:	00000000 	.word	0x00000000
 8000144:	200000e4 	.word	0x200000e4
 8000148:	08006740 	.word	0x08006740

0800014c <__aeabi_drsub>:
 800014c:	f081 4100 	eor.w	r1, r1, #2147483648	; 0x80000000
 8000150:	e002      	b.n	8000158 <__adddf3>
 8000152:	bf00      	nop

08000154 <__aeabi_dsub>:
 8000154:	f083 4300 	eor.w	r3, r3, #2147483648	; 0x80000000

08000158 <__adddf3>:
 8000158:	b530      	push	{r4, r5, lr}
 800015a:	ea4f 0441 	mov.w	r4, r1, lsl #1
 800015e:	ea4f 0543 	mov.w	r5, r3, lsl #1
 8000162:	ea94 0f05 	teq	r4, r5
 8000166:	bf08      	it	eq
 8000168:	ea90 0f02 	teqeq	r0, r2
 800016c:	bf1f      	itttt	ne
 800016e:	ea54 0c00 	orrsne.w	ip, r4, r0
 8000172:	ea55 0c02 	orrsne.w	ip, r5, r2
 8000176:	ea7f 5c64 	mvnsne.w	ip, r4, asr #21
 800017a:	ea7f 5c65 	mvnsne.w	ip, r5, asr #21
 800017e:	f000 80e2 	beq.w	8000346 <__adddf3+0x1ee>
 8000182:	ea4f 5454 	mov.w	r4, r4, lsr #21
 8000186:	ebd4 5555 	rsbs	r5, r4, r5, lsr #21
 800018a:	bfb8      	it	lt
 800018c:	426d      	neglt	r5, r5
 800018e:	dd0c      	ble.n	80001aa <__adddf3+0x52>
 8000190:	442c      	add	r4, r5
 8000192:	ea80 0202 	eor.w	r2, r0, r2
 8000196:	ea81 0303 	eor.w	r3, r1, r3
 800019a:	ea82 0000 	eor.w	r0, r2, r0
 800019e:	ea83 0101 	eor.w	r1, r3, r1
 80001a2:	ea80 0202 	eor.w	r2, r0, r2
 80001a6:	ea81 0303 	eor.w	r3, r1, r3
 80001aa:	2d36      	cmp	r5, #54	; 0x36
 80001ac:	bf88      	it	hi
 80001ae:	bd30      	pophi	{r4, r5, pc}
 80001b0:	f011 4f00 	tst.w	r1, #2147483648	; 0x80000000
 80001b4:	ea4f 3101 	mov.w	r1, r1, lsl #12
 80001b8:	f44f 1c80 	mov.w	ip, #1048576	; 0x100000
 80001bc:	ea4c 3111 	orr.w	r1, ip, r1, lsr #12
 80001c0:	d002      	beq.n	80001c8 <__adddf3+0x70>
 80001c2:	4240      	negs	r0, r0
 80001c4:	eb61 0141 	sbc.w	r1, r1, r1, lsl #1
 80001c8:	f013 4f00 	tst.w	r3, #2147483648	; 0x80000000
 80001cc:	ea4f 3303 	mov.w	r3, r3, lsl #12
 80001d0:	ea4c 3313 	orr.w	r3, ip, r3, lsr #12
 80001d4:	d002      	beq.n	80001dc <__adddf3+0x84>
 80001d6:	4252      	negs	r2, r2
 80001d8:	eb63 0343 	sbc.w	r3, r3, r3, lsl #1
 80001dc:	ea94 0f05 	teq	r4, r5
 80001e0:	f000 80a7 	beq.w	8000332 <__adddf3+0x1da>
 80001e4:	f1a4 0401 	sub.w	r4, r4, #1
 80001e8:	f1d5 0e20 	rsbs	lr, r5, #32
 80001ec:	db0d      	blt.n	800020a <__adddf3+0xb2>
 80001ee:	fa02 fc0e 	lsl.w	ip, r2, lr
 80001f2:	fa22 f205 	lsr.w	r2, r2, r5
 80001f6:	1880      	adds	r0, r0, r2
 80001f8:	f141 0100 	adc.w	r1, r1, #0
 80001fc:	fa03 f20e 	lsl.w	r2, r3, lr
 8000200:	1880      	adds	r0, r0, r2
 8000202:	fa43 f305 	asr.w	r3, r3, r5
 8000206:	4159      	adcs	r1, r3
 8000208:	e00e      	b.n	8000228 <__adddf3+0xd0>
 800020a:	f1a5 0520 	sub.w	r5, r5, #32
 800020e:	f10e 0e20 	add.w	lr, lr, #32
 8000212:	2a01      	cmp	r2, #1
 8000214:	fa03 fc0e 	lsl.w	ip, r3, lr
 8000218:	bf28      	it	cs
 800021a:	f04c 0c02 	orrcs.w	ip, ip, #2
 800021e:	fa43 f305 	asr.w	r3, r3, r5
 8000222:	18c0      	adds	r0, r0, r3
 8000224:	eb51 71e3 	adcs.w	r1, r1, r3, asr #31
 8000228:	f001 4500 	and.w	r5, r1, #2147483648	; 0x80000000
 800022c:	d507      	bpl.n	800023e <__adddf3+0xe6>
 800022e:	f04f 0e00 	mov.w	lr, #0
 8000232:	f1dc 0c00 	rsbs	ip, ip, #0
 8000236:	eb7e 0000 	sbcs.w	r0, lr, r0
 800023a:	eb6e 0101 	sbc.w	r1, lr, r1
 800023e:	f5b1 1f80 	cmp.w	r1, #1048576	; 0x100000
 8000242:	d31b      	bcc.n	800027c <__adddf3+0x124>
 8000244:	f5b1 1f00 	cmp.w	r1, #2097152	; 0x200000
 8000248:	d30c      	bcc.n	8000264 <__adddf3+0x10c>
 800024a:	0849      	lsrs	r1, r1, #1
 800024c:	ea5f 0030 	movs.w	r0, r0, rrx
 8000250:	ea4f 0c3c 	mov.w	ip, ip, rrx
 8000254:	f104 0401 	add.w	r4, r4, #1
 8000258:	ea4f 5244 	mov.w	r2, r4, lsl #21
 800025c:	f512 0f80 	cmn.w	r2, #4194304	; 0x400000
 8000260:	f080 809a 	bcs.w	8000398 <__adddf3+0x240>
 8000264:	f1bc 4f00 	cmp.w	ip, #2147483648	; 0x80000000
 8000268:	bf08      	it	eq
 800026a:	ea5f 0c50 	movseq.w	ip, r0, lsr #1
 800026e:	f150 0000 	adcs.w	r0, r0, #0
 8000272:	eb41 5104 	adc.w	r1, r1, r4, lsl #20
 8000276:	ea41 0105 	orr.w	r1, r1, r5
 800027a:	bd30      	pop	{r4, r5, pc}
 800027c:	ea5f 0c4c 	movs.w	ip, ip, lsl #1
 8000280:	4140      	adcs	r0, r0
 8000282:	eb41 0101 	adc.w	r1, r1, r1
 8000286:	3c01      	subs	r4, #1
 8000288:	bf28      	it	cs
 800028a:	f5b1 1f80 	cmpcs.w	r1, #1048576	; 0x100000
 800028e:	d2e9      	bcs.n	8000264 <__adddf3+0x10c>
 8000290:	f091 0f00 	teq	r1, #0
 8000294:	bf04      	itt	eq
 8000296:	4601      	moveq	r1, r0
 8000298:	2000      	moveq	r0, #0
 800029a:	fab1 f381 	clz	r3, r1
 800029e:	bf08      	it	eq
 80002a0:	3320      	addeq	r3, #32
 80002a2:	f1a3 030b 	sub.w	r3, r3, #11
 80002a6:	f1b3 0220 	subs.w	r2, r3, #32
 80002aa:	da0c      	bge.n	80002c6 <__adddf3+0x16e>
 80002ac:	320c      	adds	r2, #12
 80002ae:	dd08      	ble.n	80002c2 <__adddf3+0x16a>
 80002b0:	f102 0c14 	add.w	ip, r2, #20
 80002b4:	f1c2 020c 	rsb	r2, r2, #12
 80002b8:	fa01 f00c 	lsl.w	r0, r1, ip
 80002bc:	fa21 f102 	lsr.w	r1, r1, r2
 80002c0:	e00c      	b.n	80002dc <__adddf3+0x184>
 80002c2:	f102 0214 	add.w	r2, r2, #20
 80002c6:	bfd8      	it	le
 80002c8:	f1c2 0c20 	rsble	ip, r2, #32
 80002cc:	fa01 f102 	lsl.w	r1, r1, r2
 80002d0:	fa20 fc0c 	lsr.w	ip, r0, ip
 80002d4:	bfdc      	itt	le
 80002d6:	ea41 010c 	orrle.w	r1, r1, ip
 80002da:	4090      	lslle	r0, r2
 80002dc:	1ae4      	subs	r4, r4, r3
 80002de:	bfa2      	ittt	ge
 80002e0:	eb01 5104 	addge.w	r1, r1, r4, lsl #20
 80002e4:	4329      	orrge	r1, r5
 80002e6:	bd30      	popge	{r4, r5, pc}
 80002e8:	ea6f 0404 	mvn.w	r4, r4
 80002ec:	3c1f      	subs	r4, #31
 80002ee:	da1c      	bge.n	800032a <__adddf3+0x1d2>
 80002f0:	340c      	adds	r4, #12
 80002f2:	dc0e      	bgt.n	8000312 <__adddf3+0x1ba>
 80002f4:	f104 0414 	add.w	r4, r4, #20
 80002f8:	f1c4 0220 	rsb	r2, r4, #32
 80002fc:	fa20 f004 	lsr.w	r0, r0, r4
 8000300:	fa01 f302 	lsl.w	r3, r1, r2
 8000304:	ea40 0003 	orr.w	r0, r0, r3
 8000308:	fa21 f304 	lsr.w	r3, r1, r4
 800030c:	ea45 0103 	orr.w	r1, r5, r3
 8000310:	bd30      	pop	{r4, r5, pc}
 8000312:	f1c4 040c 	rsb	r4, r4, #12
 8000316:	f1c4 0220 	rsb	r2, r4, #32
 800031a:	fa20 f002 	lsr.w	r0, r0, r2
 800031e:	fa01 f304 	lsl.w	r3, r1, r4
 8000322:	ea40 0003 	orr.w	r0, r0, r3
 8000326:	4629      	mov	r1, r5
 8000328:	bd30      	pop	{r4, r5, pc}
 800032a:	fa21 f004 	lsr.w	r0, r1, r4
 800032e:	4629      	mov	r1, r5
 8000330:	bd30      	pop	{r4, r5, pc}
 8000332:	f094 0f00 	teq	r4, #0
 8000336:	f483 1380 	eor.w	r3, r3, #1048576	; 0x100000
 800033a:	bf06      	itte	eq
 800033c:	f481 1180 	eoreq.w	r1, r1, #1048576	; 0x100000
 8000340:	3401      	addeq	r4, #1
 8000342:	3d01      	subne	r5, #1
 8000344:	e74e      	b.n	80001e4 <__adddf3+0x8c>
 8000346:	ea7f 5c64 	mvns.w	ip, r4, asr #21
 800034a:	bf18      	it	ne
 800034c:	ea7f 5c65 	mvnsne.w	ip, r5, asr #21
 8000350:	d029      	beq.n	80003a6 <__adddf3+0x24e>
 8000352:	ea94 0f05 	teq	r4, r5
 8000356:	bf08      	it	eq
 8000358:	ea90 0f02 	teqeq	r0, r2
 800035c:	d005      	beq.n	800036a <__adddf3+0x212>
 800035e:	ea54 0c00 	orrs.w	ip, r4, r0
 8000362:	bf04      	itt	eq
 8000364:	4619      	moveq	r1, r3
 8000366:	4610      	moveq	r0, r2
 8000368:	bd30      	pop	{r4, r5, pc}
 800036a:	ea91 0f03 	teq	r1, r3
 800036e:	bf1e      	ittt	ne
 8000370:	2100      	movne	r1, #0
 8000372:	2000      	movne	r0, #0
 8000374:	bd30      	popne	{r4, r5, pc}
 8000376:	ea5f 5c54 	movs.w	ip, r4, lsr #21
 800037a:	d105      	bne.n	8000388 <__adddf3+0x230>
 800037c:	0040      	lsls	r0, r0, #1
 800037e:	4149      	adcs	r1, r1
 8000380:	bf28      	it	cs
 8000382:	f041 4100 	orrcs.w	r1, r1, #2147483648	; 0x80000000
 8000386:	bd30      	pop	{r4, r5, pc}
 8000388:	f514 0480 	adds.w	r4, r4, #4194304	; 0x400000
 800038c:	bf3c      	itt	cc
 800038e:	f501 1180 	addcc.w	r1, r1, #1048576	; 0x100000
 8000392:	bd30      	popcc	{r4, r5, pc}
 8000394:	f001 4500 	and.w	r5, r1, #2147483648	; 0x80000000
 8000398:	f045 41fe 	orr.w	r1, r5, #2130706432	; 0x7f000000
 800039c:	f441 0170 	orr.w	r1, r1, #15728640	; 0xf00000
 80003a0:	f04f 0000 	mov.w	r0, #0
 80003a4:	bd30      	pop	{r4, r5, pc}
 80003a6:	ea7f 5c64 	mvns.w	ip, r4, asr #21
 80003aa:	bf1a      	itte	ne
 80003ac:	4619      	movne	r1, r3
 80003ae:	4610      	movne	r0, r2
 80003b0:	ea7f 5c65 	mvnseq.w	ip, r5, asr #21
 80003b4:	bf1c      	itt	ne
 80003b6:	460b      	movne	r3, r1
 80003b8:	4602      	movne	r2, r0
 80003ba:	ea50 3401 	orrs.w	r4, r0, r1, lsl #12
 80003be:	bf06      	itte	eq
 80003c0:	ea52 3503 	orrseq.w	r5, r2, r3, lsl #12
 80003c4:	ea91 0f03 	teqeq	r1, r3
 80003c8:	f441 2100 	orrne.w	r1, r1, #524288	; 0x80000
 80003cc:	bd30      	pop	{r4, r5, pc}
 80003ce:	bf00      	nop

080003d0 <__aeabi_ui2d>:
 80003d0:	f090 0f00 	teq	r0, #0
 80003d4:	bf04      	itt	eq
 80003d6:	2100      	moveq	r1, #0
 80003d8:	4770      	bxeq	lr
 80003da:	b530      	push	{r4, r5, lr}
 80003dc:	f44f 6480 	mov.w	r4, #1024	; 0x400
 80003e0:	f104 0432 	add.w	r4, r4, #50	; 0x32
 80003e4:	f04f 0500 	mov.w	r5, #0
 80003e8:	f04f 0100 	mov.w	r1, #0
 80003ec:	e750      	b.n	8000290 <__adddf3+0x138>
 80003ee:	bf00      	nop

080003f0 <__aeabi_i2d>:
 80003f0:	f090 0f00 	teq	r0, #0
 80003f4:	bf04      	itt	eq
 80003f6:	2100      	moveq	r1, #0
 80003f8:	4770      	bxeq	lr
 80003fa:	b530      	push	{r4, r5, lr}
 80003fc:	f44f 6480 	mov.w	r4, #1024	; 0x400
 8000400:	f104 0432 	add.w	r4, r4, #50	; 0x32
 8000404:	f010 4500 	ands.w	r5, r0, #2147483648	; 0x80000000
 8000408:	bf48      	it	mi
 800040a:	4240      	negmi	r0, r0
 800040c:	f04f 0100 	mov.w	r1, #0
 8000410:	e73e      	b.n	8000290 <__adddf3+0x138>
 8000412:	bf00      	nop

08000414 <__aeabi_f2d>:
 8000414:	0042      	lsls	r2, r0, #1
 8000416:	ea4f 01e2 	mov.w	r1, r2, asr #3
 800041a:	ea4f 0131 	mov.w	r1, r1, rrx
 800041e:	ea4f 7002 	mov.w	r0, r2, lsl #28
 8000422:	bf1f      	itttt	ne
 8000424:	f012 437f 	andsne.w	r3, r2, #4278190080	; 0xff000000
 8000428:	f093 4f7f 	teqne	r3, #4278190080	; 0xff000000
 800042c:	f081 5160 	eorne.w	r1, r1, #939524096	; 0x38000000
 8000430:	4770      	bxne	lr
 8000432:	f032 427f 	bics.w	r2, r2, #4278190080	; 0xff000000
 8000436:	bf08      	it	eq
 8000438:	4770      	bxeq	lr
 800043a:	f093 4f7f 	teq	r3, #4278190080	; 0xff000000
 800043e:	bf04      	itt	eq
 8000440:	f441 2100 	orreq.w	r1, r1, #524288	; 0x80000
 8000444:	4770      	bxeq	lr
 8000446:	b530      	push	{r4, r5, lr}
 8000448:	f44f 7460 	mov.w	r4, #896	; 0x380
 800044c:	f001 4500 	and.w	r5, r1, #2147483648	; 0x80000000
 8000450:	f021 4100 	bic.w	r1, r1, #2147483648	; 0x80000000
 8000454:	e71c      	b.n	8000290 <__adddf3+0x138>
 8000456:	bf00      	nop

08000458 <__aeabi_ul2d>:
 8000458:	ea50 0201 	orrs.w	r2, r0, r1
 800045c:	bf08      	it	eq
 800045e:	4770      	bxeq	lr
 8000460:	b530      	push	{r4, r5, lr}
 8000462:	f04f 0500 	mov.w	r5, #0
 8000466:	e00a      	b.n	800047e <__aeabi_l2d+0x16>

08000468 <__aeabi_l2d>:
 8000468:	ea50 0201 	orrs.w	r2, r0, r1
 800046c:	bf08      	it	eq
 800046e:	4770      	bxeq	lr
 8000470:	b530      	push	{r4, r5, lr}
 8000472:	f011 4500 	ands.w	r5, r1, #2147483648	; 0x80000000
 8000476:	d502      	bpl.n	800047e <__aeabi_l2d+0x16>
 8000478:	4240      	negs	r0, r0
 800047a:	eb61 0141 	sbc.w	r1, r1, r1, lsl #1
 800047e:	f44f 6480 	mov.w	r4, #1024	; 0x400
 8000482:	f104 0432 	add.w	r4, r4, #50	; 0x32
 8000486:	ea5f 5c91 	movs.w	ip, r1, lsr #22
 800048a:	f43f aed8 	beq.w	800023e <__adddf3+0xe6>
 800048e:	f04f 0203 	mov.w	r2, #3
 8000492:	ea5f 0cdc 	movs.w	ip, ip, lsr #3
 8000496:	bf18      	it	ne
 8000498:	3203      	addne	r2, #3
 800049a:	ea5f 0cdc 	movs.w	ip, ip, lsr #3
 800049e:	bf18      	it	ne
 80004a0:	3203      	addne	r2, #3
 80004a2:	eb02 02dc 	add.w	r2, r2, ip, lsr #3
 80004a6:	f1c2 0320 	rsb	r3, r2, #32
 80004aa:	fa00 fc03 	lsl.w	ip, r0, r3
 80004ae:	fa20 f002 	lsr.w	r0, r0, r2
 80004b2:	fa01 fe03 	lsl.w	lr, r1, r3
 80004b6:	ea40 000e 	orr.w	r0, r0, lr
 80004ba:	fa21 f102 	lsr.w	r1, r1, r2
 80004be:	4414      	add	r4, r2
 80004c0:	e6bd      	b.n	800023e <__adddf3+0xe6>
 80004c2:	bf00      	nop

080004c4 <__aeabi_dmul>:
 80004c4:	b570      	push	{r4, r5, r6, lr}
 80004c6:	f04f 0cff 	mov.w	ip, #255	; 0xff
 80004ca:	f44c 6ce0 	orr.w	ip, ip, #1792	; 0x700
 80004ce:	ea1c 5411 	ands.w	r4, ip, r1, lsr #20
 80004d2:	bf1d      	ittte	ne
 80004d4:	ea1c 5513 	andsne.w	r5, ip, r3, lsr #20
 80004d8:	ea94 0f0c 	teqne	r4, ip
 80004dc:	ea95 0f0c 	teqne	r5, ip
 80004e0:	f000 f8de 	bleq	80006a0 <__aeabi_dmul+0x1dc>
 80004e4:	442c      	add	r4, r5
 80004e6:	ea81 0603 	eor.w	r6, r1, r3
 80004ea:	ea21 514c 	bic.w	r1, r1, ip, lsl #21
 80004ee:	ea23 534c 	bic.w	r3, r3, ip, lsl #21
 80004f2:	ea50 3501 	orrs.w	r5, r0, r1, lsl #12
 80004f6:	bf18      	it	ne
 80004f8:	ea52 3503 	orrsne.w	r5, r2, r3, lsl #12
 80004fc:	f441 1180 	orr.w	r1, r1, #1048576	; 0x100000
 8000500:	f443 1380 	orr.w	r3, r3, #1048576	; 0x100000
 8000504:	d038      	beq.n	8000578 <__aeabi_dmul+0xb4>
 8000506:	fba0 ce02 	umull	ip, lr, r0, r2
 800050a:	f04f 0500 	mov.w	r5, #0
 800050e:	fbe1 e502 	umlal	lr, r5, r1, r2
 8000512:	f006 4200 	and.w	r2, r6, #2147483648	; 0x80000000
 8000516:	fbe0 e503 	umlal	lr, r5, r0, r3
 800051a:	f04f 0600 	mov.w	r6, #0
 800051e:	fbe1 5603 	umlal	r5, r6, r1, r3
 8000522:	f09c 0f00 	teq	ip, #0
 8000526:	bf18      	it	ne
 8000528:	f04e 0e01 	orrne.w	lr, lr, #1
 800052c:	f1a4 04ff 	sub.w	r4, r4, #255	; 0xff
 8000530:	f5b6 7f00 	cmp.w	r6, #512	; 0x200
 8000534:	f564 7440 	sbc.w	r4, r4, #768	; 0x300
 8000538:	d204      	bcs.n	8000544 <__aeabi_dmul+0x80>
 800053a:	ea5f 0e4e 	movs.w	lr, lr, lsl #1
 800053e:	416d      	adcs	r5, r5
 8000540:	eb46 0606 	adc.w	r6, r6, r6
 8000544:	ea42 21c6 	orr.w	r1, r2, r6, lsl #11
 8000548:	ea41 5155 	orr.w	r1, r1, r5, lsr #21
 800054c:	ea4f 20c5 	mov.w	r0, r5, lsl #11
 8000550:	ea40 505e 	orr.w	r0, r0, lr, lsr #21
 8000554:	ea4f 2ece 	mov.w	lr, lr, lsl #11
 8000558:	f1b4 0cfd 	subs.w	ip, r4, #253	; 0xfd
 800055c:	bf88      	it	hi
 800055e:	f5bc 6fe0 	cmphi.w	ip, #1792	; 0x700
 8000562:	d81e      	bhi.n	80005a2 <__aeabi_dmul+0xde>
 8000564:	f1be 4f00 	cmp.w	lr, #2147483648	; 0x80000000
 8000568:	bf08      	it	eq
 800056a:	ea5f 0e50 	movseq.w	lr, r0, lsr #1
 800056e:	f150 0000 	adcs.w	r0, r0, #0
 8000572:	eb41 5104 	adc.w	r1, r1, r4, lsl #20
 8000576:	bd70      	pop	{r4, r5, r6, pc}
 8000578:	f006 4600 	and.w	r6, r6, #2147483648	; 0x80000000
 800057c:	ea46 0101 	orr.w	r1, r6, r1
 8000580:	ea40 0002 	orr.w	r0, r0, r2
 8000584:	ea81 0103 	eor.w	r1, r1, r3
 8000588:	ebb4 045c 	subs.w	r4, r4, ip, lsr #1
 800058c:	bfc2      	ittt	gt
 800058e:	ebd4 050c 	rsbsgt	r5, r4, ip
 8000592:	ea41 5104 	orrgt.w	r1, r1, r4, lsl #20
 8000596:	bd70      	popgt	{r4, r5, r6, pc}
 8000598:	f441 1180 	orr.w	r1, r1, #1048576	; 0x100000
 800059c:	f04f 0e00 	mov.w	lr, #0
 80005a0:	3c01      	subs	r4, #1
 80005a2:	f300 80ab 	bgt.w	80006fc <__aeabi_dmul+0x238>
 80005a6:	f114 0f36 	cmn.w	r4, #54	; 0x36
 80005aa:	bfde      	ittt	le
 80005ac:	2000      	movle	r0, #0
 80005ae:	f001 4100 	andle.w	r1, r1, #2147483648	; 0x80000000
 80005b2:	bd70      	pople	{r4, r5, r6, pc}
 80005b4:	f1c4 0400 	rsb	r4, r4, #0
 80005b8:	3c20      	subs	r4, #32
 80005ba:	da35      	bge.n	8000628 <__aeabi_dmul+0x164>
 80005bc:	340c      	adds	r4, #12
 80005be:	dc1b      	bgt.n	80005f8 <__aeabi_dmul+0x134>
 80005c0:	f104 0414 	add.w	r4, r4, #20
 80005c4:	f1c4 0520 	rsb	r5, r4, #32
 80005c8:	fa00 f305 	lsl.w	r3, r0, r5
 80005cc:	fa20 f004 	lsr.w	r0, r0, r4
 80005d0:	fa01 f205 	lsl.w	r2, r1, r5
 80005d4:	ea40 0002 	orr.w	r0, r0, r2
 80005d8:	f001 4200 	and.w	r2, r1, #2147483648	; 0x80000000
 80005dc:	f021 4100 	bic.w	r1, r1, #2147483648	; 0x80000000
 80005e0:	eb10 70d3 	adds.w	r0, r0, r3, lsr #31
 80005e4:	fa21 f604 	lsr.w	r6, r1, r4
 80005e8:	eb42 0106 	adc.w	r1, r2, r6
 80005ec:	ea5e 0e43 	orrs.w	lr, lr, r3, lsl #1
 80005f0:	bf08      	it	eq
 80005f2:	ea20 70d3 	biceq.w	r0, r0, r3, lsr #31
 80005f6:	bd70      	pop	{r4, r5, r6, pc}
 80005f8:	f1c4 040c 	rsb	r4, r4, #12
 80005fc:	f1c4 0520 	rsb	r5, r4, #32
 8000600:	fa00 f304 	lsl.w	r3, r0, r4
 8000604:	fa20 f005 	lsr.w	r0, r0, r5
 8000608:	fa01 f204 	lsl.w	r2, r1, r4
 800060c:	ea40 0002 	orr.w	r0, r0, r2
 8000610:	f001 4100 	and.w	r1, r1, #2147483648	; 0x80000000
 8000614:	eb10 70d3 	adds.w	r0, r0, r3, lsr #31
 8000618:	f141 0100 	adc.w	r1, r1, #0
 800061c:	ea5e 0e43 	orrs.w	lr, lr, r3, lsl #1
 8000620:	bf08      	it	eq
 8000622:	ea20 70d3 	biceq.w	r0, r0, r3, lsr #31
 8000626:	bd70      	pop	{r4, r5, r6, pc}
 8000628:	f1c4 0520 	rsb	r5, r4, #32
 800062c:	fa00 f205 	lsl.w	r2, r0, r5
 8000630:	ea4e 0e02 	orr.w	lr, lr, r2
 8000634:	fa20 f304 	lsr.w	r3, r0, r4
 8000638:	fa01 f205 	lsl.w	r2, r1, r5
 800063c:	ea43 0302 	orr.w	r3, r3, r2
 8000640:	fa21 f004 	lsr.w	r0, r1, r4
 8000644:	f001 4100 	and.w	r1, r1, #2147483648	; 0x80000000
 8000648:	fa21 f204 	lsr.w	r2, r1, r4
 800064c:	ea20 0002 	bic.w	r0, r0, r2
 8000650:	eb00 70d3 	add.w	r0, r0, r3, lsr #31
 8000654:	ea5e 0e43 	orrs.w	lr, lr, r3, lsl #1
 8000658:	bf08      	it	eq
 800065a:	ea20 70d3 	biceq.w	r0, r0, r3, lsr #31
 800065e:	bd70      	pop	{r4, r5, r6, pc}
 8000660:	f094 0f00 	teq	r4, #0
 8000664:	d10f      	bne.n	8000686 <__aeabi_dmul+0x1c2>
 8000666:	f001 4600 	and.w	r6, r1, #2147483648	; 0x80000000
 800066a:	0040      	lsls	r0, r0, #1
 800066c:	eb41 0101 	adc.w	r1, r1, r1
 8000670:	f411 1f80 	tst.w	r1, #1048576	; 0x100000
 8000674:	bf08      	it	eq
 8000676:	3c01      	subeq	r4, #1
 8000678:	d0f7      	beq.n	800066a <__aeabi_dmul+0x1a6>
 800067a:	ea41 0106 	orr.w	r1, r1, r6
 800067e:	f095 0f00 	teq	r5, #0
 8000682:	bf18      	it	ne
 8000684:	4770      	bxne	lr
 8000686:	f003 4600 	and.w	r6, r3, #2147483648	; 0x80000000
 800068a:	0052      	lsls	r2, r2, #1
 800068c:	eb43 0303 	adc.w	r3, r3, r3
 8000690:	f413 1f80 	tst.w	r3, #1048576	; 0x100000
 8000694:	bf08      	it	eq
 8000696:	3d01      	subeq	r5, #1
 8000698:	d0f7      	beq.n	800068a <__aeabi_dmul+0x1c6>
 800069a:	ea43 0306 	orr.w	r3, r3, r6
 800069e:	4770      	bx	lr
 80006a0:	ea94 0f0c 	teq	r4, ip
 80006a4:	ea0c 5513 	and.w	r5, ip, r3, lsr #20
 80006a8:	bf18      	it	ne
 80006aa:	ea95 0f0c 	teqne	r5, ip
 80006ae:	d00c      	beq.n	80006ca <__aeabi_dmul+0x206>
 80006b0:	ea50 0641 	orrs.w	r6, r0, r1, lsl #1
 80006b4:	bf18      	it	ne
 80006b6:	ea52 0643 	orrsne.w	r6, r2, r3, lsl #1
 80006ba:	d1d1      	bne.n	8000660 <__aeabi_dmul+0x19c>
 80006bc:	ea81 0103 	eor.w	r1, r1, r3
 80006c0:	f001 4100 	and.w	r1, r1, #2147483648	; 0x80000000
 80006c4:	f04f 0000 	mov.w	r0, #0
 80006c8:	bd70      	pop	{r4, r5, r6, pc}
 80006ca:	ea50 0641 	orrs.w	r6, r0, r1, lsl #1
 80006ce:	bf06      	itte	eq
 80006d0:	4610      	moveq	r0, r2
 80006d2:	4619      	moveq	r1, r3
 80006d4:	ea52 0643 	orrsne.w	r6, r2, r3, lsl #1
 80006d8:	d019      	beq.n	800070e <__aeabi_dmul+0x24a>
 80006da:	ea94 0f0c 	teq	r4, ip
 80006de:	d102      	bne.n	80006e6 <__aeabi_dmul+0x222>
 80006e0:	ea50 3601 	orrs.w	r6, r0, r1, lsl #12
 80006e4:	d113      	bne.n	800070e <__aeabi_dmul+0x24a>
 80006e6:	ea95 0f0c 	teq	r5, ip
 80006ea:	d105      	bne.n	80006f8 <__aeabi_dmul+0x234>
 80006ec:	ea52 3603 	orrs.w	r6, r2, r3, lsl #12
 80006f0:	bf1c      	itt	ne
 80006f2:	4610      	movne	r0, r2
 80006f4:	4619      	movne	r1, r3
 80006f6:	d10a      	bne.n	800070e <__aeabi_dmul+0x24a>
 80006f8:	ea81 0103 	eor.w	r1, r1, r3
 80006fc:	f001 4100 	and.w	r1, r1, #2147483648	; 0x80000000
 8000700:	f041 41fe 	orr.w	r1, r1, #2130706432	; 0x7f000000
 8000704:	f441 0170 	orr.w	r1, r1, #15728640	; 0xf00000
 8000708:	f04f 0000 	mov.w	r0, #0
 800070c:	bd70      	pop	{r4, r5, r6, pc}
 800070e:	f041 41fe 	orr.w	r1, r1, #2130706432	; 0x7f000000
 8000712:	f441 0178 	orr.w	r1, r1, #16252928	; 0xf80000
 8000716:	bd70      	pop	{r4, r5, r6, pc}

08000718 <__aeabi_ddiv>:
 8000718:	b570      	push	{r4, r5, r6, lr}
 800071a:	f04f 0cff 	mov.w	ip, #255	; 0xff
 800071e:	f44c 6ce0 	orr.w	ip, ip, #1792	; 0x700
 8000722:	ea1c 5411 	ands.w	r4, ip, r1, lsr #20
 8000726:	bf1d      	ittte	ne
 8000728:	ea1c 5513 	andsne.w	r5, ip, r3, lsr #20
 800072c:	ea94 0f0c 	teqne	r4, ip
 8000730:	ea95 0f0c 	teqne	r5, ip
 8000734:	f000 f8a7 	bleq	8000886 <__aeabi_ddiv+0x16e>
 8000738:	eba4 0405 	sub.w	r4, r4, r5
 800073c:	ea81 0e03 	eor.w	lr, r1, r3
 8000740:	ea52 3503 	orrs.w	r5, r2, r3, lsl #12
 8000744:	ea4f 3101 	mov.w	r1, r1, lsl #12
 8000748:	f000 8088 	beq.w	800085c <__aeabi_ddiv+0x144>
 800074c:	ea4f 3303 	mov.w	r3, r3, lsl #12
 8000750:	f04f 5580 	mov.w	r5, #268435456	; 0x10000000
 8000754:	ea45 1313 	orr.w	r3, r5, r3, lsr #4
 8000758:	ea43 6312 	orr.w	r3, r3, r2, lsr #24
 800075c:	ea4f 2202 	mov.w	r2, r2, lsl #8
 8000760:	ea45 1511 	orr.w	r5, r5, r1, lsr #4
 8000764:	ea45 6510 	orr.w	r5, r5, r0, lsr #24
 8000768:	ea4f 2600 	mov.w	r6, r0, lsl #8
 800076c:	f00e 4100 	and.w	r1, lr, #2147483648	; 0x80000000
 8000770:	429d      	cmp	r5, r3
 8000772:	bf08      	it	eq
 8000774:	4296      	cmpeq	r6, r2
 8000776:	f144 04fd 	adc.w	r4, r4, #253	; 0xfd
 800077a:	f504 7440 	add.w	r4, r4, #768	; 0x300
 800077e:	d202      	bcs.n	8000786 <__aeabi_ddiv+0x6e>
 8000780:	085b      	lsrs	r3, r3, #1
 8000782:	ea4f 0232 	mov.w	r2, r2, rrx
 8000786:	1ab6      	subs	r6, r6, r2
 8000788:	eb65 0503 	sbc.w	r5, r5, r3
 800078c:	085b      	lsrs	r3, r3, #1
 800078e:	ea4f 0232 	mov.w	r2, r2, rrx
 8000792:	f44f 1080 	mov.w	r0, #1048576	; 0x100000
 8000796:	f44f 2c00 	mov.w	ip, #524288	; 0x80000
 800079a:	ebb6 0e02 	subs.w	lr, r6, r2
 800079e:	eb75 0e03 	sbcs.w	lr, r5, r3
 80007a2:	bf22      	ittt	cs
 80007a4:	1ab6      	subcs	r6, r6, r2
 80007a6:	4675      	movcs	r5, lr
 80007a8:	ea40 000c 	orrcs.w	r0, r0, ip
 80007ac:	085b      	lsrs	r3, r3, #1
 80007ae:	ea4f 0232 	mov.w	r2, r2, rrx
 80007b2:	ebb6 0e02 	subs.w	lr, r6, r2
 80007b6:	eb75 0e03 	sbcs.w	lr, r5, r3
 80007ba:	bf22      	ittt	cs
 80007bc:	1ab6      	subcs	r6, r6, r2
 80007be:	4675      	movcs	r5, lr
 80007c0:	ea40 005c 	orrcs.w	r0, r0, ip, lsr #1
 80007c4:	085b      	lsrs	r3, r3, #1
 80007c6:	ea4f 0232 	mov.w	r2, r2, rrx
 80007ca:	ebb6 0e02 	subs.w	lr, r6, r2
 80007ce:	eb75 0e03 	sbcs.w	lr, r5, r3
 80007d2:	bf22      	ittt	cs
 80007d4:	1ab6      	subcs	r6, r6, r2
 80007d6:	4675      	movcs	r5, lr
 80007d8:	ea40 009c 	orrcs.w	r0, r0, ip, lsr #2
 80007dc:	085b      	lsrs	r3, r3, #1
 80007de:	ea4f 0232 	mov.w	r2, r2, rrx
 80007e2:	ebb6 0e02 	subs.w	lr, r6, r2
 80007e6:	eb75 0e03 	sbcs.w	lr, r5, r3
 80007ea:	bf22      	ittt	cs
 80007ec:	1ab6      	subcs	r6, r6, r2
 80007ee:	4675      	movcs	r5, lr
 80007f0:	ea40 00dc 	orrcs.w	r0, r0, ip, lsr #3
 80007f4:	ea55 0e06 	orrs.w	lr, r5, r6
 80007f8:	d018      	beq.n	800082c <__aeabi_ddiv+0x114>
 80007fa:	ea4f 1505 	mov.w	r5, r5, lsl #4
 80007fe:	ea45 7516 	orr.w	r5, r5, r6, lsr #28
 8000802:	ea4f 1606 	mov.w	r6, r6, lsl #4
 8000806:	ea4f 03c3 	mov.w	r3, r3, lsl #3
 800080a:	ea43 7352 	orr.w	r3, r3, r2, lsr #29
 800080e:	ea4f 02c2 	mov.w	r2, r2, lsl #3
 8000812:	ea5f 1c1c 	movs.w	ip, ip, lsr #4
 8000816:	d1c0      	bne.n	800079a <__aeabi_ddiv+0x82>
 8000818:	f411 1f80 	tst.w	r1, #1048576	; 0x100000
 800081c:	d10b      	bne.n	8000836 <__aeabi_ddiv+0x11e>
 800081e:	ea41 0100 	orr.w	r1, r1, r0
 8000822:	f04f 0000 	mov.w	r0, #0
 8000826:	f04f 4c00 	mov.w	ip, #2147483648	; 0x80000000
 800082a:	e7b6      	b.n	800079a <__aeabi_ddiv+0x82>
 800082c:	f411 1f80 	tst.w	r1, #1048576	; 0x100000
 8000830:	bf04      	itt	eq
 8000832:	4301      	orreq	r1, r0
 8000834:	2000      	moveq	r0, #0
 8000836:	f1b4 0cfd 	subs.w	ip, r4, #253	; 0xfd
 800083a:	bf88      	it	hi
 800083c:	f5bc 6fe0 	cmphi.w	ip, #1792	; 0x700
 8000840:	f63f aeaf 	bhi.w	80005a2 <__aeabi_dmul+0xde>
 8000844:	ebb5 0c03 	subs.w	ip, r5, r3
 8000848:	bf04      	itt	eq
 800084a:	ebb6 0c02 	subseq.w	ip, r6, r2
 800084e:	ea5f 0c50 	movseq.w	ip, r0, lsr #1
 8000852:	f150 0000 	adcs.w	r0, r0, #0
 8000856:	eb41 5104 	adc.w	r1, r1, r4, lsl #20
 800085a:	bd70      	pop	{r4, r5, r6, pc}
 800085c:	f00e 4e00 	and.w	lr, lr, #2147483648	; 0x80000000
 8000860:	ea4e 3111 	orr.w	r1, lr, r1, lsr #12
 8000864:	eb14 045c 	adds.w	r4, r4, ip, lsr #1
 8000868:	bfc2      	ittt	gt
 800086a:	ebd4 050c 	rsbsgt	r5, r4, ip
 800086e:	ea41 5104 	orrgt.w	r1, r1, r4, lsl #20
 8000872:	bd70      	popgt	{r4, r5, r6, pc}
 8000874:	f441 1180 	orr.w	r1, r1, #1048576	; 0x100000
 8000878:	f04f 0e00 	mov.w	lr, #0
 800087c:	3c01      	subs	r4, #1
 800087e:	e690      	b.n	80005a2 <__aeabi_dmul+0xde>
 8000880:	ea45 0e06 	orr.w	lr, r5, r6
 8000884:	e68d      	b.n	80005a2 <__aeabi_dmul+0xde>
 8000886:	ea0c 5513 	and.w	r5, ip, r3, lsr #20
 800088a:	ea94 0f0c 	teq	r4, ip
 800088e:	bf08      	it	eq
 8000890:	ea95 0f0c 	teqeq	r5, ip
 8000894:	f43f af3b 	beq.w	800070e <__aeabi_dmul+0x24a>
 8000898:	ea94 0f0c 	teq	r4, ip
 800089c:	d10a      	bne.n	80008b4 <__aeabi_ddiv+0x19c>
 800089e:	ea50 3401 	orrs.w	r4, r0, r1, lsl #12
 80008a2:	f47f af34 	bne.w	800070e <__aeabi_dmul+0x24a>
 80008a6:	ea95 0f0c 	teq	r5, ip
 80008aa:	f47f af25 	bne.w	80006f8 <__aeabi_dmul+0x234>
 80008ae:	4610      	mov	r0, r2
 80008b0:	4619      	mov	r1, r3
 80008b2:	e72c      	b.n	800070e <__aeabi_dmul+0x24a>
 80008b4:	ea95 0f0c 	teq	r5, ip
 80008b8:	d106      	bne.n	80008c8 <__aeabi_ddiv+0x1b0>
 80008ba:	ea52 3503 	orrs.w	r5, r2, r3, lsl #12
 80008be:	f43f aefd 	beq.w	80006bc <__aeabi_dmul+0x1f8>
 80008c2:	4610      	mov	r0, r2
 80008c4:	4619      	mov	r1, r3
 80008c6:	e722      	b.n	800070e <__aeabi_dmul+0x24a>
 80008c8:	ea50 0641 	orrs.w	r6, r0, r1, lsl #1
 80008cc:	bf18      	it	ne
 80008ce:	ea52 0643 	orrsne.w	r6, r2, r3, lsl #1
 80008d2:	f47f aec5 	bne.w	8000660 <__aeabi_dmul+0x19c>
 80008d6:	ea50 0441 	orrs.w	r4, r0, r1, lsl #1
 80008da:	f47f af0d 	bne.w	80006f8 <__aeabi_dmul+0x234>
 80008de:	ea52 0543 	orrs.w	r5, r2, r3, lsl #1
 80008e2:	f47f aeeb 	bne.w	80006bc <__aeabi_dmul+0x1f8>
 80008e6:	e712      	b.n	800070e <__aeabi_dmul+0x24a>

080008e8 <__gedf2>:
 80008e8:	f04f 3cff 	mov.w	ip, #4294967295
 80008ec:	e006      	b.n	80008fc <__cmpdf2+0x4>
 80008ee:	bf00      	nop

080008f0 <__ledf2>:
 80008f0:	f04f 0c01 	mov.w	ip, #1
 80008f4:	e002      	b.n	80008fc <__cmpdf2+0x4>
 80008f6:	bf00      	nop

080008f8 <__cmpdf2>:
 80008f8:	f04f 0c01 	mov.w	ip, #1
 80008fc:	f84d cd04 	str.w	ip, [sp, #-4]!
 8000900:	ea4f 0c41 	mov.w	ip, r1, lsl #1
 8000904:	ea7f 5c6c 	mvns.w	ip, ip, asr #21
 8000908:	ea4f 0c43 	mov.w	ip, r3, lsl #1
 800090c:	bf18      	it	ne
 800090e:	ea7f 5c6c 	mvnsne.w	ip, ip, asr #21
 8000912:	d01b      	beq.n	800094c <__cmpdf2+0x54>
 8000914:	b001      	add	sp, #4
 8000916:	ea50 0c41 	orrs.w	ip, r0, r1, lsl #1
 800091a:	bf0c      	ite	eq
 800091c:	ea52 0c43 	orrseq.w	ip, r2, r3, lsl #1
 8000920:	ea91 0f03 	teqne	r1, r3
 8000924:	bf02      	ittt	eq
 8000926:	ea90 0f02 	teqeq	r0, r2
 800092a:	2000      	moveq	r0, #0
 800092c:	4770      	bxeq	lr
 800092e:	f110 0f00 	cmn.w	r0, #0
 8000932:	ea91 0f03 	teq	r1, r3
 8000936:	bf58      	it	pl
 8000938:	4299      	cmppl	r1, r3
 800093a:	bf08      	it	eq
 800093c:	4290      	cmpeq	r0, r2
 800093e:	bf2c      	ite	cs
 8000940:	17d8      	asrcs	r0, r3, #31
 8000942:	ea6f 70e3 	mvncc.w	r0, r3, asr #31
 8000946:	f040 0001 	orr.w	r0, r0, #1
 800094a:	4770      	bx	lr
 800094c:	ea4f 0c41 	mov.w	ip, r1, lsl #1
 8000950:	ea7f 5c6c 	mvns.w	ip, ip, asr #21
 8000954:	d102      	bne.n	800095c <__cmpdf2+0x64>
 8000956:	ea50 3c01 	orrs.w	ip, r0, r1, lsl #12
 800095a:	d107      	bne.n	800096c <__cmpdf2+0x74>
 800095c:	ea4f 0c43 	mov.w	ip, r3, lsl #1
 8000960:	ea7f 5c6c 	mvns.w	ip, ip, asr #21
 8000964:	d1d6      	bne.n	8000914 <__cmpdf2+0x1c>
 8000966:	ea52 3c03 	orrs.w	ip, r2, r3, lsl #12
 800096a:	d0d3      	beq.n	8000914 <__cmpdf2+0x1c>
 800096c:	f85d 0b04 	ldr.w	r0, [sp], #4
 8000970:	4770      	bx	lr
 8000972:	bf00      	nop

08000974 <__aeabi_cdrcmple>:
 8000974:	4684      	mov	ip, r0
 8000976:	4610      	mov	r0, r2
 8000978:	4662      	mov	r2, ip
 800097a:	468c      	mov	ip, r1
 800097c:	4619      	mov	r1, r3
 800097e:	4663      	mov	r3, ip
 8000980:	e000      	b.n	8000984 <__aeabi_cdcmpeq>
 8000982:	bf00      	nop

08000984 <__aeabi_cdcmpeq>:
 8000984:	b501      	push	{r0, lr}
 8000986:	f7ff ffb7 	bl	80008f8 <__cmpdf2>
 800098a:	2800      	cmp	r0, #0
 800098c:	bf48      	it	mi
 800098e:	f110 0f00 	cmnmi.w	r0, #0
 8000992:	bd01      	pop	{r0, pc}

08000994 <__aeabi_dcmpeq>:
 8000994:	f84d ed08 	str.w	lr, [sp, #-8]!
 8000998:	f7ff fff4 	bl	8000984 <__aeabi_cdcmpeq>
 800099c:	bf0c      	ite	eq
 800099e:	2001      	moveq	r0, #1
 80009a0:	2000      	movne	r0, #0
 80009a2:	f85d fb08 	ldr.w	pc, [sp], #8
 80009a6:	bf00      	nop

080009a8 <__aeabi_dcmplt>:
 80009a8:	f84d ed08 	str.w	lr, [sp, #-8]!
 80009ac:	f7ff ffea 	bl	8000984 <__aeabi_cdcmpeq>
 80009b0:	bf34      	ite	cc
 80009b2:	2001      	movcc	r0, #1
 80009b4:	2000      	movcs	r0, #0
 80009b6:	f85d fb08 	ldr.w	pc, [sp], #8
 80009ba:	bf00      	nop

080009bc <__aeabi_dcmple>:
 80009bc:	f84d ed08 	str.w	lr, [sp, #-8]!
 80009c0:	f7ff ffe0 	bl	8000984 <__aeabi_cdcmpeq>
 80009c4:	bf94      	ite	ls
 80009c6:	2001      	movls	r0, #1
 80009c8:	2000      	movhi	r0, #0
 80009ca:	f85d fb08 	ldr.w	pc, [sp], #8
 80009ce:	bf00      	nop

080009d0 <__aeabi_dcmpge>:
 80009d0:	f84d ed08 	str.w	lr, [sp, #-8]!
 80009d4:	f7ff ffce 	bl	8000974 <__aeabi_cdrcmple>
 80009d8:	bf94      	ite	ls
 80009da:	2001      	movls	r0, #1
 80009dc:	2000      	movhi	r0, #0
 80009de:	f85d fb08 	ldr.w	pc, [sp], #8
 80009e2:	bf00      	nop

080009e4 <__aeabi_dcmpgt>:
 80009e4:	f84d ed08 	str.w	lr, [sp, #-8]!
 80009e8:	f7ff ffc4 	bl	8000974 <__aeabi_cdrcmple>
 80009ec:	bf34      	ite	cc
 80009ee:	2001      	movcc	r0, #1
 80009f0:	2000      	movcs	r0, #0
 80009f2:	f85d fb08 	ldr.w	pc, [sp], #8
 80009f6:	bf00      	nop

080009f8 <__aeabi_frsub>:
 80009f8:	f080 4000 	eor.w	r0, r0, #2147483648	; 0x80000000
 80009fc:	e002      	b.n	8000a04 <__addsf3>
 80009fe:	bf00      	nop

08000a00 <__aeabi_fsub>:
 8000a00:	f081 4100 	eor.w	r1, r1, #2147483648	; 0x80000000

08000a04 <__addsf3>:
 8000a04:	0042      	lsls	r2, r0, #1
 8000a06:	bf1f      	itttt	ne
 8000a08:	ea5f 0341 	movsne.w	r3, r1, lsl #1
 8000a0c:	ea92 0f03 	teqne	r2, r3
 8000a10:	ea7f 6c22 	mvnsne.w	ip, r2, asr #24
 8000a14:	ea7f 6c23 	mvnsne.w	ip, r3, asr #24
 8000a18:	d06a      	beq.n	8000af0 <__addsf3+0xec>
 8000a1a:	ea4f 6212 	mov.w	r2, r2, lsr #24
 8000a1e:	ebd2 6313 	rsbs	r3, r2, r3, lsr #24
 8000a22:	bfc1      	itttt	gt
 8000a24:	18d2      	addgt	r2, r2, r3
 8000a26:	4041      	eorgt	r1, r0
 8000a28:	4048      	eorgt	r0, r1
 8000a2a:	4041      	eorgt	r1, r0
 8000a2c:	bfb8      	it	lt
 8000a2e:	425b      	neglt	r3, r3
 8000a30:	2b19      	cmp	r3, #25
 8000a32:	bf88      	it	hi
 8000a34:	4770      	bxhi	lr
 8000a36:	f010 4f00 	tst.w	r0, #2147483648	; 0x80000000
 8000a3a:	f440 0000 	orr.w	r0, r0, #8388608	; 0x800000
 8000a3e:	f020 407f 	bic.w	r0, r0, #4278190080	; 0xff000000
 8000a42:	bf18      	it	ne
 8000a44:	4240      	negne	r0, r0
 8000a46:	f011 4f00 	tst.w	r1, #2147483648	; 0x80000000
 8000a4a:	f441 0100 	orr.w	r1, r1, #8388608	; 0x800000
 8000a4e:	f021 417f 	bic.w	r1, r1, #4278190080	; 0xff000000
 8000a52:	bf18      	it	ne
 8000a54:	4249      	negne	r1, r1
 8000a56:	ea92 0f03 	teq	r2, r3
 8000a5a:	d03f      	beq.n	8000adc <__addsf3+0xd8>
 8000a5c:	f1a2 0201 	sub.w	r2, r2, #1
 8000a60:	fa41 fc03 	asr.w	ip, r1, r3
 8000a64:	eb10 000c 	adds.w	r0, r0, ip
 8000a68:	f1c3 0320 	rsb	r3, r3, #32
 8000a6c:	fa01 f103 	lsl.w	r1, r1, r3
 8000a70:	f000 4300 	and.w	r3, r0, #2147483648	; 0x80000000
 8000a74:	d502      	bpl.n	8000a7c <__addsf3+0x78>
 8000a76:	4249      	negs	r1, r1
 8000a78:	eb60 0040 	sbc.w	r0, r0, r0, lsl #1
 8000a7c:	f5b0 0f00 	cmp.w	r0, #8388608	; 0x800000
 8000a80:	d313      	bcc.n	8000aaa <__addsf3+0xa6>
 8000a82:	f1b0 7f80 	cmp.w	r0, #16777216	; 0x1000000
 8000a86:	d306      	bcc.n	8000a96 <__addsf3+0x92>
 8000a88:	0840      	lsrs	r0, r0, #1
 8000a8a:	ea4f 0131 	mov.w	r1, r1, rrx
 8000a8e:	f102 0201 	add.w	r2, r2, #1
 8000a92:	2afe      	cmp	r2, #254	; 0xfe
 8000a94:	d251      	bcs.n	8000b3a <__addsf3+0x136>
 8000a96:	f1b1 4f00 	cmp.w	r1, #2147483648	; 0x80000000
 8000a9a:	eb40 50c2 	adc.w	r0, r0, r2, lsl #23
 8000a9e:	bf08      	it	eq
 8000aa0:	f020 0001 	biceq.w	r0, r0, #1
 8000aa4:	ea40 0003 	orr.w	r0, r0, r3
 8000aa8:	4770      	bx	lr
 8000aaa:	0049      	lsls	r1, r1, #1
 8000aac:	eb40 0000 	adc.w	r0, r0, r0
 8000ab0:	3a01      	subs	r2, #1
 8000ab2:	bf28      	it	cs
 8000ab4:	f5b0 0f00 	cmpcs.w	r0, #8388608	; 0x800000
 8000ab8:	d2ed      	bcs.n	8000a96 <__addsf3+0x92>
 8000aba:	fab0 fc80 	clz	ip, r0
 8000abe:	f1ac 0c08 	sub.w	ip, ip, #8
 8000ac2:	ebb2 020c 	subs.w	r2, r2, ip
 8000ac6:	fa00 f00c 	lsl.w	r0, r0, ip
 8000aca:	bfaa      	itet	ge
 8000acc:	eb00 50c2 	addge.w	r0, r0, r2, lsl #23
 8000ad0:	4252      	neglt	r2, r2
 8000ad2:	4318      	orrge	r0, r3
 8000ad4:	bfbc      	itt	lt
 8000ad6:	40d0      	lsrlt	r0, r2
 8000ad8:	4318      	orrlt	r0, r3
 8000ada:	4770      	bx	lr
 8000adc:	f092 0f00 	teq	r2, #0
 8000ae0:	f481 0100 	eor.w	r1, r1, #8388608	; 0x800000
 8000ae4:	bf06      	itte	eq
 8000ae6:	f480 0000 	eoreq.w	r0, r0, #8388608	; 0x800000
 8000aea:	3201      	addeq	r2, #1
 8000aec:	3b01      	subne	r3, #1
 8000aee:	e7b5      	b.n	8000a5c <__addsf3+0x58>
 8000af0:	ea4f 0341 	mov.w	r3, r1, lsl #1
 8000af4:	ea7f 6c22 	mvns.w	ip, r2, asr #24
 8000af8:	bf18      	it	ne
 8000afa:	ea7f 6c23 	mvnsne.w	ip, r3, asr #24
 8000afe:	d021      	beq.n	8000b44 <__addsf3+0x140>
 8000b00:	ea92 0f03 	teq	r2, r3
 8000b04:	d004      	beq.n	8000b10 <__addsf3+0x10c>
 8000b06:	f092 0f00 	teq	r2, #0
 8000b0a:	bf08      	it	eq
 8000b0c:	4608      	moveq	r0, r1
 8000b0e:	4770      	bx	lr
 8000b10:	ea90 0f01 	teq	r0, r1
 8000b14:	bf1c      	itt	ne
 8000b16:	2000      	movne	r0, #0
 8000b18:	4770      	bxne	lr
 8000b1a:	f012 4f7f 	tst.w	r2, #4278190080	; 0xff000000
 8000b1e:	d104      	bne.n	8000b2a <__addsf3+0x126>
 8000b20:	0040      	lsls	r0, r0, #1
 8000b22:	bf28      	it	cs
 8000b24:	f040 4000 	orrcs.w	r0, r0, #2147483648	; 0x80000000
 8000b28:	4770      	bx	lr
 8000b2a:	f112 7200 	adds.w	r2, r2, #33554432	; 0x2000000
 8000b2e:	bf3c      	itt	cc
 8000b30:	f500 0000 	addcc.w	r0, r0, #8388608	; 0x800000
 8000b34:	4770      	bxcc	lr
 8000b36:	f000 4300 	and.w	r3, r0, #2147483648	; 0x80000000
 8000b3a:	f043 40fe 	orr.w	r0, r3, #2130706432	; 0x7f000000
 8000b3e:	f440 0000 	orr.w	r0, r0, #8388608	; 0x800000
 8000b42:	4770      	bx	lr
 8000b44:	ea7f 6222 	mvns.w	r2, r2, asr #24
 8000b48:	bf16      	itet	ne
 8000b4a:	4608      	movne	r0, r1
 8000b4c:	ea7f 6323 	mvnseq.w	r3, r3, asr #24
 8000b50:	4601      	movne	r1, r0
 8000b52:	0242      	lsls	r2, r0, #9
 8000b54:	bf06      	itte	eq
 8000b56:	ea5f 2341 	movseq.w	r3, r1, lsl #9
 8000b5a:	ea90 0f01 	teqeq	r0, r1
 8000b5e:	f440 0080 	orrne.w	r0, r0, #4194304	; 0x400000
 8000b62:	4770      	bx	lr

08000b64 <__aeabi_ui2f>:
 8000b64:	f04f 0300 	mov.w	r3, #0
 8000b68:	e004      	b.n	8000b74 <__aeabi_i2f+0x8>
 8000b6a:	bf00      	nop

08000b6c <__aeabi_i2f>:
 8000b6c:	f010 4300 	ands.w	r3, r0, #2147483648	; 0x80000000
 8000b70:	bf48      	it	mi
 8000b72:	4240      	negmi	r0, r0
 8000b74:	ea5f 0c00 	movs.w	ip, r0
 8000b78:	bf08      	it	eq
 8000b7a:	4770      	bxeq	lr
 8000b7c:	f043 4396 	orr.w	r3, r3, #1258291200	; 0x4b000000
 8000b80:	4601      	mov	r1, r0
 8000b82:	f04f 0000 	mov.w	r0, #0
 8000b86:	e01c      	b.n	8000bc2 <__aeabi_l2f+0x2a>

08000b88 <__aeabi_ul2f>:
 8000b88:	ea50 0201 	orrs.w	r2, r0, r1
 8000b8c:	bf08      	it	eq
 8000b8e:	4770      	bxeq	lr
 8000b90:	f04f 0300 	mov.w	r3, #0
 8000b94:	e00a      	b.n	8000bac <__aeabi_l2f+0x14>
 8000b96:	bf00      	nop

08000b98 <__aeabi_l2f>:
 8000b98:	ea50 0201 	orrs.w	r2, r0, r1
 8000b9c:	bf08      	it	eq
 8000b9e:	4770      	bxeq	lr
 8000ba0:	f011 4300 	ands.w	r3, r1, #2147483648	; 0x80000000
 8000ba4:	d502      	bpl.n	8000bac <__aeabi_l2f+0x14>
 8000ba6:	4240      	negs	r0, r0
 8000ba8:	eb61 0141 	sbc.w	r1, r1, r1, lsl #1
 8000bac:	ea5f 0c01 	movs.w	ip, r1
 8000bb0:	bf02      	ittt	eq
 8000bb2:	4684      	moveq	ip, r0
 8000bb4:	4601      	moveq	r1, r0
 8000bb6:	2000      	moveq	r0, #0
 8000bb8:	f043 43b6 	orr.w	r3, r3, #1526726656	; 0x5b000000
 8000bbc:	bf08      	it	eq
 8000bbe:	f1a3 5380 	subeq.w	r3, r3, #268435456	; 0x10000000
 8000bc2:	f5a3 0300 	sub.w	r3, r3, #8388608	; 0x800000
 8000bc6:	fabc f28c 	clz	r2, ip
 8000bca:	3a08      	subs	r2, #8
 8000bcc:	eba3 53c2 	sub.w	r3, r3, r2, lsl #23
 8000bd0:	db10      	blt.n	8000bf4 <__aeabi_l2f+0x5c>
 8000bd2:	fa01 fc02 	lsl.w	ip, r1, r2
 8000bd6:	4463      	add	r3, ip
 8000bd8:	fa00 fc02 	lsl.w	ip, r0, r2
 8000bdc:	f1c2 0220 	rsb	r2, r2, #32
 8000be0:	f1bc 4f00 	cmp.w	ip, #2147483648	; 0x80000000
 8000be4:	fa20 f202 	lsr.w	r2, r0, r2
 8000be8:	eb43 0002 	adc.w	r0, r3, r2
 8000bec:	bf08      	it	eq
 8000bee:	f020 0001 	biceq.w	r0, r0, #1
 8000bf2:	4770      	bx	lr
 8000bf4:	f102 0220 	add.w	r2, r2, #32
 8000bf8:	fa01 fc02 	lsl.w	ip, r1, r2
 8000bfc:	f1c2 0220 	rsb	r2, r2, #32
 8000c00:	ea50 004c 	orrs.w	r0, r0, ip, lsl #1
 8000c04:	fa21 f202 	lsr.w	r2, r1, r2
 8000c08:	eb43 0002 	adc.w	r0, r3, r2
 8000c0c:	bf08      	it	eq
 8000c0e:	ea20 70dc 	biceq.w	r0, r0, ip, lsr #31
 8000c12:	4770      	bx	lr

08000c14 <__aeabi_fmul>:
 8000c14:	f04f 0cff 	mov.w	ip, #255	; 0xff
 8000c18:	ea1c 52d0 	ands.w	r2, ip, r0, lsr #23
 8000c1c:	bf1e      	ittt	ne
 8000c1e:	ea1c 53d1 	andsne.w	r3, ip, r1, lsr #23
 8000c22:	ea92 0f0c 	teqne	r2, ip
 8000c26:	ea93 0f0c 	teqne	r3, ip
 8000c2a:	d06f      	beq.n	8000d0c <__aeabi_fmul+0xf8>
 8000c2c:	441a      	add	r2, r3
 8000c2e:	ea80 0c01 	eor.w	ip, r0, r1
 8000c32:	0240      	lsls	r0, r0, #9
 8000c34:	bf18      	it	ne
 8000c36:	ea5f 2141 	movsne.w	r1, r1, lsl #9
 8000c3a:	d01e      	beq.n	8000c7a <__aeabi_fmul+0x66>
 8000c3c:	f04f 6300 	mov.w	r3, #134217728	; 0x8000000
 8000c40:	ea43 1050 	orr.w	r0, r3, r0, lsr #5
 8000c44:	ea43 1151 	orr.w	r1, r3, r1, lsr #5
 8000c48:	fba0 3101 	umull	r3, r1, r0, r1
 8000c4c:	f00c 4000 	and.w	r0, ip, #2147483648	; 0x80000000
 8000c50:	f5b1 0f00 	cmp.w	r1, #8388608	; 0x800000
 8000c54:	bf3e      	ittt	cc
 8000c56:	0049      	lslcc	r1, r1, #1
 8000c58:	ea41 71d3 	orrcc.w	r1, r1, r3, lsr #31
 8000c5c:	005b      	lslcc	r3, r3, #1
 8000c5e:	ea40 0001 	orr.w	r0, r0, r1
 8000c62:	f162 027f 	sbc.w	r2, r2, #127	; 0x7f
 8000c66:	2afd      	cmp	r2, #253	; 0xfd
 8000c68:	d81d      	bhi.n	8000ca6 <__aeabi_fmul+0x92>
 8000c6a:	f1b3 4f00 	cmp.w	r3, #2147483648	; 0x80000000
 8000c6e:	eb40 50c2 	adc.w	r0, r0, r2, lsl #23
 8000c72:	bf08      	it	eq
 8000c74:	f020 0001 	biceq.w	r0, r0, #1
 8000c78:	4770      	bx	lr
 8000c7a:	f090 0f00 	teq	r0, #0
 8000c7e:	f00c 4c00 	and.w	ip, ip, #2147483648	; 0x80000000
 8000c82:	bf08      	it	eq
 8000c84:	0249      	lsleq	r1, r1, #9
 8000c86:	ea4c 2050 	orr.w	r0, ip, r0, lsr #9
 8000c8a:	ea40 2051 	orr.w	r0, r0, r1, lsr #9
 8000c8e:	3a7f      	subs	r2, #127	; 0x7f
 8000c90:	bfc2      	ittt	gt
 8000c92:	f1d2 03ff 	rsbsgt	r3, r2, #255	; 0xff
 8000c96:	ea40 50c2 	orrgt.w	r0, r0, r2, lsl #23
 8000c9a:	4770      	bxgt	lr
 8000c9c:	f440 0000 	orr.w	r0, r0, #8388608	; 0x800000
 8000ca0:	f04f 0300 	mov.w	r3, #0
 8000ca4:	3a01      	subs	r2, #1
 8000ca6:	dc5d      	bgt.n	8000d64 <__aeabi_fmul+0x150>
 8000ca8:	f112 0f19 	cmn.w	r2, #25
 8000cac:	bfdc      	itt	le
 8000cae:	f000 4000 	andle.w	r0, r0, #2147483648	; 0x80000000
 8000cb2:	4770      	bxle	lr
 8000cb4:	f1c2 0200 	rsb	r2, r2, #0
 8000cb8:	0041      	lsls	r1, r0, #1
 8000cba:	fa21 f102 	lsr.w	r1, r1, r2
 8000cbe:	f1c2 0220 	rsb	r2, r2, #32
 8000cc2:	fa00 fc02 	lsl.w	ip, r0, r2
 8000cc6:	ea5f 0031 	movs.w	r0, r1, rrx
 8000cca:	f140 0000 	adc.w	r0, r0, #0
 8000cce:	ea53 034c 	orrs.w	r3, r3, ip, lsl #1
 8000cd2:	bf08      	it	eq
 8000cd4:	ea20 70dc 	biceq.w	r0, r0, ip, lsr #31
 8000cd8:	4770      	bx	lr
 8000cda:	f092 0f00 	teq	r2, #0
 8000cde:	f000 4c00 	and.w	ip, r0, #2147483648	; 0x80000000
 8000ce2:	bf02      	ittt	eq
 8000ce4:	0040      	lsleq	r0, r0, #1
 8000ce6:	f410 0f00 	tsteq.w	r0, #8388608	; 0x800000
 8000cea:	3a01      	subeq	r2, #1
 8000cec:	d0f9      	beq.n	8000ce2 <__aeabi_fmul+0xce>
 8000cee:	ea40 000c 	orr.w	r0, r0, ip
 8000cf2:	f093 0f00 	teq	r3, #0
 8000cf6:	f001 4c00 	and.w	ip, r1, #2147483648	; 0x80000000
 8000cfa:	bf02      	ittt	eq
 8000cfc:	0049      	lsleq	r1, r1, #1
 8000cfe:	f411 0f00 	tsteq.w	r1, #8388608	; 0x800000
 8000d02:	3b01      	subeq	r3, #1
 8000d04:	d0f9      	beq.n	8000cfa <__aeabi_fmul+0xe6>
 8000d06:	ea41 010c 	orr.w	r1, r1, ip
 8000d0a:	e78f      	b.n	8000c2c <__aeabi_fmul+0x18>
 8000d0c:	ea0c 53d1 	and.w	r3, ip, r1, lsr #23
 8000d10:	ea92 0f0c 	teq	r2, ip
 8000d14:	bf18      	it	ne
 8000d16:	ea93 0f0c 	teqne	r3, ip
 8000d1a:	d00a      	beq.n	8000d32 <__aeabi_fmul+0x11e>
 8000d1c:	f030 4c00 	bics.w	ip, r0, #2147483648	; 0x80000000
 8000d20:	bf18      	it	ne
 8000d22:	f031 4c00 	bicsne.w	ip, r1, #2147483648	; 0x80000000
 8000d26:	d1d8      	bne.n	8000cda <__aeabi_fmul+0xc6>
 8000d28:	ea80 0001 	eor.w	r0, r0, r1
 8000d2c:	f000 4000 	and.w	r0, r0, #2147483648	; 0x80000000
 8000d30:	4770      	bx	lr
 8000d32:	f090 0f00 	teq	r0, #0
 8000d36:	bf17      	itett	ne
 8000d38:	f090 4f00 	teqne	r0, #2147483648	; 0x80000000
 8000d3c:	4608      	moveq	r0, r1
 8000d3e:	f091 0f00 	teqne	r1, #0
 8000d42:	f091 4f00 	teqne	r1, #2147483648	; 0x80000000
 8000d46:	d014      	beq.n	8000d72 <__aeabi_fmul+0x15e>
 8000d48:	ea92 0f0c 	teq	r2, ip
 8000d4c:	d101      	bne.n	8000d52 <__aeabi_fmul+0x13e>
 8000d4e:	0242      	lsls	r2, r0, #9
 8000d50:	d10f      	bne.n	8000d72 <__aeabi_fmul+0x15e>
 8000d52:	ea93 0f0c 	teq	r3, ip
 8000d56:	d103      	bne.n	8000d60 <__aeabi_fmul+0x14c>
 8000d58:	024b      	lsls	r3, r1, #9
 8000d5a:	bf18      	it	ne
 8000d5c:	4608      	movne	r0, r1
 8000d5e:	d108      	bne.n	8000d72 <__aeabi_fmul+0x15e>
 8000d60:	ea80 0001 	eor.w	r0, r0, r1
 8000d64:	f000 4000 	and.w	r0, r0, #2147483648	; 0x80000000
 8000d68:	f040 40fe 	orr.w	r0, r0, #2130706432	; 0x7f000000
 8000d6c:	f440 0000 	orr.w	r0, r0, #8388608	; 0x800000
 8000d70:	4770      	bx	lr
 8000d72:	f040 40fe 	orr.w	r0, r0, #2130706432	; 0x7f000000
 8000d76:	f440 0040 	orr.w	r0, r0, #12582912	; 0xc00000
 8000d7a:	4770      	bx	lr

08000d7c <__aeabi_fdiv>:
 8000d7c:	f04f 0cff 	mov.w	ip, #255	; 0xff
 8000d80:	ea1c 52d0 	ands.w	r2, ip, r0, lsr #23
 8000d84:	bf1e      	ittt	ne
 8000d86:	ea1c 53d1 	andsne.w	r3, ip, r1, lsr #23
 8000d8a:	ea92 0f0c 	teqne	r2, ip
 8000d8e:	ea93 0f0c 	teqne	r3, ip
 8000d92:	d069      	beq.n	8000e68 <__aeabi_fdiv+0xec>
 8000d94:	eba2 0203 	sub.w	r2, r2, r3
 8000d98:	ea80 0c01 	eor.w	ip, r0, r1
 8000d9c:	0249      	lsls	r1, r1, #9
 8000d9e:	ea4f 2040 	mov.w	r0, r0, lsl #9
 8000da2:	d037      	beq.n	8000e14 <__aeabi_fdiv+0x98>
 8000da4:	f04f 5380 	mov.w	r3, #268435456	; 0x10000000
 8000da8:	ea43 1111 	orr.w	r1, r3, r1, lsr #4
 8000dac:	ea43 1310 	orr.w	r3, r3, r0, lsr #4
 8000db0:	f00c 4000 	and.w	r0, ip, #2147483648	; 0x80000000
 8000db4:	428b      	cmp	r3, r1
 8000db6:	bf38      	it	cc
 8000db8:	005b      	lslcc	r3, r3, #1
 8000dba:	f142 027d 	adc.w	r2, r2, #125	; 0x7d
 8000dbe:	f44f 0c00 	mov.w	ip, #8388608	; 0x800000
 8000dc2:	428b      	cmp	r3, r1
 8000dc4:	bf24      	itt	cs
 8000dc6:	1a5b      	subcs	r3, r3, r1
 8000dc8:	ea40 000c 	orrcs.w	r0, r0, ip
 8000dcc:	ebb3 0f51 	cmp.w	r3, r1, lsr #1
 8000dd0:	bf24      	itt	cs
 8000dd2:	eba3 0351 	subcs.w	r3, r3, r1, lsr #1
 8000dd6:	ea40 005c 	orrcs.w	r0, r0, ip, lsr #1
 8000dda:	ebb3 0f91 	cmp.w	r3, r1, lsr #2
 8000dde:	bf24      	itt	cs
 8000de0:	eba3 0391 	subcs.w	r3, r3, r1, lsr #2
 8000de4:	ea40 009c 	orrcs.w	r0, r0, ip, lsr #2
 8000de8:	ebb3 0fd1 	cmp.w	r3, r1, lsr #3
 8000dec:	bf24      	itt	cs
 8000dee:	eba3 03d1 	subcs.w	r3, r3, r1, lsr #3
 8000df2:	ea40 00dc 	orrcs.w	r0, r0, ip, lsr #3
 8000df6:	011b      	lsls	r3, r3, #4
 8000df8:	bf18      	it	ne
 8000dfa:	ea5f 1c1c 	movsne.w	ip, ip, lsr #4
 8000dfe:	d1e0      	bne.n	8000dc2 <__aeabi_fdiv+0x46>
 8000e00:	2afd      	cmp	r2, #253	; 0xfd
 8000e02:	f63f af50 	bhi.w	8000ca6 <__aeabi_fmul+0x92>
 8000e06:	428b      	cmp	r3, r1
 8000e08:	eb40 50c2 	adc.w	r0, r0, r2, lsl #23
 8000e0c:	bf08      	it	eq
 8000e0e:	f020 0001 	biceq.w	r0, r0, #1
 8000e12:	4770      	bx	lr
 8000e14:	f00c 4c00 	and.w	ip, ip, #2147483648	; 0x80000000
 8000e18:	ea4c 2050 	orr.w	r0, ip, r0, lsr #9
 8000e1c:	327f      	adds	r2, #127	; 0x7f
 8000e1e:	bfc2      	ittt	gt
 8000e20:	f1d2 03ff 	rsbsgt	r3, r2, #255	; 0xff
 8000e24:	ea40 50c2 	orrgt.w	r0, r0, r2, lsl #23
 8000e28:	4770      	bxgt	lr
 8000e2a:	f440 0000 	orr.w	r0, r0, #8388608	; 0x800000
 8000e2e:	f04f 0300 	mov.w	r3, #0
 8000e32:	3a01      	subs	r2, #1
 8000e34:	e737      	b.n	8000ca6 <__aeabi_fmul+0x92>
 8000e36:	f092 0f00 	teq	r2, #0
 8000e3a:	f000 4c00 	and.w	ip, r0, #2147483648	; 0x80000000
 8000e3e:	bf02      	ittt	eq
 8000e40:	0040      	lsleq	r0, r0, #1
 8000e42:	f410 0f00 	tsteq.w	r0, #8388608	; 0x800000
 8000e46:	3a01      	subeq	r2, #1
 8000e48:	d0f9      	beq.n	8000e3e <__aeabi_fdiv+0xc2>
 8000e4a:	ea40 000c 	orr.w	r0, r0, ip
 8000e4e:	f093 0f00 	teq	r3, #0
 8000e52:	f001 4c00 	and.w	ip, r1, #2147483648	; 0x80000000
 8000e56:	bf02      	ittt	eq
 8000e58:	0049      	lsleq	r1, r1, #1
 8000e5a:	f411 0f00 	tsteq.w	r1, #8388608	; 0x800000
 8000e5e:	3b01      	subeq	r3, #1
 8000e60:	d0f9      	beq.n	8000e56 <__aeabi_fdiv+0xda>
 8000e62:	ea41 010c 	orr.w	r1, r1, ip
 8000e66:	e795      	b.n	8000d94 <__aeabi_fdiv+0x18>
 8000e68:	ea0c 53d1 	and.w	r3, ip, r1, lsr #23
 8000e6c:	ea92 0f0c 	teq	r2, ip
 8000e70:	d108      	bne.n	8000e84 <__aeabi_fdiv+0x108>
 8000e72:	0242      	lsls	r2, r0, #9
 8000e74:	f47f af7d 	bne.w	8000d72 <__aeabi_fmul+0x15e>
 8000e78:	ea93 0f0c 	teq	r3, ip
 8000e7c:	f47f af70 	bne.w	8000d60 <__aeabi_fmul+0x14c>
 8000e80:	4608      	mov	r0, r1
 8000e82:	e776      	b.n	8000d72 <__aeabi_fmul+0x15e>
 8000e84:	ea93 0f0c 	teq	r3, ip
 8000e88:	d104      	bne.n	8000e94 <__aeabi_fdiv+0x118>
 8000e8a:	024b      	lsls	r3, r1, #9
 8000e8c:	f43f af4c 	beq.w	8000d28 <__aeabi_fmul+0x114>
 8000e90:	4608      	mov	r0, r1
 8000e92:	e76e      	b.n	8000d72 <__aeabi_fmul+0x15e>
 8000e94:	f030 4c00 	bics.w	ip, r0, #2147483648	; 0x80000000
 8000e98:	bf18      	it	ne
 8000e9a:	f031 4c00 	bicsne.w	ip, r1, #2147483648	; 0x80000000
 8000e9e:	d1ca      	bne.n	8000e36 <__aeabi_fdiv+0xba>
 8000ea0:	f030 4200 	bics.w	r2, r0, #2147483648	; 0x80000000
 8000ea4:	f47f af5c 	bne.w	8000d60 <__aeabi_fmul+0x14c>
 8000ea8:	f031 4300 	bics.w	r3, r1, #2147483648	; 0x80000000
 8000eac:	f47f af3c 	bne.w	8000d28 <__aeabi_fmul+0x114>
 8000eb0:	e75f      	b.n	8000d72 <__aeabi_fmul+0x15e>
 8000eb2:	bf00      	nop

08000eb4 <__gesf2>:
 8000eb4:	f04f 3cff 	mov.w	ip, #4294967295
 8000eb8:	e006      	b.n	8000ec8 <__cmpsf2+0x4>
 8000eba:	bf00      	nop

08000ebc <__lesf2>:
 8000ebc:	f04f 0c01 	mov.w	ip, #1
 8000ec0:	e002      	b.n	8000ec8 <__cmpsf2+0x4>
 8000ec2:	bf00      	nop

08000ec4 <__cmpsf2>:
 8000ec4:	f04f 0c01 	mov.w	ip, #1
 8000ec8:	f84d cd04 	str.w	ip, [sp, #-4]!
 8000ecc:	ea4f 0240 	mov.w	r2, r0, lsl #1
 8000ed0:	ea4f 0341 	mov.w	r3, r1, lsl #1
 8000ed4:	ea7f 6c22 	mvns.w	ip, r2, asr #24
 8000ed8:	bf18      	it	ne
 8000eda:	ea7f 6c23 	mvnsne.w	ip, r3, asr #24
 8000ede:	d011      	beq.n	8000f04 <__cmpsf2+0x40>
 8000ee0:	b001      	add	sp, #4
 8000ee2:	ea52 0c53 	orrs.w	ip, r2, r3, lsr #1
 8000ee6:	bf18      	it	ne
 8000ee8:	ea90 0f01 	teqne	r0, r1
 8000eec:	bf58      	it	pl
 8000eee:	ebb2 0003 	subspl.w	r0, r2, r3
 8000ef2:	bf88      	it	hi
 8000ef4:	17c8      	asrhi	r0, r1, #31
 8000ef6:	bf38      	it	cc
 8000ef8:	ea6f 70e1 	mvncc.w	r0, r1, asr #31
 8000efc:	bf18      	it	ne
 8000efe:	f040 0001 	orrne.w	r0, r0, #1
 8000f02:	4770      	bx	lr
 8000f04:	ea7f 6c22 	mvns.w	ip, r2, asr #24
 8000f08:	d102      	bne.n	8000f10 <__cmpsf2+0x4c>
 8000f0a:	ea5f 2c40 	movs.w	ip, r0, lsl #9
 8000f0e:	d105      	bne.n	8000f1c <__cmpsf2+0x58>
 8000f10:	ea7f 6c23 	mvns.w	ip, r3, asr #24
 8000f14:	d1e4      	bne.n	8000ee0 <__cmpsf2+0x1c>
 8000f16:	ea5f 2c41 	movs.w	ip, r1, lsl #9
 8000f1a:	d0e1      	beq.n	8000ee0 <__cmpsf2+0x1c>
 8000f1c:	f85d 0b04 	ldr.w	r0, [sp], #4
 8000f20:	4770      	bx	lr
 8000f22:	bf00      	nop

08000f24 <__aeabi_cfrcmple>:
 8000f24:	4684      	mov	ip, r0
 8000f26:	4608      	mov	r0, r1
 8000f28:	4661      	mov	r1, ip
 8000f2a:	e7ff      	b.n	8000f2c <__aeabi_cfcmpeq>

08000f2c <__aeabi_cfcmpeq>:
 8000f2c:	b50f      	push	{r0, r1, r2, r3, lr}
 8000f2e:	f7ff ffc9 	bl	8000ec4 <__cmpsf2>
 8000f32:	2800      	cmp	r0, #0
 8000f34:	bf48      	it	mi
 8000f36:	f110 0f00 	cmnmi.w	r0, #0
 8000f3a:	bd0f      	pop	{r0, r1, r2, r3, pc}

08000f3c <__aeabi_fcmpeq>:
 8000f3c:	f84d ed08 	str.w	lr, [sp, #-8]!
 8000f40:	f7ff fff4 	bl	8000f2c <__aeabi_cfcmpeq>
 8000f44:	bf0c      	ite	eq
 8000f46:	2001      	moveq	r0, #1
 8000f48:	2000      	movne	r0, #0
 8000f4a:	f85d fb08 	ldr.w	pc, [sp], #8
 8000f4e:	bf00      	nop

08000f50 <__aeabi_fcmplt>:
 8000f50:	f84d ed08 	str.w	lr, [sp, #-8]!
 8000f54:	f7ff ffea 	bl	8000f2c <__aeabi_cfcmpeq>
 8000f58:	bf34      	ite	cc
 8000f5a:	2001      	movcc	r0, #1
 8000f5c:	2000      	movcs	r0, #0
 8000f5e:	f85d fb08 	ldr.w	pc, [sp], #8
 8000f62:	bf00      	nop

08000f64 <__aeabi_fcmple>:
 8000f64:	f84d ed08 	str.w	lr, [sp, #-8]!
 8000f68:	f7ff ffe0 	bl	8000f2c <__aeabi_cfcmpeq>
 8000f6c:	bf94      	ite	ls
 8000f6e:	2001      	movls	r0, #1
 8000f70:	2000      	movhi	r0, #0
 8000f72:	f85d fb08 	ldr.w	pc, [sp], #8
 8000f76:	bf00      	nop

08000f78 <__aeabi_fcmpge>:
 8000f78:	f84d ed08 	str.w	lr, [sp, #-8]!
 8000f7c:	f7ff ffd2 	bl	8000f24 <__aeabi_cfrcmple>
 8000f80:	bf94      	ite	ls
 8000f82:	2001      	movls	r0, #1
 8000f84:	2000      	movhi	r0, #0
 8000f86:	f85d fb08 	ldr.w	pc, [sp], #8
 8000f8a:	bf00      	nop

08000f8c <__aeabi_fcmpgt>:
 8000f8c:	f84d ed08 	str.w	lr, [sp, #-8]!
 8000f90:	f7ff ffc8 	bl	8000f24 <__aeabi_cfrcmple>
 8000f94:	bf34      	ite	cc
 8000f96:	2001      	movcc	r0, #1
 8000f98:	2000      	movcs	r0, #0
 8000f9a:	f85d fb08 	ldr.w	pc, [sp], #8
 8000f9e:	bf00      	nop

08000fa0 <__aeabi_f2iz>:
 8000fa0:	ea4f 0240 	mov.w	r2, r0, lsl #1
 8000fa4:	f1b2 4ffe 	cmp.w	r2, #2130706432	; 0x7f000000
 8000fa8:	d30f      	bcc.n	8000fca <__aeabi_f2iz+0x2a>
 8000faa:	f04f 039e 	mov.w	r3, #158	; 0x9e
 8000fae:	ebb3 6212 	subs.w	r2, r3, r2, lsr #24
 8000fb2:	d90d      	bls.n	8000fd0 <__aeabi_f2iz+0x30>
 8000fb4:	ea4f 2300 	mov.w	r3, r0, lsl #8
 8000fb8:	f043 4300 	orr.w	r3, r3, #2147483648	; 0x80000000
 8000fbc:	f010 4f00 	tst.w	r0, #2147483648	; 0x80000000
 8000fc0:	fa23 f002 	lsr.w	r0, r3, r2
 8000fc4:	bf18      	it	ne
 8000fc6:	4240      	negne	r0, r0
 8000fc8:	4770      	bx	lr
 8000fca:	f04f 0000 	mov.w	r0, #0
 8000fce:	4770      	bx	lr
 8000fd0:	f112 0f61 	cmn.w	r2, #97	; 0x61
 8000fd4:	d101      	bne.n	8000fda <__aeabi_f2iz+0x3a>
 8000fd6:	0242      	lsls	r2, r0, #9
 8000fd8:	d105      	bne.n	8000fe6 <__aeabi_f2iz+0x46>
 8000fda:	f010 4000 	ands.w	r0, r0, #2147483648	; 0x80000000
 8000fde:	bf08      	it	eq
 8000fe0:	f06f 4000 	mvneq.w	r0, #2147483648	; 0x80000000
 8000fe4:	4770      	bx	lr
 8000fe6:	f04f 0000 	mov.w	r0, #0
 8000fea:	4770      	bx	lr

08000fec <FLASH_Unlock>:
 8000fec:	4b03      	ldr	r3, [pc, #12]	; (8000ffc <FLASH_Unlock+0x10>)
 8000fee:	4a04      	ldr	r2, [pc, #16]	; (8001000 <FLASH_Unlock+0x14>)
 8000ff0:	605a      	str	r2, [r3, #4]
 8000ff2:	f102 3288 	add.w	r2, r2, #2290649224	; 0x88888888
 8000ff6:	605a      	str	r2, [r3, #4]
 8000ff8:	4770      	bx	lr
 8000ffa:	bf00      	nop
 8000ffc:	40022000 	.word	0x40022000
 8001000:	45670123 	.word	0x45670123

08001004 <FLASH_GetStatus>:
 8001004:	4b0b      	ldr	r3, [pc, #44]	; (8001034 <FLASH_GetStatus+0x30>)
 8001006:	68da      	ldr	r2, [r3, #12]
 8001008:	07d0      	lsls	r0, r2, #31
 800100a:	d40c      	bmi.n	8001026 <FLASH_GetStatus+0x22>
 800100c:	68da      	ldr	r2, [r3, #12]
 800100e:	0751      	lsls	r1, r2, #29
 8001010:	d40b      	bmi.n	800102a <FLASH_GetStatus+0x26>
 8001012:	68da      	ldr	r2, [r3, #12]
 8001014:	06d2      	lsls	r2, r2, #27
 8001016:	d40a      	bmi.n	800102e <FLASH_GetStatus+0x2a>
 8001018:	68d8      	ldr	r0, [r3, #12]
 800101a:	f000 0001 	and.w	r0, r0, #1
 800101e:	f1c0 0005 	rsb	r0, r0, #5
 8001022:	b2c0      	uxtb	r0, r0
 8001024:	4770      	bx	lr
 8001026:	2001      	movs	r0, #1
 8001028:	4770      	bx	lr
 800102a:	2002      	movs	r0, #2
 800102c:	4770      	bx	lr
 800102e:	2003      	movs	r0, #3
 8001030:	4770      	bx	lr
 8001032:	bf00      	nop
 8001034:	40022000 	.word	0x40022000

08001038 <FLASH_WaitForLastOperation_>:
 8001038:	b537      	push	{r0, r1, r2, r4, r5, lr}
 800103a:	4604      	mov	r4, r0
 800103c:	25ff      	movs	r5, #255	; 0xff
 800103e:	f7ff ffe1 	bl	8001004 <FLASH_GetStatus>
 8001042:	2801      	cmp	r0, #1
 8001044:	d10e      	bne.n	8001064 <FLASH_WaitForLastOperation_+0x2c>
 8001046:	b914      	cbnz	r4, 800104e <FLASH_WaitForLastOperation_+0x16>
 8001048:	2006      	movs	r0, #6
 800104a:	b003      	add	sp, #12
 800104c:	bd30      	pop	{r4, r5, pc}
 800104e:	9501      	str	r5, [sp, #4]
 8001050:	9b01      	ldr	r3, [sp, #4]
 8001052:	b91b      	cbnz	r3, 800105c <FLASH_WaitForLastOperation_+0x24>
 8001054:	f7ff ffd6 	bl	8001004 <FLASH_GetStatus>
 8001058:	3c01      	subs	r4, #1
 800105a:	e7f2      	b.n	8001042 <FLASH_WaitForLastOperation_+0xa>
 800105c:	9b01      	ldr	r3, [sp, #4]
 800105e:	3b01      	subs	r3, #1
 8001060:	9301      	str	r3, [sp, #4]
 8001062:	e7f5      	b.n	8001050 <FLASH_WaitForLastOperation_+0x18>
 8001064:	2c00      	cmp	r4, #0
 8001066:	bf08      	it	eq
 8001068:	2006      	moveq	r0, #6
 800106a:	e7ee      	b.n	800104a <FLASH_WaitForLastOperation_+0x12>

0800106c <FLASH_ErasePage>:
 800106c:	b538      	push	{r3, r4, r5, lr}
 800106e:	4605      	mov	r5, r0
 8001070:	f640 70ff 	movw	r0, #4095	; 0xfff
 8001074:	f7ff ffe0 	bl	8001038 <FLASH_WaitForLastOperation_>
 8001078:	2805      	cmp	r0, #5
 800107a:	d115      	bne.n	80010a8 <FLASH_ErasePage+0x3c>
 800107c:	4c0b      	ldr	r4, [pc, #44]	; (80010ac <FLASH_ErasePage+0x40>)
 800107e:	f640 70ff 	movw	r0, #4095	; 0xfff
 8001082:	6923      	ldr	r3, [r4, #16]
 8001084:	f043 0302 	orr.w	r3, r3, #2
 8001088:	6123      	str	r3, [r4, #16]
 800108a:	6165      	str	r5, [r4, #20]
 800108c:	6923      	ldr	r3, [r4, #16]
 800108e:	f043 0340 	orr.w	r3, r3, #64	; 0x40
 8001092:	6123      	str	r3, [r4, #16]
 8001094:	f7ff ffd0 	bl	8001038 <FLASH_WaitForLastOperation_>
 8001098:	2806      	cmp	r0, #6
 800109a:	bf1e      	ittt	ne
 800109c:	6923      	ldrne	r3, [r4, #16]
 800109e:	f023 0302 	bicne.w	r3, r3, #2
 80010a2:	6123      	strne	r3, [r4, #16]
 80010a4:	2334      	movs	r3, #52	; 0x34
 80010a6:	60e3      	str	r3, [r4, #12]
 80010a8:	bd38      	pop	{r3, r4, r5, pc}
 80010aa:	bf00      	nop
 80010ac:	40022000 	.word	0x40022000

080010b0 <FLASH_ProgramHalfWord>:
 80010b0:	4b10      	ldr	r3, [pc, #64]	; (80010f4 <FLASH_ProgramHalfWord+0x44>)
 80010b2:	f100 4278 	add.w	r2, r0, #4160749568	; 0xf8000000
 80010b6:	429a      	cmp	r2, r3
 80010b8:	b570      	push	{r4, r5, r6, lr}
 80010ba:	4605      	mov	r5, r0
 80010bc:	460e      	mov	r6, r1
 80010be:	d816      	bhi.n	80010ee <FLASH_ProgramHalfWord+0x3e>
 80010c0:	201f      	movs	r0, #31
 80010c2:	f7ff ffb9 	bl	8001038 <FLASH_WaitForLastOperation_>
 80010c6:	2805      	cmp	r0, #5
 80010c8:	d110      	bne.n	80010ec <FLASH_ProgramHalfWord+0x3c>
 80010ca:	4c0b      	ldr	r4, [pc, #44]	; (80010f8 <FLASH_ProgramHalfWord+0x48>)
 80010cc:	201f      	movs	r0, #31
 80010ce:	6923      	ldr	r3, [r4, #16]
 80010d0:	f043 0301 	orr.w	r3, r3, #1
 80010d4:	6123      	str	r3, [r4, #16]
 80010d6:	802e      	strh	r6, [r5, #0]
 80010d8:	f7ff ffae 	bl	8001038 <FLASH_WaitForLastOperation_>
 80010dc:	2806      	cmp	r0, #6
 80010de:	bf1e      	ittt	ne
 80010e0:	6923      	ldrne	r3, [r4, #16]
 80010e2:	f023 0301 	bicne.w	r3, r3, #1
 80010e6:	6123      	strne	r3, [r4, #16]
 80010e8:	2334      	movs	r3, #52	; 0x34
 80010ea:	60e3      	str	r3, [r4, #12]
 80010ec:	bd70      	pop	{r4, r5, r6, pc}
 80010ee:	2007      	movs	r0, #7
 80010f0:	e7fc      	b.n	80010ec <FLASH_ProgramHalfWord+0x3c>
 80010f2:	bf00      	nop
 80010f4:	0007fffe 	.word	0x0007fffe
 80010f8:	40022000 	.word	0x40022000

080010fc <EE_CheckPage>:
 80010fc:	b510      	push	{r4, lr}
 80010fe:	f64f 74ff 	movw	r4, #65535	; 0xffff
 8001102:	4b0a      	ldr	r3, [pc, #40]	; (800112c <EE_CheckPage+0x30>)
 8001104:	8802      	ldrh	r2, [r0, #0]
 8001106:	681b      	ldr	r3, [r3, #0]
 8001108:	b292      	uxth	r2, r2
 800110a:	42a2      	cmp	r2, r4
 800110c:	4403      	add	r3, r0
 800110e:	d003      	beq.n	8001118 <EE_CheckPage+0x1c>
 8001110:	8802      	ldrh	r2, [r0, #0]
 8001112:	b292      	uxth	r2, r2
 8001114:	428a      	cmp	r2, r1
 8001116:	d107      	bne.n	8001128 <EE_CheckPage+0x2c>
 8001118:	3004      	adds	r0, #4
 800111a:	4298      	cmp	r0, r3
 800111c:	d301      	bcc.n	8001122 <EE_CheckPage+0x26>
 800111e:	2000      	movs	r0, #0
 8001120:	bd10      	pop	{r4, pc}
 8001122:	6802      	ldr	r2, [r0, #0]
 8001124:	3201      	adds	r2, #1
 8001126:	e7f6      	b.n	8001116 <EE_CheckPage+0x1a>
 8001128:	2083      	movs	r0, #131	; 0x83
 800112a:	e7f9      	b.n	8001120 <EE_CheckPage+0x24>
 800112c:	20000328 	.word	0x20000328

08001130 <EE_ErasePage>:
 8001130:	f64f 71fd 	movw	r1, #65533	; 0xfffd
 8001134:	b538      	push	{r3, r4, r5, lr}
 8001136:	8803      	ldrh	r3, [r0, #0]
 8001138:	4604      	mov	r4, r0
 800113a:	b29b      	uxth	r3, r3
 800113c:	1e5a      	subs	r2, r3, #1
 800113e:	b292      	uxth	r2, r2
 8001140:	428a      	cmp	r2, r1
 8001142:	d803      	bhi.n	800114c <EE_ErasePage+0x1c>
 8001144:	f64e 62ee 	movw	r2, #61166	; 0xeeee
 8001148:	4293      	cmp	r3, r2
 800114a:	d10d      	bne.n	8001168 <EE_ErasePage+0x38>
 800114c:	8865      	ldrh	r5, [r4, #2]
 800114e:	3501      	adds	r5, #1
 8001150:	b2ad      	uxth	r5, r5
 8001152:	4620      	mov	r0, r4
 8001154:	f7ff ff8a 	bl	800106c <FLASH_ErasePage>
 8001158:	2805      	cmp	r0, #5
 800115a:	d107      	bne.n	800116c <EE_ErasePage+0x3c>
 800115c:	4629      	mov	r1, r5
 800115e:	1ca0      	adds	r0, r4, #2
 8001160:	e8bd 4038 	ldmia.w	sp!, {r3, r4, r5, lr}
 8001164:	f7ff bfa4 	b.w	80010b0 <FLASH_ProgramHalfWord>
 8001168:	2500      	movs	r5, #0
 800116a:	e7f2      	b.n	8001152 <EE_ErasePage+0x22>
 800116c:	bd38      	pop	{r3, r4, r5, pc}

0800116e <EE_CheckErasePage>:
 800116e:	b538      	push	{r3, r4, r5, lr}
 8001170:	4604      	mov	r4, r0
 8001172:	460d      	mov	r5, r1
 8001174:	f7ff ffc2 	bl	80010fc <EE_CheckPage>
 8001178:	b158      	cbz	r0, 8001192 <EE_CheckErasePage+0x24>
 800117a:	4620      	mov	r0, r4
 800117c:	f7ff ffd8 	bl	8001130 <EE_ErasePage>
 8001180:	b280      	uxth	r0, r0
 8001182:	2805      	cmp	r0, #5
 8001184:	d105      	bne.n	8001192 <EE_CheckErasePage+0x24>
 8001186:	4629      	mov	r1, r5
 8001188:	4620      	mov	r0, r4
 800118a:	e8bd 4038 	ldmia.w	sp!, {r3, r4, r5, lr}
 800118e:	f7ff bfb5 	b.w	80010fc <EE_CheckPage>
 8001192:	bd38      	pop	{r3, r4, r5, pc}

08001194 <EE_Format>:
 8001194:	b510      	push	{r4, lr}
 8001196:	4c0f      	ldr	r4, [pc, #60]	; (80011d4 <EE_Format+0x40>)
 8001198:	f7ff ff28 	bl	8000fec <FLASH_Unlock>
 800119c:	2100      	movs	r1, #0
 800119e:	6820      	ldr	r0, [r4, #0]
 80011a0:	f7ff ffe5 	bl	800116e <EE_CheckErasePage>
 80011a4:	4601      	mov	r1, r0
 80011a6:	b958      	cbnz	r0, 80011c0 <EE_Format+0x2c>
 80011a8:	f64f 72ff 	movw	r2, #65535	; 0xffff
 80011ac:	6820      	ldr	r0, [r4, #0]
 80011ae:	8803      	ldrh	r3, [r0, #0]
 80011b0:	b29b      	uxth	r3, r3
 80011b2:	4293      	cmp	r3, r2
 80011b4:	d106      	bne.n	80011c4 <EE_Format+0x30>
 80011b6:	f7ff ff7b 	bl	80010b0 <FLASH_ProgramHalfWord>
 80011ba:	2805      	cmp	r0, #5
 80011bc:	d002      	beq.n	80011c4 <EE_Format+0x30>
 80011be:	b281      	uxth	r1, r0
 80011c0:	4608      	mov	r0, r1
 80011c2:	bd10      	pop	{r4, pc}
 80011c4:	4b04      	ldr	r3, [pc, #16]	; (80011d8 <EE_Format+0x44>)
 80011c6:	f64f 71ff 	movw	r1, #65535	; 0xffff
 80011ca:	e8bd 4010 	ldmia.w	sp!, {r4, lr}
 80011ce:	6818      	ldr	r0, [r3, #0]
 80011d0:	f7ff bfcd 	b.w	800116e <EE_CheckErasePage>
 80011d4:	20000320 	.word	0x20000320
 80011d8:	2000032c 	.word	0x2000032c

080011dc <EE_FindValidPage>:
 80011dc:	4b0c      	ldr	r3, [pc, #48]	; (8001210 <EE_FindValidPage+0x34>)
 80011de:	4a0d      	ldr	r2, [pc, #52]	; (8001214 <EE_FindValidPage+0x38>)
 80011e0:	6818      	ldr	r0, [r3, #0]
 80011e2:	6811      	ldr	r1, [r2, #0]
 80011e4:	8803      	ldrh	r3, [r0, #0]
 80011e6:	880a      	ldrh	r2, [r1, #0]
 80011e8:	b29b      	uxth	r3, r3
 80011ea:	b292      	uxth	r2, r2
 80011ec:	b92b      	cbnz	r3, 80011fa <EE_FindValidPage+0x1e>
 80011ee:	f64f 73ff 	movw	r3, #65535	; 0xffff
 80011f2:	429a      	cmp	r2, r3
 80011f4:	bf18      	it	ne
 80011f6:	2000      	movne	r0, #0
 80011f8:	4770      	bx	lr
 80011fa:	b932      	cbnz	r2, 800120a <EE_FindValidPage+0x2e>
 80011fc:	f64f 70ff 	movw	r0, #65535	; 0xffff
 8001200:	4283      	cmp	r3, r0
 8001202:	bf0c      	ite	eq
 8001204:	4608      	moveq	r0, r1
 8001206:	2000      	movne	r0, #0
 8001208:	4770      	bx	lr
 800120a:	2000      	movs	r0, #0
 800120c:	4770      	bx	lr
 800120e:	bf00      	nop
 8001210:	20000320 	.word	0x20000320
 8001214:	2000032c 	.word	0x2000032c

08001218 <EE_GetVariablesCount>:
 8001218:	4b0e      	ldr	r3, [pc, #56]	; (8001254 <EE_GetVariablesCount+0x3c>)
 800121a:	b5f0      	push	{r4, r5, r6, r7, lr}
 800121c:	681c      	ldr	r4, [r3, #0]
 800121e:	f64f 77ff 	movw	r7, #65535	; 0xffff
 8001222:	4404      	add	r4, r0
 8001224:	1d83      	adds	r3, r0, #6
 8001226:	2000      	movs	r0, #0
 8001228:	42a3      	cmp	r3, r4
 800122a:	d300      	bcc.n	800122e <EE_GetVariablesCount+0x16>
 800122c:	bdf0      	pop	{r4, r5, r6, r7, pc}
 800122e:	f833 2b04 	ldrh.w	r2, [r3], #4
 8001232:	b292      	uxth	r2, r2
 8001234:	42ba      	cmp	r2, r7
 8001236:	d0f7      	beq.n	8001228 <EE_GetVariablesCount+0x10>
 8001238:	428a      	cmp	r2, r1
 800123a:	d0f5      	beq.n	8001228 <EE_GetVariablesCount+0x10>
 800123c:	461d      	mov	r5, r3
 800123e:	42a5      	cmp	r5, r4
 8001240:	d302      	bcc.n	8001248 <EE_GetVariablesCount+0x30>
 8001242:	3001      	adds	r0, #1
 8001244:	b280      	uxth	r0, r0
 8001246:	e7ef      	b.n	8001228 <EE_GetVariablesCount+0x10>
 8001248:	882e      	ldrh	r6, [r5, #0]
 800124a:	b2b6      	uxth	r6, r6
 800124c:	42b2      	cmp	r2, r6
 800124e:	d0eb      	beq.n	8001228 <EE_GetVariablesCount+0x10>
 8001250:	3504      	adds	r5, #4
 8001252:	e7f4      	b.n	800123e <EE_GetVariablesCount+0x26>
 8001254:	20000328 	.word	0x20000328

08001258 <EE_PageTransfer>:
 8001258:	e92d 4ff7 	stmdb	sp!, {r0, r1, r2, r4, r5, r6, r7, r8, r9, sl, fp, lr}
 800125c:	4606      	mov	r6, r0
 800125e:	468b      	mov	fp, r1
 8001260:	4617      	mov	r7, r2
 8001262:	4b27      	ldr	r3, [pc, #156]	; (8001300 <EE_PageTransfer+0xa8>)
 8001264:	1d04      	adds	r4, r0, #4
 8001266:	681d      	ldr	r5, [r3, #0]
 8001268:	eb05 0800 	add.w	r8, r5, r0
 800126c:	4544      	cmp	r4, r8
 800126e:	d304      	bcc.n	800127a <EE_PageTransfer+0x22>
 8001270:	2481      	movs	r4, #129	; 0x81
 8001272:	4620      	mov	r0, r4
 8001274:	b003      	add	sp, #12
 8001276:	e8bd 8ff0 	ldmia.w	sp!, {r4, r5, r6, r7, r8, r9, sl, fp, pc}
 800127a:	6823      	ldr	r3, [r4, #0]
 800127c:	3301      	adds	r3, #1
 800127e:	d037      	beq.n	80012f0 <EE_PageTransfer+0x98>
 8001280:	3404      	adds	r4, #4
 8001282:	e7f3      	b.n	800126c <EE_PageTransfer+0x14>
 8001284:	882b      	ldrh	r3, [r5, #0]
 8001286:	b29b      	uxth	r3, r3
 8001288:	454b      	cmp	r3, r9
 800128a:	d01f      	beq.n	80012cc <EE_PageTransfer+0x74>
 800128c:	42bb      	cmp	r3, r7
 800128e:	d01d      	beq.n	80012cc <EE_PageTransfer+0x74>
 8001290:	1db2      	adds	r2, r6, #6
 8001292:	4294      	cmp	r4, r2
 8001294:	d80d      	bhi.n	80012b2 <EE_PageTransfer+0x5a>
 8001296:	4544      	cmp	r4, r8
 8001298:	d2ea      	bcs.n	8001270 <EE_PageTransfer+0x18>
 800129a:	f835 1c02 	ldrh.w	r1, [r5, #-2]
 800129e:	4620      	mov	r0, r4
 80012a0:	b289      	uxth	r1, r1
 80012a2:	9301      	str	r3, [sp, #4]
 80012a4:	f7ff ff04 	bl	80010b0 <FLASH_ProgramHalfWord>
 80012a8:	2805      	cmp	r0, #5
 80012aa:	9b01      	ldr	r3, [sp, #4]
 80012ac:	d007      	beq.n	80012be <EE_PageTransfer+0x66>
 80012ae:	b284      	uxth	r4, r0
 80012b0:	e7df      	b.n	8001272 <EE_PageTransfer+0x1a>
 80012b2:	8811      	ldrh	r1, [r2, #0]
 80012b4:	b289      	uxth	r1, r1
 80012b6:	4299      	cmp	r1, r3
 80012b8:	d008      	beq.n	80012cc <EE_PageTransfer+0x74>
 80012ba:	3204      	adds	r2, #4
 80012bc:	e7e9      	b.n	8001292 <EE_PageTransfer+0x3a>
 80012be:	4619      	mov	r1, r3
 80012c0:	1ca0      	adds	r0, r4, #2
 80012c2:	f7ff fef5 	bl	80010b0 <FLASH_ProgramHalfWord>
 80012c6:	2805      	cmp	r0, #5
 80012c8:	d1f1      	bne.n	80012ae <EE_PageTransfer+0x56>
 80012ca:	3404      	adds	r4, #4
 80012cc:	3d04      	subs	r5, #4
 80012ce:	4555      	cmp	r5, sl
 80012d0:	d8d8      	bhi.n	8001284 <EE_PageTransfer+0x2c>
 80012d2:	f64f 71ff 	movw	r1, #65535	; 0xffff
 80012d6:	4658      	mov	r0, fp
 80012d8:	f7ff ff49 	bl	800116e <EE_CheckErasePage>
 80012dc:	4604      	mov	r4, r0
 80012de:	2800      	cmp	r0, #0
 80012e0:	d1c7      	bne.n	8001272 <EE_PageTransfer+0x1a>
 80012e2:	4601      	mov	r1, r0
 80012e4:	4630      	mov	r0, r6
 80012e6:	f7ff fee3 	bl	80010b0 <FLASH_ProgramHalfWord>
 80012ea:	2805      	cmp	r0, #5
 80012ec:	d0c1      	beq.n	8001272 <EE_PageTransfer+0x1a>
 80012ee:	e7de      	b.n	80012ae <EE_PageTransfer+0x56>
 80012f0:	3d02      	subs	r5, #2
 80012f2:	f64f 79ff 	movw	r9, #65535	; 0xffff
 80012f6:	f10b 0a04 	add.w	sl, fp, #4
 80012fa:	445d      	add	r5, fp
 80012fc:	e7e7      	b.n	80012ce <EE_PageTransfer+0x76>
 80012fe:	bf00      	nop
 8001300:	20000328 	.word	0x20000328

08001304 <EE_Init>:
 8001304:	f44f 6280 	mov.w	r2, #1024	; 0x400
 8001308:	b5f8      	push	{r3, r4, r5, r6, r7, lr}
 800130a:	4e32      	ldr	r6, [pc, #200]	; (80013d4 <EE_Init+0xd0>)
 800130c:	4b32      	ldr	r3, [pc, #200]	; (80013d8 <EE_Init+0xd4>)
 800130e:	4933      	ldr	r1, [pc, #204]	; (80013dc <EE_Init+0xd8>)
 8001310:	6033      	str	r3, [r6, #0]
 8001312:	f503 6380 	add.w	r3, r3, #1024	; 0x400
 8001316:	600b      	str	r3, [r1, #0]
 8001318:	4b31      	ldr	r3, [pc, #196]	; (80013e0 <EE_Init+0xdc>)
 800131a:	4c32      	ldr	r4, [pc, #200]	; (80013e4 <EE_Init+0xe0>)
 800131c:	601a      	str	r2, [r3, #0]
 800131e:	2384      	movs	r3, #132	; 0x84
 8001320:	8023      	strh	r3, [r4, #0]
 8001322:	f7ff fe63 	bl	8000fec <FLASH_Unlock>
 8001326:	23ab      	movs	r3, #171	; 0xab
 8001328:	f64e 62ee 	movw	r2, #61166	; 0xeeee
 800132c:	8023      	strh	r3, [r4, #0]
 800132e:	6833      	ldr	r3, [r6, #0]
 8001330:	6808      	ldr	r0, [r1, #0]
 8001332:	881d      	ldrh	r5, [r3, #0]
 8001334:	8801      	ldrh	r1, [r0, #0]
 8001336:	b2ad      	uxth	r5, r5
 8001338:	4295      	cmp	r5, r2
 800133a:	b289      	uxth	r1, r1
 800133c:	d01f      	beq.n	800137e <EE_Init+0x7a>
 800133e:	f64f 77ff 	movw	r7, #65535	; 0xffff
 8001342:	42bd      	cmp	r5, r7
 8001344:	d006      	beq.n	8001354 <EE_Init+0x50>
 8001346:	bbc5      	cbnz	r5, 80013ba <EE_Init+0xb6>
 8001348:	b389      	cbz	r1, 80013ae <EE_Init+0xaa>
 800134a:	4291      	cmp	r1, r2
 800134c:	d131      	bne.n	80013b2 <EE_Init+0xae>
 800134e:	463a      	mov	r2, r7
 8001350:	4619      	mov	r1, r3
 8001352:	e019      	b.n	8001388 <EE_Init+0x84>
 8001354:	b911      	cbnz	r1, 800135c <EE_Init+0x58>
 8001356:	4629      	mov	r1, r5
 8001358:	4618      	mov	r0, r3
 800135a:	e02b      	b.n	80013b4 <EE_Init+0xb0>
 800135c:	4291      	cmp	r1, r2
 800135e:	d109      	bne.n	8001374 <EE_Init+0x70>
 8001360:	2100      	movs	r1, #0
 8001362:	f7ff fea5 	bl	80010b0 <FLASH_ProgramHalfWord>
 8001366:	2805      	cmp	r0, #5
 8001368:	d001      	beq.n	800136e <EE_Init+0x6a>
 800136a:	8020      	strh	r0, [r4, #0]
 800136c:	e01f      	b.n	80013ae <EE_Init+0xaa>
 800136e:	4629      	mov	r1, r5
 8001370:	6830      	ldr	r0, [r6, #0]
 8001372:	e01f      	b.n	80013b4 <EE_Init+0xb0>
 8001374:	42a9      	cmp	r1, r5
 8001376:	d11a      	bne.n	80013ae <EE_Init+0xaa>
 8001378:	f7ff ff0c 	bl	8001194 <EE_Format>
 800137c:	e7f5      	b.n	800136a <EE_Init+0x66>
 800137e:	b931      	cbnz	r1, 800138e <EE_Init+0x8a>
 8001380:	4601      	mov	r1, r0
 8001382:	f64f 72ff 	movw	r2, #65535	; 0xffff
 8001386:	4618      	mov	r0, r3
 8001388:	f7ff ff66 	bl	8001258 <EE_PageTransfer>
 800138c:	e7ed      	b.n	800136a <EE_Init+0x66>
 800138e:	f64f 73ff 	movw	r3, #65535	; 0xffff
 8001392:	4299      	cmp	r1, r3
 8001394:	d10b      	bne.n	80013ae <EE_Init+0xaa>
 8001396:	f7ff feea 	bl	800116e <EE_CheckErasePage>
 800139a:	4605      	mov	r5, r0
 800139c:	8020      	strh	r0, [r4, #0]
 800139e:	b930      	cbnz	r0, 80013ae <EE_Init+0xaa>
 80013a0:	4601      	mov	r1, r0
 80013a2:	6830      	ldr	r0, [r6, #0]
 80013a4:	f7ff fe84 	bl	80010b0 <FLASH_ProgramHalfWord>
 80013a8:	2805      	cmp	r0, #5
 80013aa:	d1de      	bne.n	800136a <EE_Init+0x66>
 80013ac:	8025      	strh	r5, [r4, #0]
 80013ae:	8820      	ldrh	r0, [r4, #0]
 80013b0:	bdf8      	pop	{r3, r4, r5, r6, r7, pc}
 80013b2:	4639      	mov	r1, r7
 80013b4:	f7ff fedb 	bl	800116e <EE_CheckErasePage>
 80013b8:	e7d7      	b.n	800136a <EE_Init+0x66>
 80013ba:	b909      	cbnz	r1, 80013c0 <EE_Init+0xbc>
 80013bc:	4639      	mov	r1, r7
 80013be:	e7cb      	b.n	8001358 <EE_Init+0x54>
 80013c0:	4291      	cmp	r1, r2
 80013c2:	d1f4      	bne.n	80013ae <EE_Init+0xaa>
 80013c4:	2100      	movs	r1, #0
 80013c6:	f7ff fe73 	bl	80010b0 <FLASH_ProgramHalfWord>
 80013ca:	2805      	cmp	r0, #5
 80013cc:	d1cd      	bne.n	800136a <EE_Init+0x66>
 80013ce:	4639      	mov	r1, r7
 80013d0:	e7ce      	b.n	8001370 <EE_Init+0x6c>
 80013d2:	bf00      	nop
 80013d4:	20000320 	.word	0x20000320
 80013d8:	0800f800 	.word	0x0800f800
 80013dc:	2000032c 	.word	0x2000032c
 80013e0:	20000328 	.word	0x20000328
 80013e4:	20000324 	.word	0x20000324

080013e8 <EE_Read>:
 80013e8:	f64f 73ff 	movw	r3, #65535	; 0xffff
 80013ec:	b570      	push	{r4, r5, r6, lr}
 80013ee:	4e12      	ldr	r6, [pc, #72]	; (8001438 <EE_Read+0x50>)
 80013f0:	800b      	strh	r3, [r1, #0]
 80013f2:	8833      	ldrh	r3, [r6, #0]
 80013f4:	4605      	mov	r5, r0
 80013f6:	2b84      	cmp	r3, #132	; 0x84
 80013f8:	460c      	mov	r4, r1
 80013fa:	d104      	bne.n	8001406 <EE_Read+0x1e>
 80013fc:	f7ff ff82 	bl	8001304 <EE_Init>
 8001400:	b108      	cbz	r0, 8001406 <EE_Read+0x1e>
 8001402:	8830      	ldrh	r0, [r6, #0]
 8001404:	bd70      	pop	{r4, r5, r6, pc}
 8001406:	f7ff fee9 	bl	80011dc <EE_FindValidPage>
 800140a:	b198      	cbz	r0, 8001434 <EE_Read+0x4c>
 800140c:	4b0b      	ldr	r3, [pc, #44]	; (800143c <EE_Read+0x54>)
 800140e:	1d82      	adds	r2, r0, #6
 8001410:	681b      	ldr	r3, [r3, #0]
 8001412:	3b02      	subs	r3, #2
 8001414:	4403      	add	r3, r0
 8001416:	4293      	cmp	r3, r2
 8001418:	d201      	bcs.n	800141e <EE_Read+0x36>
 800141a:	2082      	movs	r0, #130	; 0x82
 800141c:	e7f2      	b.n	8001404 <EE_Read+0x1c>
 800141e:	8819      	ldrh	r1, [r3, #0]
 8001420:	b289      	uxth	r1, r1
 8001422:	42a9      	cmp	r1, r5
 8001424:	d104      	bne.n	8001430 <EE_Read+0x48>
 8001426:	f833 3c02 	ldrh.w	r3, [r3, #-2]
 800142a:	2000      	movs	r0, #0
 800142c:	8023      	strh	r3, [r4, #0]
 800142e:	e7e9      	b.n	8001404 <EE_Read+0x1c>
 8001430:	3b04      	subs	r3, #4
 8001432:	e7f0      	b.n	8001416 <EE_Read+0x2e>
 8001434:	20ab      	movs	r0, #171	; 0xab
 8001436:	e7e5      	b.n	8001404 <EE_Read+0x1c>
 8001438:	20000324 	.word	0x20000324
 800143c:	20000328 	.word	0x20000328

08001440 <EE_VerifyPageFullWriteVariable>:
 8001440:	e92d 43f8 	stmdb	sp!, {r3, r4, r5, r6, r7, r8, r9, lr}
 8001444:	4604      	mov	r4, r0
 8001446:	460f      	mov	r7, r1
 8001448:	f7ff fec8 	bl	80011dc <EE_FindValidPage>
 800144c:	4605      	mov	r5, r0
 800144e:	2800      	cmp	r0, #0
 8001450:	d064      	beq.n	800151c <EE_VerifyPageFullWriteVariable+0xdc>
 8001452:	4a34      	ldr	r2, [pc, #208]	; (8001524 <EE_VerifyPageFullWriteVariable+0xe4>)
 8001454:	4690      	mov	r8, r2
 8001456:	6813      	ldr	r3, [r2, #0]
 8001458:	eb00 0903 	add.w	r9, r0, r3
 800145c:	f1a9 0302 	sub.w	r3, r9, #2
 8001460:	42ab      	cmp	r3, r5
 8001462:	d910      	bls.n	8001486 <EE_VerifyPageFullWriteVariable+0x46>
 8001464:	881a      	ldrh	r2, [r3, #0]
 8001466:	b292      	uxth	r2, r2
 8001468:	42a2      	cmp	r2, r4
 800146a:	d141      	bne.n	80014f0 <EE_VerifyPageFullWriteVariable+0xb0>
 800146c:	1e98      	subs	r0, r3, #2
 800146e:	f833 3c02 	ldrh.w	r3, [r3, #-2]
 8001472:	b29b      	uxth	r3, r3
 8001474:	42bb      	cmp	r3, r7
 8001476:	d102      	bne.n	800147e <EE_VerifyPageFullWriteVariable+0x3e>
 8001478:	2000      	movs	r0, #0
 800147a:	e8bd 83f8 	ldmia.w	sp!, {r3, r4, r5, r6, r7, r8, r9, pc}
 800147e:	f64f 72ff 	movw	r2, #65535	; 0xffff
 8001482:	4293      	cmp	r3, r2
 8001484:	d02e      	beq.n	80014e4 <EE_VerifyPageFullWriteVariable+0xa4>
 8001486:	1d2e      	adds	r6, r5, #4
 8001488:	454e      	cmp	r6, r9
 800148a:	d333      	bcc.n	80014f4 <EE_VerifyPageFullWriteVariable+0xb4>
 800148c:	4621      	mov	r1, r4
 800148e:	4628      	mov	r0, r5
 8001490:	f7ff fec2 	bl	8001218 <EE_GetVariablesCount>
 8001494:	f8d8 3000 	ldr.w	r3, [r8]
 8001498:	3001      	adds	r0, #1
 800149a:	089b      	lsrs	r3, r3, #2
 800149c:	b280      	uxth	r0, r0
 800149e:	3b01      	subs	r3, #1
 80014a0:	4298      	cmp	r0, r3
 80014a2:	d23d      	bcs.n	8001520 <EE_VerifyPageFullWriteVariable+0xe0>
 80014a4:	4b20      	ldr	r3, [pc, #128]	; (8001528 <EE_VerifyPageFullWriteVariable+0xe8>)
 80014a6:	f64e 61ee 	movw	r1, #61166	; 0xeeee
 80014aa:	681e      	ldr	r6, [r3, #0]
 80014ac:	42ae      	cmp	r6, r5
 80014ae:	bf04      	itt	eq
 80014b0:	4b1e      	ldreq	r3, [pc, #120]	; (800152c <EE_VerifyPageFullWriteVariable+0xec>)
 80014b2:	681e      	ldreq	r6, [r3, #0]
 80014b4:	4630      	mov	r0, r6
 80014b6:	f7ff fdfb 	bl	80010b0 <FLASH_ProgramHalfWord>
 80014ba:	2805      	cmp	r0, #5
 80014bc:	d123      	bne.n	8001506 <EE_VerifyPageFullWriteVariable+0xc6>
 80014be:	4639      	mov	r1, r7
 80014c0:	1d30      	adds	r0, r6, #4
 80014c2:	f7ff fdf5 	bl	80010b0 <FLASH_ProgramHalfWord>
 80014c6:	2805      	cmp	r0, #5
 80014c8:	d11d      	bne.n	8001506 <EE_VerifyPageFullWriteVariable+0xc6>
 80014ca:	4621      	mov	r1, r4
 80014cc:	1db0      	adds	r0, r6, #6
 80014ce:	f7ff fdef 	bl	80010b0 <FLASH_ProgramHalfWord>
 80014d2:	2805      	cmp	r0, #5
 80014d4:	d117      	bne.n	8001506 <EE_VerifyPageFullWriteVariable+0xc6>
 80014d6:	4622      	mov	r2, r4
 80014d8:	4629      	mov	r1, r5
 80014da:	4630      	mov	r0, r6
 80014dc:	e8bd 43f8 	ldmia.w	sp!, {r3, r4, r5, r6, r7, r8, r9, lr}
 80014e0:	f7ff beba 	b.w	8001258 <EE_PageTransfer>
 80014e4:	4639      	mov	r1, r7
 80014e6:	f7ff fde3 	bl	80010b0 <FLASH_ProgramHalfWord>
 80014ea:	2805      	cmp	r0, #5
 80014ec:	d1cb      	bne.n	8001486 <EE_VerifyPageFullWriteVariable+0x46>
 80014ee:	e7c3      	b.n	8001478 <EE_VerifyPageFullWriteVariable+0x38>
 80014f0:	3b04      	subs	r3, #4
 80014f2:	e7b5      	b.n	8001460 <EE_VerifyPageFullWriteVariable+0x20>
 80014f4:	6833      	ldr	r3, [r6, #0]
 80014f6:	3301      	adds	r3, #1
 80014f8:	d10e      	bne.n	8001518 <EE_VerifyPageFullWriteVariable+0xd8>
 80014fa:	4639      	mov	r1, r7
 80014fc:	4630      	mov	r0, r6
 80014fe:	f7ff fdd7 	bl	80010b0 <FLASH_ProgramHalfWord>
 8001502:	2805      	cmp	r0, #5
 8001504:	d001      	beq.n	800150a <EE_VerifyPageFullWriteVariable+0xca>
 8001506:	b280      	uxth	r0, r0
 8001508:	e7b7      	b.n	800147a <EE_VerifyPageFullWriteVariable+0x3a>
 800150a:	4621      	mov	r1, r4
 800150c:	1cb0      	adds	r0, r6, #2
 800150e:	f7ff fdcf 	bl	80010b0 <FLASH_ProgramHalfWord>
 8001512:	2805      	cmp	r0, #5
 8001514:	d1f7      	bne.n	8001506 <EE_VerifyPageFullWriteVariable+0xc6>
 8001516:	e7af      	b.n	8001478 <EE_VerifyPageFullWriteVariable+0x38>
 8001518:	3604      	adds	r6, #4
 800151a:	e7b5      	b.n	8001488 <EE_VerifyPageFullWriteVariable+0x48>
 800151c:	20ab      	movs	r0, #171	; 0xab
 800151e:	e7ac      	b.n	800147a <EE_VerifyPageFullWriteVariable+0x3a>
 8001520:	2081      	movs	r0, #129	; 0x81
 8001522:	e7aa      	b.n	800147a <EE_VerifyPageFullWriteVariable+0x3a>
 8001524:	20000328 	.word	0x20000328
 8001528:	2000032c 	.word	0x2000032c
 800152c:	20000320 	.word	0x20000320

08001530 <EE_Write>:
 8001530:	b570      	push	{r4, r5, r6, lr}
 8001532:	4e0b      	ldr	r6, [pc, #44]	; (8001560 <EE_Write+0x30>)
 8001534:	4604      	mov	r4, r0
 8001536:	8833      	ldrh	r3, [r6, #0]
 8001538:	460d      	mov	r5, r1
 800153a:	2b84      	cmp	r3, #132	; 0x84
 800153c:	d104      	bne.n	8001548 <EE_Write+0x18>
 800153e:	f7ff fee1 	bl	8001304 <EE_Init>
 8001542:	b108      	cbz	r0, 8001548 <EE_Write+0x18>
 8001544:	8830      	ldrh	r0, [r6, #0]
 8001546:	bd70      	pop	{r4, r5, r6, pc}
 8001548:	f64f 73ff 	movw	r3, #65535	; 0xffff
 800154c:	429c      	cmp	r4, r3
 800154e:	d005      	beq.n	800155c <EE_Write+0x2c>
 8001550:	4629      	mov	r1, r5
 8001552:	4620      	mov	r0, r4
 8001554:	e8bd 4070 	ldmia.w	sp!, {r4, r5, r6, lr}
 8001558:	f7ff bf72 	b.w	8001440 <EE_VerifyPageFullWriteVariable>
 800155c:	2082      	movs	r0, #130	; 0x82
 800155e:	e7f2      	b.n	8001546 <EE_Write+0x16>
 8001560:	20000324 	.word	0x20000324

08001564 <bbb_Init>:
 8001564:	4770      	bx	lr
	...

08001568 <bbb_Update>:
 8001568:	e92d 4ff7 	stmdb	sp!, {r0, r1, r2, r4, r5, r6, r7, r8, r9, sl, fp, lr}
 800156c:	f000 fd8a 	bl	8002084 <HAL_GetTick>
 8001570:	4c3a      	ldr	r4, [pc, #232]	; (800165c <bbb_Update+0xf4>)
 8001572:	6823      	ldr	r3, [r4, #0]
 8001574:	3319      	adds	r3, #25
 8001576:	4298      	cmp	r0, r3
 8001578:	d209      	bcs.n	800158e <bbb_Update+0x26>
 800157a:	2000      	movs	r0, #0
 800157c:	4b38      	ldr	r3, [pc, #224]	; (8001660 <bbb_Update+0xf8>)
 800157e:	7718      	strb	r0, [r3, #28]
 8001580:	4b38      	ldr	r3, [pc, #224]	; (8001664 <bbb_Update+0xfc>)
 8001582:	7718      	strb	r0, [r3, #28]
 8001584:	4b38      	ldr	r3, [pc, #224]	; (8001668 <bbb_Update+0x100>)
 8001586:	7718      	strb	r0, [r3, #28]
 8001588:	b003      	add	sp, #12
 800158a:	e8bd 8ff0 	ldmia.w	sp!, {r4, r5, r6, r7, r8, r9, sl, fp, pc}
 800158e:	f000 fd79 	bl	8002084 <HAL_GetTick>
 8001592:	2503      	movs	r5, #3
 8001594:	f04f 09ff 	mov.w	r9, #255	; 0xff
 8001598:	f04f 0801 	mov.w	r8, #1
 800159c:	f04f 0afe 	mov.w	sl, #254	; 0xfe
 80015a0:	4f32      	ldr	r7, [pc, #200]	; (800166c <bbb_Update+0x104>)
 80015a2:	6020      	str	r0, [r4, #0]
 80015a4:	f857 4b04 	ldr.w	r4, [r7], #4
 80015a8:	b31c      	cbz	r4, 80015f2 <bbb_Update+0x8a>
 80015aa:	6823      	ldr	r3, [r4, #0]
 80015ac:	7f66      	ldrb	r6, [r4, #29]
 80015ae:	689a      	ldr	r2, [r3, #8]
 80015b0:	6863      	ldr	r3, [r4, #4]
 80015b2:	421a      	tst	r2, r3
 80015b4:	d03f      	beq.n	8001636 <bbb_Update+0xce>
 80015b6:	b38e      	cbz	r6, 800161c <bbb_Update+0xb4>
 80015b8:	f04f 0b00 	mov.w	fp, #0
 80015bc:	f884 b01d 	strb.w	fp, [r4, #29]
 80015c0:	f000 fd60 	bl	8002084 <HAL_GetTick>
 80015c4:	68e3      	ldr	r3, [r4, #12]
 80015c6:	4606      	mov	r6, r0
 80015c8:	9301      	str	r3, [sp, #4]
 80015ca:	f000 fd5b 	bl	8002084 <HAL_GetTick>
 80015ce:	60e0      	str	r0, [r4, #12]
 80015d0:	f000 fd58 	bl	8002084 <HAL_GetTick>
 80015d4:	69a2      	ldr	r2, [r4, #24]
 80015d6:	1a80      	subs	r0, r0, r2
 80015d8:	6120      	str	r0, [r4, #16]
 80015da:	f000 fd53 	bl	8002084 <HAL_GetTick>
 80015de:	6922      	ldr	r2, [r4, #16]
 80015e0:	9b01      	ldr	r3, [sp, #4]
 80015e2:	f5b2 7fc8 	cmp.w	r2, #400	; 0x190
 80015e6:	61a0      	str	r0, [r4, #24]
 80015e8:	d909      	bls.n	80015fe <bbb_Update+0x96>
 80015ea:	2305      	movs	r3, #5
 80015ec:	f8c4 b014 	str.w	fp, [r4, #20]
 80015f0:	7723      	strb	r3, [r4, #28]
 80015f2:	3d01      	subs	r5, #1
 80015f4:	f015 05ff 	ands.w	r5, r5, #255	; 0xff
 80015f8:	d1d4      	bne.n	80015a4 <bbb_Update+0x3c>
 80015fa:	2001      	movs	r0, #1
 80015fc:	e7c4      	b.n	8001588 <bbb_Update+0x20>
 80015fe:	1af6      	subs	r6, r6, r3
 8001600:	f5b6 7fc8 	cmp.w	r6, #400	; 0x190
 8001604:	d203      	bcs.n	800160e <bbb_Update+0xa6>
 8001606:	2304      	movs	r3, #4
 8001608:	f8c4 b014 	str.w	fp, [r4, #20]
 800160c:	e7f0      	b.n	80015f0 <bbb_Update+0x88>
 800160e:	f000 fd39 	bl	8002084 <HAL_GetTick>
 8001612:	f500 70c8 	add.w	r0, r0, #400	; 0x190
 8001616:	2302      	movs	r3, #2
 8001618:	6160      	str	r0, [r4, #20]
 800161a:	e7e9      	b.n	80015f0 <bbb_Update+0x88>
 800161c:	6963      	ldr	r3, [r4, #20]
 800161e:	b13b      	cbz	r3, 8001630 <bbb_Update+0xc8>
 8001620:	f000 fd30 	bl	8002084 <HAL_GetTick>
 8001624:	6963      	ldr	r3, [r4, #20]
 8001626:	4298      	cmp	r0, r3
 8001628:	d902      	bls.n	8001630 <bbb_Update+0xc8>
 800162a:	2303      	movs	r3, #3
 800162c:	6166      	str	r6, [r4, #20]
 800162e:	e7df      	b.n	80015f0 <bbb_Update+0x88>
 8001630:	f884 a01c 	strb.w	sl, [r4, #28]
 8001634:	e7dd      	b.n	80015f2 <bbb_Update+0x8a>
 8001636:	2e01      	cmp	r6, #1
 8001638:	d00c      	beq.n	8001654 <bbb_Update+0xec>
 800163a:	f884 801d 	strb.w	r8, [r4, #29]
 800163e:	f000 fd21 	bl	8002084 <HAL_GetTick>
 8001642:	69a3      	ldr	r3, [r4, #24]
 8001644:	1ac0      	subs	r0, r0, r3
 8001646:	6120      	str	r0, [r4, #16]
 8001648:	f000 fd1c 	bl	8002084 <HAL_GetTick>
 800164c:	f884 801c 	strb.w	r8, [r4, #28]
 8001650:	61a0      	str	r0, [r4, #24]
 8001652:	e7ce      	b.n	80015f2 <bbb_Update+0x8a>
 8001654:	f884 901c 	strb.w	r9, [r4, #28]
 8001658:	e7cb      	b.n	80015f2 <bbb_Update+0x8a>
 800165a:	bf00      	nop
 800165c:	200000fc 	.word	0x200000fc
 8001660:	20000040 	.word	0x20000040
 8001664:	20000020 	.word	0x20000020
 8001668:	20000000 	.word	0x20000000
 800166c:	08006758 	.word	0x08006758

08001670 <bbb_GetBtnStates>:
 8001670:	b510      	push	{r4, lr}
 8001672:	b140      	cbz	r0, 8001686 <bbb_GetBtnStates+0x16>
 8001674:	4b0f      	ldr	r3, [pc, #60]	; (80016b4 <bbb_GetBtnStates+0x44>)
 8001676:	681c      	ldr	r4, [r3, #0]
 8001678:	685b      	ldr	r3, [r3, #4]
 800167a:	68a4      	ldr	r4, [r4, #8]
 800167c:	421c      	tst	r4, r3
 800167e:	bf0c      	ite	eq
 8001680:	2301      	moveq	r3, #1
 8001682:	2300      	movne	r3, #0
 8001684:	7003      	strb	r3, [r0, #0]
 8001686:	b149      	cbz	r1, 800169c <bbb_GetBtnStates+0x2c>
 8001688:	4b0b      	ldr	r3, [pc, #44]	; (80016b8 <bbb_GetBtnStates+0x48>)
 800168a:	681b      	ldr	r3, [r3, #0]
 800168c:	6898      	ldr	r0, [r3, #8]
 800168e:	4b09      	ldr	r3, [pc, #36]	; (80016b4 <bbb_GetBtnStates+0x44>)
 8001690:	685b      	ldr	r3, [r3, #4]
 8001692:	4218      	tst	r0, r3
 8001694:	bf0c      	ite	eq
 8001696:	2301      	moveq	r3, #1
 8001698:	2300      	movne	r3, #0
 800169a:	700b      	strb	r3, [r1, #0]
 800169c:	b14a      	cbz	r2, 80016b2 <bbb_GetBtnStates+0x42>
 800169e:	4b07      	ldr	r3, [pc, #28]	; (80016bc <bbb_GetBtnStates+0x4c>)
 80016a0:	681b      	ldr	r3, [r3, #0]
 80016a2:	6899      	ldr	r1, [r3, #8]
 80016a4:	4b03      	ldr	r3, [pc, #12]	; (80016b4 <bbb_GetBtnStates+0x44>)
 80016a6:	685b      	ldr	r3, [r3, #4]
 80016a8:	4219      	tst	r1, r3
 80016aa:	bf0c      	ite	eq
 80016ac:	2301      	moveq	r3, #1
 80016ae:	2300      	movne	r3, #0
 80016b0:	7013      	strb	r3, [r2, #0]
 80016b2:	bd10      	pop	{r4, pc}
 80016b4:	20000040 	.word	0x20000040
 80016b8:	20000020 	.word	0x20000020
 80016bc:	20000000 	.word	0x20000000

080016c0 <bbb_GetPushBtnState>:
 80016c0:	4800      	ldr	r0, [pc, #0]	; (80016c4 <bbb_GetPushBtnState+0x4>)
 80016c2:	4770      	bx	lr
 80016c4:	20000040 	.word	0x20000040

080016c8 <bbb_GetPullBtnState>:
 80016c8:	4800      	ldr	r0, [pc, #0]	; (80016cc <bbb_GetPullBtnState+0x4>)
 80016ca:	4770      	bx	lr
 80016cc:	20000020 	.word	0x20000020

080016d0 <bbb_GetCfgBtnState>:
 80016d0:	4800      	ldr	r0, [pc, #0]	; (80016d4 <bbb_GetCfgBtnState+0x4>)
 80016d2:	4770      	bx	lr
 80016d4:	20000000 	.word	0x20000000

080016d8 <bbb_WaitSync>:
 80016d8:	b510      	push	{r4, lr}
 80016da:	4604      	mov	r4, r0
 80016dc:	f000 fcd2 	bl	8002084 <HAL_GetTick>
 80016e0:	4404      	add	r4, r0
 80016e2:	f000 fccf 	bl	8002084 <HAL_GetTick>
 80016e6:	42a0      	cmp	r0, r4
 80016e8:	d3fb      	bcc.n	80016e2 <bbb_WaitSync+0xa>
 80016ea:	bd10      	pop	{r4, pc}

080016ec <bbb_WaitSyncCond>:
 80016ec:	b538      	push	{r3, r4, r5, lr}
 80016ee:	4604      	mov	r4, r0
 80016f0:	460d      	mov	r5, r1
 80016f2:	f000 fcc7 	bl	8002084 <HAL_GetTick>
 80016f6:	4404      	add	r4, r0
 80016f8:	f000 fcc4 	bl	8002084 <HAL_GetTick>
 80016fc:	42a0      	cmp	r0, r4
 80016fe:	d204      	bcs.n	800170a <bbb_WaitSyncCond+0x1e>
 8001700:	2d00      	cmp	r5, #0
 8001702:	d0f9      	beq.n	80016f8 <bbb_WaitSyncCond+0xc>
 8001704:	47a8      	blx	r5
 8001706:	2800      	cmp	r0, #0
 8001708:	d0f6      	beq.n	80016f8 <bbb_WaitSyncCond+0xc>
 800170a:	bd38      	pop	{r3, r4, r5, pc}

0800170c <bbb_Beep>:
 800170c:	b537      	push	{r0, r1, r2, r4, r5, lr}
 800170e:	4604      	mov	r4, r0
 8001710:	460d      	mov	r5, r1
 8001712:	f000 fcb7 	bl	8002084 <HAL_GetTick>
 8001716:	2c04      	cmp	r4, #4
 8001718:	4405      	add	r5, r0
 800171a:	9501      	str	r5, [sp, #4]
 800171c:	d81b      	bhi.n	8001756 <bbb_Beep+0x4a>
 800171e:	b16c      	cbz	r4, 800173c <bbb_Beep+0x30>
 8001720:	f06f 03c7 	mvn.w	r3, #199	; 0xc7
 8001724:	4363      	muls	r3, r4
 8001726:	480e      	ldr	r0, [pc, #56]	; (8001760 <bbb_Beep+0x54>)
 8001728:	f503 6396 	add.w	r3, r3, #1200	; 0x4b0
 800172c:	6802      	ldr	r2, [r0, #0]
 800172e:	60c3      	str	r3, [r0, #12]
 8001730:	62d3      	str	r3, [r2, #44]	; 0x2c
 8001732:	105b      	asrs	r3, r3, #1
 8001734:	2108      	movs	r1, #8
 8001736:	63d3      	str	r3, [r2, #60]	; 0x3c
 8001738:	f003 fb8e 	bl	8004e58 <HAL_TIMEx_PWMN_Start>
 800173c:	f000 fca2 	bl	8002084 <HAL_GetTick>
 8001740:	9b01      	ldr	r3, [sp, #4]
 8001742:	4298      	cmp	r0, r3
 8001744:	d9fa      	bls.n	800173c <bbb_Beep+0x30>
 8001746:	b144      	cbz	r4, 800175a <bbb_Beep+0x4e>
 8001748:	2108      	movs	r1, #8
 800174a:	4805      	ldr	r0, [pc, #20]	; (8001760 <bbb_Beep+0x54>)
 800174c:	b003      	add	sp, #12
 800174e:	e8bd 4030 	ldmia.w	sp!, {r4, r5, lr}
 8001752:	f003 bb83 	b.w	8004e5c <HAL_TIMEx_PWMN_Stop>
 8001756:	2404      	movs	r4, #4
 8001758:	e7e2      	b.n	8001720 <bbb_Beep+0x14>
 800175a:	b003      	add	sp, #12
 800175c:	bd30      	pop	{r4, r5, pc}
 800175e:	bf00      	nop
 8001760:	20000500 	.word	0x20000500

08001764 <bbb_Melody4>:
 8001764:	b5f8      	push	{r3, r4, r5, r6, r7, lr}
 8001766:	460f      	mov	r7, r1
 8001768:	4616      	mov	r6, r2
 800176a:	461d      	mov	r5, r3
 800176c:	f89d 4018 	ldrb.w	r4, [sp, #24]
 8001770:	4621      	mov	r1, r4
 8001772:	f7ff ffcb 	bl	800170c <bbb_Beep>
 8001776:	4621      	mov	r1, r4
 8001778:	2000      	movs	r0, #0
 800177a:	f7ff ffc7 	bl	800170c <bbb_Beep>
 800177e:	4621      	mov	r1, r4
 8001780:	4638      	mov	r0, r7
 8001782:	f7ff ffc3 	bl	800170c <bbb_Beep>
 8001786:	4621      	mov	r1, r4
 8001788:	2000      	movs	r0, #0
 800178a:	f7ff ffbf 	bl	800170c <bbb_Beep>
 800178e:	4621      	mov	r1, r4
 8001790:	4630      	mov	r0, r6
 8001792:	f7ff ffbb 	bl	800170c <bbb_Beep>
 8001796:	4621      	mov	r1, r4
 8001798:	2000      	movs	r0, #0
 800179a:	f7ff ffb7 	bl	800170c <bbb_Beep>
 800179e:	4621      	mov	r1, r4
 80017a0:	4628      	mov	r0, r5
 80017a2:	f7ff ffb3 	bl	800170c <bbb_Beep>
 80017a6:	4621      	mov	r1, r4
 80017a8:	e8bd 40f8 	ldmia.w	sp!, {r3, r4, r5, r6, r7, lr}
 80017ac:	2000      	movs	r0, #0
 80017ae:	f7ff bfad 	b.w	800170c <bbb_Beep>

080017b2 <disp_DrawFrame>:
 80017b2:	e92d 4ff7 	stmdb	sp!, {r0, r1, r2, r4, r5, r6, r7, r8, r9, sl, fp, lr}
 80017b6:	4604      	mov	r4, r0
 80017b8:	460d      	mov	r5, r1
 80017ba:	4691      	mov	r9, r2
 80017bc:	460f      	mov	r7, r1
 80017be:	461e      	mov	r6, r3
 80017c0:	f89d 3030 	ldrb.w	r3, [sp, #48]	; 0x30
 80017c4:	fa1f fb80 	uxth.w	fp, r0
 80017c8:	9301      	str	r3, [sp, #4]
 80017ca:	42b7      	cmp	r7, r6
 80017cc:	d906      	bls.n	80017dc <disp_DrawFrame+0x2a>
 80017ce:	b2ad      	uxth	r5, r5
 80017d0:	b2b6      	uxth	r6, r6
 80017d2:	454c      	cmp	r4, r9
 80017d4:	d922      	bls.n	800181c <disp_DrawFrame+0x6a>
 80017d6:	b003      	add	sp, #12
 80017d8:	e8bd 8ff0 	ldmia.w	sp!, {r4, r5, r6, r7, r8, r9, sl, fp, pc}
 80017dc:	9b01      	ldr	r3, [sp, #4]
 80017de:	fa1f fa87 	uxth.w	sl, r7
 80017e2:	b9cb      	cbnz	r3, 8001818 <disp_DrawFrame+0x66>
 80017e4:	2201      	movs	r2, #1
 80017e6:	4651      	mov	r1, sl
 80017e8:	4658      	mov	r0, fp
 80017ea:	f000 faa1 	bl	8001d30 <SSD1306_DrawPixel>
 80017ee:	3701      	adds	r7, #1
 80017f0:	2201      	movs	r2, #1
 80017f2:	4651      	mov	r1, sl
 80017f4:	4648      	mov	r0, r9
 80017f6:	f000 fa9b 	bl	8001d30 <SSD1306_DrawPixel>
 80017fa:	b2ff      	uxtb	r7, r7
 80017fc:	e7e5      	b.n	80017ca <disp_DrawFrame+0x18>
 80017fe:	fa1f f088 	uxth.w	r0, r8
 8001802:	2200      	movs	r2, #0
 8001804:	4651      	mov	r1, sl
 8001806:	f000 fa93 	bl	8001d30 <SSD1306_DrawPixel>
 800180a:	f108 0801 	add.w	r8, r8, #1
 800180e:	fa5f f888 	uxtb.w	r8, r8
 8001812:	45c8      	cmp	r8, r9
 8001814:	d9f3      	bls.n	80017fe <disp_DrawFrame+0x4c>
 8001816:	e7e5      	b.n	80017e4 <disp_DrawFrame+0x32>
 8001818:	46a0      	mov	r8, r4
 800181a:	e7fa      	b.n	8001812 <disp_DrawFrame+0x60>
 800181c:	b2a7      	uxth	r7, r4
 800181e:	2201      	movs	r2, #1
 8001820:	4629      	mov	r1, r5
 8001822:	4638      	mov	r0, r7
 8001824:	f000 fa84 	bl	8001d30 <SSD1306_DrawPixel>
 8001828:	3401      	adds	r4, #1
 800182a:	2201      	movs	r2, #1
 800182c:	4631      	mov	r1, r6
 800182e:	4638      	mov	r0, r7
 8001830:	f000 fa7e 	bl	8001d30 <SSD1306_DrawPixel>
 8001834:	b2e4      	uxtb	r4, r4
 8001836:	e7cc      	b.n	80017d2 <disp_DrawFrame+0x20>

08001838 <disp_DrawInitScreen>:
 8001838:	b513      	push	{r0, r1, r4, lr}
 800183a:	2000      	movs	r0, #0
 800183c:	f000 fa6c 	bl	8001d18 <SSD1306_Fill>
 8001840:	2100      	movs	r1, #0
 8001842:	231f      	movs	r3, #31
 8001844:	227d      	movs	r2, #125	; 0x7d
 8001846:	4608      	mov	r0, r1
 8001848:	9100      	str	r1, [sp, #0]
 800184a:	f7ff ffb2 	bl	80017b2 <disp_DrawFrame>
 800184e:	2101      	movs	r1, #1
 8001850:	4c0f      	ldr	r4, [pc, #60]	; (8001890 <disp_DrawInitScreen+0x58>)
 8001852:	4608      	mov	r0, r1
 8001854:	f000 fa8c 	bl	8001d70 <SSD1306_GotoXY>
 8001858:	2201      	movs	r2, #1
 800185a:	4621      	mov	r1, r4
 800185c:	480d      	ldr	r0, [pc, #52]	; (8001894 <disp_DrawInitScreen+0x5c>)
 800185e:	f000 fad7 	bl	8001e10 <SSD1306_Puts>
 8001862:	210b      	movs	r1, #11
 8001864:	2001      	movs	r0, #1
 8001866:	f000 fa83 	bl	8001d70 <SSD1306_GotoXY>
 800186a:	2201      	movs	r2, #1
 800186c:	4621      	mov	r1, r4
 800186e:	480a      	ldr	r0, [pc, #40]	; (8001898 <disp_DrawInitScreen+0x60>)
 8001870:	f000 face 	bl	8001e10 <SSD1306_Puts>
 8001874:	2115      	movs	r1, #21
 8001876:	2001      	movs	r0, #1
 8001878:	f000 fa7a 	bl	8001d70 <SSD1306_GotoXY>
 800187c:	2201      	movs	r2, #1
 800187e:	4621      	mov	r1, r4
 8001880:	4806      	ldr	r0, [pc, #24]	; (800189c <disp_DrawInitScreen+0x64>)
 8001882:	f000 fac5 	bl	8001e10 <SSD1306_Puts>
 8001886:	b002      	add	sp, #8
 8001888:	e8bd 4010 	ldmia.w	sp!, {r4, lr}
 800188c:	f000 bae4 	b.w	8001e58 <SSD1306_UpdateScreen>
 8001890:	20000060 	.word	0x20000060
 8001894:	08006764 	.word	0x08006764
 8001898:	08006774 	.word	0x08006774
 800189c:	08006785 	.word	0x08006785

080018a0 <floatToString>:
 80018a0:	e92d 4ff0 	stmdb	sp!, {r4, r5, r6, r7, r8, r9, sl, fp, lr}
 80018a4:	460e      	mov	r6, r1
 80018a6:	b085      	sub	sp, #20
 80018a8:	4683      	mov	fp, r0
 80018aa:	2100      	movs	r1, #0
 80018ac:	4630      	mov	r0, r6
 80018ae:	461f      	mov	r7, r3
 80018b0:	9202      	str	r2, [sp, #8]
 80018b2:	f7ff fb4d 	bl	8000f50 <__aeabi_fcmplt>
 80018b6:	b1c8      	cbz	r0, 80018ec <floatToString+0x4c>
 80018b8:	f04f 403f 	mov.w	r0, #3204448256	; 0xbf000000
 80018bc:	2400      	movs	r4, #0
 80018be:	4d6e      	ldr	r5, [pc, #440]	; (8001a78 <floatToString+0x1d8>)
 80018c0:	9a02      	ldr	r2, [sp, #8]
 80018c2:	b2e3      	uxtb	r3, r4
 80018c4:	4293      	cmp	r3, r2
 80018c6:	d314      	bcc.n	80018f2 <floatToString+0x52>
 80018c8:	4631      	mov	r1, r6
 80018ca:	f7ff f89b 	bl	8000a04 <__addsf3>
 80018ce:	2100      	movs	r1, #0
 80018d0:	4605      	mov	r5, r0
 80018d2:	4630      	mov	r0, r6
 80018d4:	f7ff fb3c 	bl	8000f50 <__aeabi_fcmplt>
 80018d8:	b108      	cbz	r0, 80018de <floatToString+0x3e>
 80018da:	f105 4500 	add.w	r5, r5, #2147483648	; 0x80000000
 80018de:	f04f 0900 	mov.w	r9, #0
 80018e2:	f8df 819c 	ldr.w	r8, [pc, #412]	; 8001a80 <floatToString+0x1e0>
 80018e6:	f8df a190 	ldr.w	sl, [pc, #400]	; 8001a78 <floatToString+0x1d8>
 80018ea:	e00c      	b.n	8001906 <floatToString+0x66>
 80018ec:	f04f 507c 	mov.w	r0, #1056964608	; 0x3f000000
 80018f0:	e7e4      	b.n	80018bc <floatToString+0x1c>
 80018f2:	4629      	mov	r1, r5
 80018f4:	f7ff fa42 	bl	8000d7c <__aeabi_fdiv>
 80018f8:	3401      	adds	r4, #1
 80018fa:	e7e1      	b.n	80018c0 <floatToString+0x20>
 80018fc:	4640      	mov	r0, r8
 80018fe:	4651      	mov	r1, sl
 8001900:	f7ff f988 	bl	8000c14 <__aeabi_fmul>
 8001904:	4680      	mov	r8, r0
 8001906:	4640      	mov	r0, r8
 8001908:	f7fe fd84 	bl	8000414 <__aeabi_f2d>
 800190c:	2200      	movs	r2, #0
 800190e:	4b5b      	ldr	r3, [pc, #364]	; (8001a7c <floatToString+0x1dc>)
 8001910:	f7fe fdd8 	bl	80004c4 <__aeabi_dmul>
 8001914:	e9cd 0100 	strd	r0, r1, [sp]
 8001918:	4628      	mov	r0, r5
 800191a:	f7fe fd7b 	bl	8000414 <__aeabi_f2d>
 800191e:	4602      	mov	r2, r0
 8001920:	460b      	mov	r3, r1
 8001922:	e9dd 0100 	ldrd	r0, r1, [sp]
 8001926:	fa5f f489 	uxtb.w	r4, r9
 800192a:	f109 0901 	add.w	r9, r9, #1
 800192e:	f7ff f845 	bl	80009bc <__aeabi_dcmple>
 8001932:	2800      	cmp	r0, #0
 8001934:	d1e2      	bne.n	80018fc <floatToString+0x5c>
 8001936:	2c00      	cmp	r4, #0
 8001938:	d051      	beq.n	80019de <floatToString+0x13e>
 800193a:	f104 0901 	add.w	r9, r4, #1
 800193e:	fa5f f989 	uxtb.w	r9, r9
 8001942:	2100      	movs	r1, #0
 8001944:	4630      	mov	r0, r6
 8001946:	f7ff fb03 	bl	8000f50 <__aeabi_fcmplt>
 800194a:	b118      	cbz	r0, 8001954 <floatToString+0xb4>
 800194c:	f109 0901 	add.w	r9, r9, #1
 8001950:	fa5f f989 	uxtb.w	r9, r9
 8001954:	9b02      	ldr	r3, [sp, #8]
 8001956:	1c7a      	adds	r2, r7, #1
 8001958:	4499      	add	r9, r3
 800195a:	fa5f f389 	uxtb.w	r3, r9
 800195e:	f103 0901 	add.w	r9, r3, #1
 8001962:	b2d2      	uxtb	r2, r2
 8001964:	fa5f f989 	uxtb.w	r9, r9
 8001968:	4591      	cmp	r9, r2
 800196a:	4630      	mov	r0, r6
 800196c:	bf38      	it	cc
 800196e:	1aff      	subcc	r7, r7, r3
 8001970:	f04f 0100 	mov.w	r1, #0
 8001974:	bf36      	itet	cc
 8001976:	4691      	movcc	r9, r2
 8001978:	2700      	movcs	r7, #0
 800197a:	b2ff      	uxtbcc	r7, r7
 800197c:	f7ff fae8 	bl	8000f50 <__aeabi_fcmplt>
 8001980:	4606      	mov	r6, r0
 8001982:	b118      	cbz	r0, 800198c <floatToString+0xec>
 8001984:	232d      	movs	r3, #45	; 0x2d
 8001986:	2601      	movs	r6, #1
 8001988:	f88b 3000 	strb.w	r3, [fp]
 800198c:	b354      	cbz	r4, 80019e4 <floatToString+0x144>
 800198e:	4434      	add	r4, r6
 8001990:	b2e4      	uxtb	r4, r4
 8001992:	42a6      	cmp	r6, r4
 8001994:	eb0b 0306 	add.w	r3, fp, r6
 8001998:	d029      	beq.n	80019ee <floatToString+0x14e>
 800199a:	4641      	mov	r1, r8
 800199c:	4628      	mov	r0, r5
 800199e:	9300      	str	r3, [sp, #0]
 80019a0:	f7ff f9ec 	bl	8000d7c <__aeabi_fdiv>
 80019a4:	f7ff fafc 	bl	8000fa0 <__aeabi_f2iz>
 80019a8:	9b00      	ldr	r3, [sp, #0]
 80019aa:	fa5f fa80 	uxtb.w	sl, r0
 80019ae:	4619      	mov	r1, r3
 80019b0:	220a      	movs	r2, #10
 80019b2:	4650      	mov	r0, sl
 80019b4:	f004 f99e 	bl	8005cf4 <itoa>
 80019b8:	4650      	mov	r0, sl
 80019ba:	f7ff f8d3 	bl	8000b64 <__aeabi_ui2f>
 80019be:	4641      	mov	r1, r8
 80019c0:	f7ff f928 	bl	8000c14 <__aeabi_fmul>
 80019c4:	4601      	mov	r1, r0
 80019c6:	4628      	mov	r0, r5
 80019c8:	f7ff f81a 	bl	8000a00 <__aeabi_fsub>
 80019cc:	492a      	ldr	r1, [pc, #168]	; (8001a78 <floatToString+0x1d8>)
 80019ce:	4605      	mov	r5, r0
 80019d0:	4640      	mov	r0, r8
 80019d2:	f7ff f9d3 	bl	8000d7c <__aeabi_fdiv>
 80019d6:	3601      	adds	r6, #1
 80019d8:	4680      	mov	r8, r0
 80019da:	b2f6      	uxtb	r6, r6
 80019dc:	e7d9      	b.n	8001992 <floatToString+0xf2>
 80019de:	f04f 0902 	mov.w	r9, #2
 80019e2:	e7ae      	b.n	8001942 <floatToString+0xa2>
 80019e4:	2330      	movs	r3, #48	; 0x30
 80019e6:	1c74      	adds	r4, r6, #1
 80019e8:	b2e4      	uxtb	r4, r4
 80019ea:	f80b 3006 	strb.w	r3, [fp, r6]
 80019ee:	9b02      	ldr	r3, [sp, #8]
 80019f0:	b1ab      	cbz	r3, 8001a1e <floatToString+0x17e>
 80019f2:	232e      	movs	r3, #46	; 0x2e
 80019f4:	f104 0801 	add.w	r8, r4, #1
 80019f8:	fa5f f888 	uxtb.w	r8, r8
 80019fc:	4646      	mov	r6, r8
 80019fe:	f80b 3004 	strb.w	r3, [fp, r4]
 8001a02:	9b02      	ldr	r3, [sp, #8]
 8001a04:	3301      	adds	r3, #1
 8001a06:	441c      	add	r4, r3
 8001a08:	b2e3      	uxtb	r3, r4
 8001a0a:	4c1b      	ldr	r4, [pc, #108]	; (8001a78 <floatToString+0x1d8>)
 8001a0c:	9300      	str	r3, [sp, #0]
 8001a0e:	9b00      	ldr	r3, [sp, #0]
 8001a10:	eb0b 0a06 	add.w	sl, fp, r6
 8001a14:	429e      	cmp	r6, r3
 8001a16:	d115      	bne.n	8001a44 <floatToString+0x1a4>
 8001a18:	9b02      	ldr	r3, [sp, #8]
 8001a1a:	4443      	add	r3, r8
 8001a1c:	b2dc      	uxtb	r4, r3
 8001a1e:	b157      	cbz	r7, 8001a36 <floatToString+0x196>
 8001a20:	2300      	movs	r3, #0
 8001a22:	2120      	movs	r1, #32
 8001a24:	18e2      	adds	r2, r4, r3
 8001a26:	3301      	adds	r3, #1
 8001a28:	b2d2      	uxtb	r2, r2
 8001a2a:	429f      	cmp	r7, r3
 8001a2c:	f80b 1002 	strb.w	r1, [fp, r2]
 8001a30:	dcf8      	bgt.n	8001a24 <floatToString+0x184>
 8001a32:	443c      	add	r4, r7
 8001a34:	b2e4      	uxtb	r4, r4
 8001a36:	2300      	movs	r3, #0
 8001a38:	4648      	mov	r0, r9
 8001a3a:	f80b 3004 	strb.w	r3, [fp, r4]
 8001a3e:	b005      	add	sp, #20
 8001a40:	e8bd 8ff0 	ldmia.w	sp!, {r4, r5, r6, r7, r8, r9, sl, fp, pc}
 8001a44:	4621      	mov	r1, r4
 8001a46:	4628      	mov	r0, r5
 8001a48:	f7ff f8e4 	bl	8000c14 <__aeabi_fmul>
 8001a4c:	9003      	str	r0, [sp, #12]
 8001a4e:	f7ff faa7 	bl	8000fa0 <__aeabi_f2iz>
 8001a52:	b2c5      	uxtb	r5, r0
 8001a54:	220a      	movs	r2, #10
 8001a56:	4651      	mov	r1, sl
 8001a58:	4628      	mov	r0, r5
 8001a5a:	f004 f94b 	bl	8005cf4 <itoa>
 8001a5e:	4628      	mov	r0, r5
 8001a60:	f7ff f880 	bl	8000b64 <__aeabi_ui2f>
 8001a64:	9b03      	ldr	r3, [sp, #12]
 8001a66:	4601      	mov	r1, r0
 8001a68:	4618      	mov	r0, r3
 8001a6a:	f7fe ffc9 	bl	8000a00 <__aeabi_fsub>
 8001a6e:	3601      	adds	r6, #1
 8001a70:	4605      	mov	r5, r0
 8001a72:	b2f6      	uxtb	r6, r6
 8001a74:	e7cb      	b.n	8001a0e <floatToString+0x16e>
 8001a76:	bf00      	nop
 8001a78:	41200000 	.word	0x41200000
 8001a7c:	40240000 	.word	0x40240000
 8001a80:	3dcccccd 	.word	0x3dcccccd

08001a84 <disp_DrawScreen>:
 8001a84:	e92d 41f0 	stmdb	sp!, {r4, r5, r6, r7, r8, lr}
 8001a88:	460f      	mov	r7, r1
 8001a8a:	4616      	mov	r6, r2
 8001a8c:	4604      	mov	r4, r0
 8001a8e:	2000      	movs	r0, #0
 8001a90:	461d      	mov	r5, r3
 8001a92:	f8dd 801c 	ldr.w	r8, [sp, #28]
 8001a96:	f000 f93f 	bl	8001d18 <SSD1306_Fill>
 8001a9a:	4930      	ldr	r1, [pc, #192]	; (8001b5c <disp_DrawScreen+0xd8>)
 8001a9c:	4830      	ldr	r0, [pc, #192]	; (8001b60 <disp_DrawScreen+0xdc>)
 8001a9e:	f004 f9b8 	bl	8005e12 <strcpy>
 8001aa2:	4639      	mov	r1, r7
 8001aa4:	482e      	ldr	r0, [pc, #184]	; (8001b60 <disp_DrawScreen+0xdc>)
 8001aa6:	f004 f9a5 	bl	8005df4 <strcat>
 8001aaa:	2100      	movs	r1, #0
 8001aac:	2001      	movs	r0, #1
 8001aae:	f000 f95f 	bl	8001d70 <SSD1306_GotoXY>
 8001ab2:	2201      	movs	r2, #1
 8001ab4:	492b      	ldr	r1, [pc, #172]	; (8001b64 <disp_DrawScreen+0xe0>)
 8001ab6:	482a      	ldr	r0, [pc, #168]	; (8001b60 <disp_DrawScreen+0xdc>)
 8001ab8:	f000 f9aa 	bl	8001e10 <SSD1306_Puts>
 8001abc:	492a      	ldr	r1, [pc, #168]	; (8001b68 <disp_DrawScreen+0xe4>)
 8001abe:	4828      	ldr	r0, [pc, #160]	; (8001b60 <disp_DrawScreen+0xdc>)
 8001ac0:	f004 f9a7 	bl	8005e12 <strcpy>
 8001ac4:	4631      	mov	r1, r6
 8001ac6:	4826      	ldr	r0, [pc, #152]	; (8001b60 <disp_DrawScreen+0xdc>)
 8001ac8:	f004 f994 	bl	8005df4 <strcat>
 8001acc:	210a      	movs	r1, #10
 8001ace:	2001      	movs	r0, #1
 8001ad0:	f000 f94e 	bl	8001d70 <SSD1306_GotoXY>
 8001ad4:	2201      	movs	r2, #1
 8001ad6:	4923      	ldr	r1, [pc, #140]	; (8001b64 <disp_DrawScreen+0xe0>)
 8001ad8:	4821      	ldr	r0, [pc, #132]	; (8001b60 <disp_DrawScreen+0xdc>)
 8001ada:	f000 f999 	bl	8001e10 <SSD1306_Puts>
 8001ade:	b1dc      	cbz	r4, 8001b18 <disp_DrawScreen+0x94>
 8001ae0:	4922      	ldr	r1, [pc, #136]	; (8001b6c <disp_DrawScreen+0xe8>)
 8001ae2:	481f      	ldr	r0, [pc, #124]	; (8001b60 <disp_DrawScreen+0xdc>)
 8001ae4:	f004 f995 	bl	8005e12 <strcpy>
 8001ae8:	2115      	movs	r1, #21
 8001aea:	2001      	movs	r0, #1
 8001aec:	f000 f940 	bl	8001d70 <SSD1306_GotoXY>
 8001af0:	2201      	movs	r2, #1
 8001af2:	491c      	ldr	r1, [pc, #112]	; (8001b64 <disp_DrawScreen+0xe0>)
 8001af4:	481a      	ldr	r0, [pc, #104]	; (8001b60 <disp_DrawScreen+0xdc>)
 8001af6:	f000 f98b 	bl	8001e10 <SSD1306_Puts>
 8001afa:	2c01      	cmp	r4, #1
 8001afc:	d129      	bne.n	8001b52 <disp_DrawScreen+0xce>
 8001afe:	2100      	movs	r1, #0
 8001b00:	2000      	movs	r0, #0
 8001b02:	f000 f935 	bl	8001d70 <SSD1306_GotoXY>
 8001b06:	2201      	movs	r2, #1
 8001b08:	206f      	movs	r0, #111	; 0x6f
 8001b0a:	4916      	ldr	r1, [pc, #88]	; (8001b64 <disp_DrawScreen+0xe0>)
 8001b0c:	f000 f936 	bl	8001d7c <SSD1306_Putc>
 8001b10:	e8bd 41f0 	ldmia.w	sp!, {r4, r5, r6, r7, r8, lr}
 8001b14:	f000 b9a0 	b.w	8001e58 <SSD1306_UpdateScreen>
 8001b18:	4915      	ldr	r1, [pc, #84]	; (8001b70 <disp_DrawScreen+0xec>)
 8001b1a:	4811      	ldr	r0, [pc, #68]	; (8001b60 <disp_DrawScreen+0xdc>)
 8001b1c:	f004 f979 	bl	8005e12 <strcpy>
 8001b20:	2303      	movs	r3, #3
 8001b22:	2201      	movs	r2, #1
 8001b24:	4629      	mov	r1, r5
 8001b26:	4813      	ldr	r0, [pc, #76]	; (8001b74 <disp_DrawScreen+0xf0>)
 8001b28:	f7ff feba 	bl	80018a0 <floatToString>
 8001b2c:	4911      	ldr	r1, [pc, #68]	; (8001b74 <disp_DrawScreen+0xf0>)
 8001b2e:	480c      	ldr	r0, [pc, #48]	; (8001b60 <disp_DrawScreen+0xdc>)
 8001b30:	f004 f960 	bl	8005df4 <strcat>
 8001b34:	4910      	ldr	r1, [pc, #64]	; (8001b78 <disp_DrawScreen+0xf4>)
 8001b36:	480a      	ldr	r0, [pc, #40]	; (8001b60 <disp_DrawScreen+0xdc>)
 8001b38:	f004 f95c 	bl	8005df4 <strcat>
 8001b3c:	4641      	mov	r1, r8
 8001b3e:	2303      	movs	r3, #3
 8001b40:	2201      	movs	r2, #1
 8001b42:	480c      	ldr	r0, [pc, #48]	; (8001b74 <disp_DrawScreen+0xf0>)
 8001b44:	f7ff feac 	bl	80018a0 <floatToString>
 8001b48:	490a      	ldr	r1, [pc, #40]	; (8001b74 <disp_DrawScreen+0xf0>)
 8001b4a:	4805      	ldr	r0, [pc, #20]	; (8001b60 <disp_DrawScreen+0xdc>)
 8001b4c:	f004 f952 	bl	8005df4 <strcat>
 8001b50:	e7ca      	b.n	8001ae8 <disp_DrawScreen+0x64>
 8001b52:	2c02      	cmp	r4, #2
 8001b54:	d1dc      	bne.n	8001b10 <disp_DrawScreen+0x8c>
 8001b56:	210a      	movs	r1, #10
 8001b58:	e7d2      	b.n	8001b00 <disp_DrawScreen+0x7c>
 8001b5a:	bf00      	nop
 8001b5c:	08006796 	.word	0x08006796
 8001b60:	2000034f 	.word	0x2000034f
 8001b64:	20000060 	.word	0x20000060
 8001b68:	080067a2 	.word	0x080067a2
 8001b6c:	080067ae 	.word	0x080067ae
 8001b70:	080067c1 	.word	0x080067c1
 8001b74:	20000330 	.word	0x20000330
 8001b78:	080067c7 	.word	0x080067c7

08001b7c <meas_Init>:
 8001b7c:	b508      	push	{r3, lr}
 8001b7e:	2300      	movs	r3, #0
 8001b80:	4a09      	ldr	r2, [pc, #36]	; (8001ba8 <meas_Init+0x2c>)
 8001b82:	6013      	str	r3, [r2, #0]
 8001b84:	4a09      	ldr	r2, [pc, #36]	; (8001bac <meas_Init+0x30>)
 8001b86:	6013      	str	r3, [r2, #0]
 8001b88:	4a09      	ldr	r2, [pc, #36]	; (8001bb0 <meas_Init+0x34>)
 8001b8a:	6013      	str	r3, [r2, #0]
 8001b8c:	4a09      	ldr	r2, [pc, #36]	; (8001bb4 <meas_Init+0x38>)
 8001b8e:	6013      	str	r3, [r2, #0]
 8001b90:	4809      	ldr	r0, [pc, #36]	; (8001bb8 <meas_Init+0x3c>)
 8001b92:	f000 fd2d 	bl	80025f0 <HAL_ADCEx_Calibration_Start>
 8001b96:	2800      	cmp	r0, #0
 8001b98:	d1fa      	bne.n	8001b90 <meas_Init+0x14>
 8001b9a:	e8bd 4008 	ldmia.w	sp!, {r3, lr}
 8001b9e:	2203      	movs	r2, #3
 8001ba0:	4906      	ldr	r1, [pc, #24]	; (8001bbc <meas_Init+0x40>)
 8001ba2:	4805      	ldr	r0, [pc, #20]	; (8001bb8 <meas_Init+0x3c>)
 8001ba4:	f000 bbf2 	b.w	800238c <HAL_ADC_Start_DMA>
 8001ba8:	2000036c 	.word	0x2000036c
 8001bac:	20000378 	.word	0x20000378
 8001bb0:	20000368 	.word	0x20000368
 8001bb4:	20000364 	.word	0x20000364
 8001bb8:	20000384 	.word	0x20000384
 8001bbc:	20000370 	.word	0x20000370

08001bc0 <HAL_ADC_ConvCpltCallback>:
 8001bc0:	b5f8      	push	{r3, r4, r5, r6, r7, lr}
 8001bc2:	4d1b      	ldr	r5, [pc, #108]	; (8001c30 <HAL_ADC_ConvCpltCallback+0x70>)
 8001bc4:	782b      	ldrb	r3, [r5, #0]
 8001bc6:	2b0a      	cmp	r3, #10
 8001bc8:	d831      	bhi.n	8001c2e <HAL_ADC_ConvCpltCallback+0x6e>
 8001bca:	4c1a      	ldr	r4, [pc, #104]	; (8001c34 <HAL_ADC_ConvCpltCallback+0x74>)
 8001bcc:	4e1a      	ldr	r6, [pc, #104]	; (8001c38 <HAL_ADC_ConvCpltCallback+0x78>)
 8001bce:	8820      	ldrh	r0, [r4, #0]
 8001bd0:	6837      	ldr	r7, [r6, #0]
 8001bd2:	b280      	uxth	r0, r0
 8001bd4:	f7fe ffca 	bl	8000b6c <__aeabi_i2f>
 8001bd8:	4918      	ldr	r1, [pc, #96]	; (8001c3c <HAL_ADC_ConvCpltCallback+0x7c>)
 8001bda:	f7ff f81b 	bl	8000c14 <__aeabi_fmul>
 8001bde:	4918      	ldr	r1, [pc, #96]	; (8001c40 <HAL_ADC_ConvCpltCallback+0x80>)
 8001be0:	f7ff f818 	bl	8000c14 <__aeabi_fmul>
 8001be4:	4639      	mov	r1, r7
 8001be6:	f7fe ff0d 	bl	8000a04 <__addsf3>
 8001bea:	6030      	str	r0, [r6, #0]
 8001bec:	88a0      	ldrh	r0, [r4, #4]
 8001bee:	4e15      	ldr	r6, [pc, #84]	; (8001c44 <HAL_ADC_ConvCpltCallback+0x84>)
 8001bf0:	b280      	uxth	r0, r0
 8001bf2:	f7fe ffbb 	bl	8000b6c <__aeabi_i2f>
 8001bf6:	4911      	ldr	r1, [pc, #68]	; (8001c3c <HAL_ADC_ConvCpltCallback+0x7c>)
 8001bf8:	f7ff f80c 	bl	8000c14 <__aeabi_fmul>
 8001bfc:	4b12      	ldr	r3, [pc, #72]	; (8001c48 <HAL_ADC_ConvCpltCallback+0x88>)
 8001bfe:	6018      	str	r0, [r3, #0]
 8001c00:	6819      	ldr	r1, [r3, #0]
 8001c02:	4812      	ldr	r0, [pc, #72]	; (8001c4c <HAL_ADC_ConvCpltCallback+0x8c>)
 8001c04:	f7fe fefc 	bl	8000a00 <__aeabi_fsub>
 8001c08:	6837      	ldr	r7, [r6, #0]
 8001c0a:	4911      	ldr	r1, [pc, #68]	; (8001c50 <HAL_ADC_ConvCpltCallback+0x90>)
 8001c0c:	f7ff f8b6 	bl	8000d7c <__aeabi_fdiv>
 8001c10:	4910      	ldr	r1, [pc, #64]	; (8001c54 <HAL_ADC_ConvCpltCallback+0x94>)
 8001c12:	f7fe fef7 	bl	8000a04 <__addsf3>
 8001c16:	4639      	mov	r1, r7
 8001c18:	f7fe fef4 	bl	8000a04 <__addsf3>
 8001c1c:	2300      	movs	r3, #0
 8001c1e:	6030      	str	r0, [r6, #0]
 8001c20:	80a3      	strh	r3, [r4, #4]
 8001c22:	8063      	strh	r3, [r4, #2]
 8001c24:	8023      	strh	r3, [r4, #0]
 8001c26:	782b      	ldrb	r3, [r5, #0]
 8001c28:	3301      	adds	r3, #1
 8001c2a:	b2db      	uxtb	r3, r3
 8001c2c:	702b      	strb	r3, [r5, #0]
 8001c2e:	bdf8      	pop	{r3, r4, r5, r6, r7, pc}
 8001c30:	20000108 	.word	0x20000108
 8001c34:	20000370 	.word	0x20000370
 8001c38:	20000104 	.word	0x20000104
 8001c3c:	3a533333 	.word	0x3a533333
 8001c40:	4121b6db 	.word	0x4121b6db
 8001c44:	20000100 	.word	0x20000100
 8001c48:	20000364 	.word	0x20000364
 8001c4c:	3fb70a3d 	.word	0x3fb70a3d
 8001c50:	3b8ce704 	.word	0x3b8ce704
 8001c54:	41c80000 	.word	0x41c80000

08001c58 <HAL_ADC_ErrorCallback>:
 8001c58:	4801      	ldr	r0, [pc, #4]	; (8001c60 <HAL_ADC_ErrorCallback+0x8>)
 8001c5a:	f004 b8c3 	b.w	8005de4 <puts>
 8001c5e:	bf00      	nop
 8001c60:	08006f3a 	.word	0x08006f3a

08001c64 <mo_SetSpeed>:
 8001c64:	b538      	push	{r3, r4, r5, lr}
 8001c66:	4604      	mov	r4, r0
 8001c68:	4b28      	ldr	r3, [pc, #160]	; (8001d0c <mo_SetSpeed+0xa8>)
 8001c6a:	4d29      	ldr	r5, [pc, #164]	; (8001d10 <mo_SetSpeed+0xac>)
 8001c6c:	8018      	strh	r0, [r3, #0]
 8001c6e:	4628      	mov	r0, r5
 8001c70:	f002 fdfc 	bl	800486c <HAL_TIM_Base_Stop>
 8001c74:	2100      	movs	r1, #0
 8001c76:	4628      	mov	r0, r5
 8001c78:	f003 f85c 	bl	8004d34 <HAL_TIM_PWM_Stop>
 8001c7c:	2104      	movs	r1, #4
 8001c7e:	4628      	mov	r0, r5
 8001c80:	f003 f858 	bl	8004d34 <HAL_TIM_PWM_Stop>
 8001c84:	2200      	movs	r2, #0
 8001c86:	2180      	movs	r1, #128	; 0x80
 8001c88:	4822      	ldr	r0, [pc, #136]	; (8001d14 <mo_SetSpeed+0xb0>)
 8001c8a:	f000 ffad 	bl	8002be8 <HAL_GPIO_WritePin>
 8001c8e:	2200      	movs	r2, #0
 8001c90:	2140      	movs	r1, #64	; 0x40
 8001c92:	4820      	ldr	r0, [pc, #128]	; (8001d14 <mo_SetSpeed+0xb0>)
 8001c94:	f000 ffa8 	bl	8002be8 <HAL_GPIO_WritePin>
 8001c98:	2c00      	cmp	r4, #0
 8001c9a:	dd1c      	ble.n	8001cd6 <mo_SetSpeed+0x72>
 8001c9c:	2c50      	cmp	r4, #80	; 0x50
 8001c9e:	bfb8      	it	lt
 8001ca0:	2450      	movlt	r4, #80	; 0x50
 8001ca2:	2200      	movs	r2, #0
 8001ca4:	2180      	movs	r1, #128	; 0x80
 8001ca6:	481b      	ldr	r0, [pc, #108]	; (8001d14 <mo_SetSpeed+0xb0>)
 8001ca8:	f000 ff9e 	bl	8002be8 <HAL_GPIO_WritePin>
 8001cac:	2140      	movs	r1, #64	; 0x40
 8001cae:	2201      	movs	r2, #1
 8001cb0:	4818      	ldr	r0, [pc, #96]	; (8001d14 <mo_SetSpeed+0xb0>)
 8001cb2:	f000 ff99 	bl	8002be8 <HAL_GPIO_WritePin>
 8001cb6:	f5b4 7f48 	cmp.w	r4, #800	; 0x320
 8001cba:	bfa8      	it	ge
 8001cbc:	f44f 7448 	movge.w	r4, #800	; 0x320
 8001cc0:	2100      	movs	r1, #0
 8001cc2:	682b      	ldr	r3, [r5, #0]
 8001cc4:	635c      	str	r4, [r3, #52]	; 0x34
 8001cc6:	4628      	mov	r0, r5
 8001cc8:	f002 fff6 	bl	8004cb8 <HAL_TIM_PWM_Start>
 8001ccc:	4628      	mov	r0, r5
 8001cce:	e8bd 4038 	ldmia.w	sp!, {r3, r4, r5, lr}
 8001cd2:	f002 bda5 	b.w	8004820 <HAL_TIM_Base_Start>
 8001cd6:	d017      	beq.n	8001d08 <mo_SetSpeed+0xa4>
 8001cd8:	4264      	negs	r4, r4
 8001cda:	b224      	sxth	r4, r4
 8001cdc:	2c50      	cmp	r4, #80	; 0x50
 8001cde:	bfb8      	it	lt
 8001ce0:	2450      	movlt	r4, #80	; 0x50
 8001ce2:	2201      	movs	r2, #1
 8001ce4:	2180      	movs	r1, #128	; 0x80
 8001ce6:	480b      	ldr	r0, [pc, #44]	; (8001d14 <mo_SetSpeed+0xb0>)
 8001ce8:	f000 ff7e 	bl	8002be8 <HAL_GPIO_WritePin>
 8001cec:	2140      	movs	r1, #64	; 0x40
 8001cee:	2200      	movs	r2, #0
 8001cf0:	4808      	ldr	r0, [pc, #32]	; (8001d14 <mo_SetSpeed+0xb0>)
 8001cf2:	f000 ff79 	bl	8002be8 <HAL_GPIO_WritePin>
 8001cf6:	f5b4 7f48 	cmp.w	r4, #800	; 0x320
 8001cfa:	bfa8      	it	ge
 8001cfc:	f44f 7448 	movge.w	r4, #800	; 0x320
 8001d00:	682b      	ldr	r3, [r5, #0]
 8001d02:	2104      	movs	r1, #4
 8001d04:	639c      	str	r4, [r3, #56]	; 0x38
 8001d06:	e7de      	b.n	8001cc6 <mo_SetSpeed+0x62>
 8001d08:	bd38      	pop	{r3, r4, r5, pc}
 8001d0a:	bf00      	nop
 8001d0c:	2000037c 	.word	0x2000037c
 8001d10:	200004b8 	.word	0x200004b8
 8001d14:	40010800 	.word	0x40010800

08001d18 <SSD1306_Fill>:
 8001d18:	2800      	cmp	r0, #0
 8001d1a:	f44f 7200 	mov.w	r2, #512	; 0x200
 8001d1e:	bf14      	ite	ne
 8001d20:	21ff      	movne	r1, #255	; 0xff
 8001d22:	2100      	moveq	r1, #0
 8001d24:	4801      	ldr	r0, [pc, #4]	; (8001d2c <SSD1306_Fill+0x14>)
 8001d26:	f003 bfe7 	b.w	8005cf8 <memset>
 8001d2a:	bf00      	nop
 8001d2c:	20000110 	.word	0x20000110

08001d30 <SSD1306_DrawPixel>:
 8001d30:	287f      	cmp	r0, #127	; 0x7f
 8001d32:	b530      	push	{r4, r5, lr}
 8001d34:	d817      	bhi.n	8001d66 <SSD1306_DrawPixel+0x36>
 8001d36:	291f      	cmp	r1, #31
 8001d38:	d815      	bhi.n	8001d66 <SSD1306_DrawPixel+0x36>
 8001d3a:	4b0b      	ldr	r3, [pc, #44]	; (8001d68 <SSD1306_DrawPixel+0x38>)
 8001d3c:	791b      	ldrb	r3, [r3, #4]
 8001d3e:	b113      	cbz	r3, 8001d46 <SSD1306_DrawPixel+0x16>
 8001d40:	fab2 f282 	clz	r2, r2
 8001d44:	0952      	lsrs	r2, r2, #5
 8001d46:	2401      	movs	r4, #1
 8001d48:	08cb      	lsrs	r3, r1, #3
 8001d4a:	4d08      	ldr	r5, [pc, #32]	; (8001d6c <SSD1306_DrawPixel+0x3c>)
 8001d4c:	eb00 10c3 	add.w	r0, r0, r3, lsl #7
 8001d50:	f001 0107 	and.w	r1, r1, #7
 8001d54:	562b      	ldrsb	r3, [r5, r0]
 8001d56:	fa04 f101 	lsl.w	r1, r4, r1
 8001d5a:	b249      	sxtb	r1, r1
 8001d5c:	42a2      	cmp	r2, r4
 8001d5e:	bf0c      	ite	eq
 8001d60:	430b      	orreq	r3, r1
 8001d62:	438b      	bicne	r3, r1
 8001d64:	542b      	strb	r3, [r5, r0]
 8001d66:	bd30      	pop	{r4, r5, pc}
 8001d68:	2000010a 	.word	0x2000010a
 8001d6c:	20000110 	.word	0x20000110

08001d70 <SSD1306_GotoXY>:
 8001d70:	4b01      	ldr	r3, [pc, #4]	; (8001d78 <SSD1306_GotoXY+0x8>)
 8001d72:	8018      	strh	r0, [r3, #0]
 8001d74:	8059      	strh	r1, [r3, #2]
 8001d76:	4770      	bx	lr
 8001d78:	2000010a 	.word	0x2000010a

08001d7c <SSD1306_Putc>:
 8001d7c:	e92d 4ff7 	stmdb	sp!, {r0, r1, r2, r4, r5, r6, r7, r8, r9, sl, fp, lr}
 8001d80:	4e22      	ldr	r6, [pc, #136]	; (8001e0c <SSD1306_Putc+0x90>)
 8001d82:	780b      	ldrb	r3, [r1, #0]
 8001d84:	8837      	ldrh	r7, [r6, #0]
 8001d86:	4605      	mov	r5, r0
 8001d88:	443b      	add	r3, r7
 8001d8a:	2b7f      	cmp	r3, #127	; 0x7f
 8001d8c:	460c      	mov	r4, r1
 8001d8e:	4691      	mov	r9, r2
 8001d90:	dc3a      	bgt.n	8001e08 <SSD1306_Putc+0x8c>
 8001d92:	f8b6 b002 	ldrh.w	fp, [r6, #2]
 8001d96:	784b      	ldrb	r3, [r1, #1]
 8001d98:	445b      	add	r3, fp
 8001d9a:	2b1f      	cmp	r3, #31
 8001d9c:	dc34      	bgt.n	8001e08 <SSD1306_Putc+0x8c>
 8001d9e:	f04f 0a00 	mov.w	sl, #0
 8001da2:	f1a0 0320 	sub.w	r3, r0, #32
 8001da6:	9301      	str	r3, [sp, #4]
 8001da8:	7862      	ldrb	r2, [r4, #1]
 8001daa:	4592      	cmp	sl, r2
 8001dac:	d306      	bcc.n	8001dbc <SSD1306_Putc+0x40>
 8001dae:	7823      	ldrb	r3, [r4, #0]
 8001db0:	441f      	add	r7, r3
 8001db2:	8037      	strh	r7, [r6, #0]
 8001db4:	4628      	mov	r0, r5
 8001db6:	b003      	add	sp, #12
 8001db8:	e8bd 8ff0 	ldmia.w	sp!, {r4, r5, r6, r7, r8, r9, sl, fp, pc}
 8001dbc:	f04f 0800 	mov.w	r8, #0
 8001dc0:	9b01      	ldr	r3, [sp, #4]
 8001dc2:	6860      	ldr	r0, [r4, #4]
 8001dc4:	fb02 a203 	mla	r2, r2, r3, sl
 8001dc8:	f830 3012 	ldrh.w	r3, [r0, r2, lsl #1]
 8001dcc:	9300      	str	r3, [sp, #0]
 8001dce:	7822      	ldrb	r2, [r4, #0]
 8001dd0:	4590      	cmp	r8, r2
 8001dd2:	d306      	bcc.n	8001de2 <SSD1306_Putc+0x66>
 8001dd4:	f10b 0101 	add.w	r1, fp, #1
 8001dd8:	f10a 0a01 	add.w	sl, sl, #1
 8001ddc:	fa1f fb81 	uxth.w	fp, r1
 8001de0:	e7e2      	b.n	8001da8 <SSD1306_Putc+0x2c>
 8001de2:	9b00      	ldr	r3, [sp, #0]
 8001de4:	eb07 0008 	add.w	r0, r7, r8
 8001de8:	fa03 f208 	lsl.w	r2, r3, r8
 8001dec:	0413      	lsls	r3, r2, #16
 8001dee:	bf54      	ite	pl
 8001df0:	fab9 f289 	clzpl	r2, r9
 8001df4:	464a      	movmi	r2, r9
 8001df6:	4659      	mov	r1, fp
 8001df8:	b280      	uxth	r0, r0
 8001dfa:	bf58      	it	pl
 8001dfc:	0952      	lsrpl	r2, r2, #5
 8001dfe:	f7ff ff97 	bl	8001d30 <SSD1306_DrawPixel>
 8001e02:	f108 0801 	add.w	r8, r8, #1
 8001e06:	e7e2      	b.n	8001dce <SSD1306_Putc+0x52>
 8001e08:	2500      	movs	r5, #0
 8001e0a:	e7d3      	b.n	8001db4 <SSD1306_Putc+0x38>
 8001e0c:	2000010a 	.word	0x2000010a

08001e10 <SSD1306_Puts>:
 8001e10:	b570      	push	{r4, r5, r6, lr}
 8001e12:	460d      	mov	r5, r1
 8001e14:	4616      	mov	r6, r2
 8001e16:	1e44      	subs	r4, r0, #1
 8001e18:	f814 0f01 	ldrb.w	r0, [r4, #1]!
 8001e1c:	b138      	cbz	r0, 8001e2e <SSD1306_Puts+0x1e>
 8001e1e:	4632      	mov	r2, r6
 8001e20:	4629      	mov	r1, r5
 8001e22:	f7ff ffab 	bl	8001d7c <SSD1306_Putc>
 8001e26:	4603      	mov	r3, r0
 8001e28:	7820      	ldrb	r0, [r4, #0]
 8001e2a:	4283      	cmp	r3, r0
 8001e2c:	d0f4      	beq.n	8001e18 <SSD1306_Puts+0x8>
 8001e2e:	bd70      	pop	{r4, r5, r6, pc}

08001e30 <ssd1306_I2C_Write>:
 8001e30:	b57f      	push	{r0, r1, r2, r3, r4, r5, r6, lr}
 8001e32:	2301      	movs	r3, #1
 8001e34:	f88d 2017 	strb.w	r2, [sp, #23]
 8001e38:	220a      	movs	r2, #10
 8001e3a:	e9cd 3201 	strd	r3, r2, [sp, #4]
 8001e3e:	f10d 0217 	add.w	r2, sp, #23
 8001e42:	9200      	str	r2, [sp, #0]
 8001e44:	460a      	mov	r2, r1
 8001e46:	4601      	mov	r1, r0
 8001e48:	4802      	ldr	r0, [pc, #8]	; (8001e54 <ssd1306_I2C_Write+0x24>)
 8001e4a:	f001 f8ad 	bl	8002fa8 <HAL_I2C_Mem_Write>
 8001e4e:	b007      	add	sp, #28
 8001e50:	f85d fb04 	ldr.w	pc, [sp], #4
 8001e54:	2000043c 	.word	0x2000043c

08001e58 <SSD1306_UpdateScreen>:
 8001e58:	b507      	push	{r0, r1, r2, lr}
 8001e5a:	2222      	movs	r2, #34	; 0x22
 8001e5c:	2100      	movs	r1, #0
 8001e5e:	2078      	movs	r0, #120	; 0x78
 8001e60:	f7ff ffe6 	bl	8001e30 <ssd1306_I2C_Write>
 8001e64:	2200      	movs	r2, #0
 8001e66:	2078      	movs	r0, #120	; 0x78
 8001e68:	4611      	mov	r1, r2
 8001e6a:	f7ff ffe1 	bl	8001e30 <ssd1306_I2C_Write>
 8001e6e:	2203      	movs	r2, #3
 8001e70:	2100      	movs	r1, #0
 8001e72:	2078      	movs	r0, #120	; 0x78
 8001e74:	f7ff ffdc 	bl	8001e30 <ssd1306_I2C_Write>
 8001e78:	2221      	movs	r2, #33	; 0x21
 8001e7a:	2100      	movs	r1, #0
 8001e7c:	2078      	movs	r0, #120	; 0x78
 8001e7e:	f7ff ffd7 	bl	8001e30 <ssd1306_I2C_Write>
 8001e82:	2200      	movs	r2, #0
 8001e84:	2078      	movs	r0, #120	; 0x78
 8001e86:	4611      	mov	r1, r2
 8001e88:	f7ff ffd2 	bl	8001e30 <ssd1306_I2C_Write>
 8001e8c:	227f      	movs	r2, #127	; 0x7f
 8001e8e:	2100      	movs	r1, #0
 8001e90:	2078      	movs	r0, #120	; 0x78
 8001e92:	f7ff ffcd 	bl	8001e30 <ssd1306_I2C_Write>
 8001e96:	4809      	ldr	r0, [pc, #36]	; (8001ebc <SSD1306_UpdateScreen+0x64>)
 8001e98:	f002 f8c6 	bl	8004028 <HAL_I2C_GetState>
 8001e9c:	2820      	cmp	r0, #32
 8001e9e:	d1fa      	bne.n	8001e96 <SSD1306_UpdateScreen+0x3e>
 8001ea0:	f44f 7300 	mov.w	r3, #512	; 0x200
 8001ea4:	9301      	str	r3, [sp, #4]
 8001ea6:	4b06      	ldr	r3, [pc, #24]	; (8001ec0 <SSD1306_UpdateScreen+0x68>)
 8001ea8:	2240      	movs	r2, #64	; 0x40
 8001eaa:	9300      	str	r3, [sp, #0]
 8001eac:	2178      	movs	r1, #120	; 0x78
 8001eae:	2301      	movs	r3, #1
 8001eb0:	4802      	ldr	r0, [pc, #8]	; (8001ebc <SSD1306_UpdateScreen+0x64>)
 8001eb2:	f001 f909 	bl	80030c8 <HAL_I2C_Mem_Write_DMA>
 8001eb6:	b003      	add	sp, #12
 8001eb8:	f85d fb04 	ldr.w	pc, [sp], #4
 8001ebc:	2000043c 	.word	0x2000043c
 8001ec0:	20000110 	.word	0x20000110

08001ec4 <SSD1306_Init>:
 8001ec4:	b510      	push	{r4, lr}
 8001ec6:	23c8      	movs	r3, #200	; 0xc8
 8001ec8:	2201      	movs	r2, #1
 8001eca:	2178      	movs	r1, #120	; 0x78
 8001ecc:	484a      	ldr	r0, [pc, #296]	; (8001ff8 <SSD1306_Init+0x134>)
 8001ece:	f001 f9bb 	bl	8003248 <HAL_I2C_IsDeviceReady>
 8001ed2:	4604      	mov	r4, r0
 8001ed4:	2800      	cmp	r0, #0
 8001ed6:	f040 808d 	bne.w	8001ff4 <SSD1306_Init+0x130>
 8001eda:	4601      	mov	r1, r0
 8001edc:	22ae      	movs	r2, #174	; 0xae
 8001ede:	2078      	movs	r0, #120	; 0x78
 8001ee0:	f7ff ffa6 	bl	8001e30 <ssd1306_I2C_Write>
 8001ee4:	2220      	movs	r2, #32
 8001ee6:	4621      	mov	r1, r4
 8001ee8:	2078      	movs	r0, #120	; 0x78
 8001eea:	f7ff ffa1 	bl	8001e30 <ssd1306_I2C_Write>
 8001eee:	4622      	mov	r2, r4
 8001ef0:	4621      	mov	r1, r4
 8001ef2:	2078      	movs	r0, #120	; 0x78
 8001ef4:	f7ff ff9c 	bl	8001e30 <ssd1306_I2C_Write>
 8001ef8:	22c8      	movs	r2, #200	; 0xc8
 8001efa:	4621      	mov	r1, r4
 8001efc:	2078      	movs	r0, #120	; 0x78
 8001efe:	f7ff ff97 	bl	8001e30 <ssd1306_I2C_Write>
 8001f02:	2240      	movs	r2, #64	; 0x40
 8001f04:	4621      	mov	r1, r4
 8001f06:	2078      	movs	r0, #120	; 0x78
 8001f08:	f7ff ff92 	bl	8001e30 <ssd1306_I2C_Write>
 8001f0c:	2281      	movs	r2, #129	; 0x81
 8001f0e:	4621      	mov	r1, r4
 8001f10:	2078      	movs	r0, #120	; 0x78
 8001f12:	f7ff ff8d 	bl	8001e30 <ssd1306_I2C_Write>
 8001f16:	22ff      	movs	r2, #255	; 0xff
 8001f18:	4621      	mov	r1, r4
 8001f1a:	2078      	movs	r0, #120	; 0x78
 8001f1c:	f7ff ff88 	bl	8001e30 <ssd1306_I2C_Write>
 8001f20:	22a1      	movs	r2, #161	; 0xa1
 8001f22:	4621      	mov	r1, r4
 8001f24:	2078      	movs	r0, #120	; 0x78
 8001f26:	f7ff ff83 	bl	8001e30 <ssd1306_I2C_Write>
 8001f2a:	22a6      	movs	r2, #166	; 0xa6
 8001f2c:	4621      	mov	r1, r4
 8001f2e:	2078      	movs	r0, #120	; 0x78
 8001f30:	f7ff ff7e 	bl	8001e30 <ssd1306_I2C_Write>
 8001f34:	22a8      	movs	r2, #168	; 0xa8
 8001f36:	4621      	mov	r1, r4
 8001f38:	2078      	movs	r0, #120	; 0x78
 8001f3a:	f7ff ff79 	bl	8001e30 <ssd1306_I2C_Write>
 8001f3e:	221f      	movs	r2, #31
 8001f40:	4621      	mov	r1, r4
 8001f42:	2078      	movs	r0, #120	; 0x78
 8001f44:	f7ff ff74 	bl	8001e30 <ssd1306_I2C_Write>
 8001f48:	22d3      	movs	r2, #211	; 0xd3
 8001f4a:	4621      	mov	r1, r4
 8001f4c:	2078      	movs	r0, #120	; 0x78
 8001f4e:	f7ff ff6f 	bl	8001e30 <ssd1306_I2C_Write>
 8001f52:	4622      	mov	r2, r4
 8001f54:	4621      	mov	r1, r4
 8001f56:	2078      	movs	r0, #120	; 0x78
 8001f58:	f7ff ff6a 	bl	8001e30 <ssd1306_I2C_Write>
 8001f5c:	22d5      	movs	r2, #213	; 0xd5
 8001f5e:	4621      	mov	r1, r4
 8001f60:	2078      	movs	r0, #120	; 0x78
 8001f62:	f7ff ff65 	bl	8001e30 <ssd1306_I2C_Write>
 8001f66:	2280      	movs	r2, #128	; 0x80
 8001f68:	4621      	mov	r1, r4
 8001f6a:	2078      	movs	r0, #120	; 0x78
 8001f6c:	f7ff ff60 	bl	8001e30 <ssd1306_I2C_Write>
 8001f70:	22d9      	movs	r2, #217	; 0xd9
 8001f72:	4621      	mov	r1, r4
 8001f74:	2078      	movs	r0, #120	; 0x78
 8001f76:	f7ff ff5b 	bl	8001e30 <ssd1306_I2C_Write>
 8001f7a:	2222      	movs	r2, #34	; 0x22
 8001f7c:	4621      	mov	r1, r4
 8001f7e:	2078      	movs	r0, #120	; 0x78
 8001f80:	f7ff ff56 	bl	8001e30 <ssd1306_I2C_Write>
 8001f84:	22da      	movs	r2, #218	; 0xda
 8001f86:	4621      	mov	r1, r4
 8001f88:	2078      	movs	r0, #120	; 0x78
 8001f8a:	f7ff ff51 	bl	8001e30 <ssd1306_I2C_Write>
 8001f8e:	2202      	movs	r2, #2
 8001f90:	4621      	mov	r1, r4
 8001f92:	2078      	movs	r0, #120	; 0x78
 8001f94:	f7ff ff4c 	bl	8001e30 <ssd1306_I2C_Write>
 8001f98:	22db      	movs	r2, #219	; 0xdb
 8001f9a:	4621      	mov	r1, r4
 8001f9c:	2078      	movs	r0, #120	; 0x78
 8001f9e:	f7ff ff47 	bl	8001e30 <ssd1306_I2C_Write>
 8001fa2:	2220      	movs	r2, #32
 8001fa4:	4621      	mov	r1, r4
 8001fa6:	2078      	movs	r0, #120	; 0x78
 8001fa8:	f7ff ff42 	bl	8001e30 <ssd1306_I2C_Write>
 8001fac:	228d      	movs	r2, #141	; 0x8d
 8001fae:	4621      	mov	r1, r4
 8001fb0:	2078      	movs	r0, #120	; 0x78
 8001fb2:	f7ff ff3d 	bl	8001e30 <ssd1306_I2C_Write>
 8001fb6:	2214      	movs	r2, #20
 8001fb8:	4621      	mov	r1, r4
 8001fba:	2078      	movs	r0, #120	; 0x78
 8001fbc:	f7ff ff38 	bl	8001e30 <ssd1306_I2C_Write>
 8001fc0:	22a4      	movs	r2, #164	; 0xa4
 8001fc2:	4621      	mov	r1, r4
 8001fc4:	2078      	movs	r0, #120	; 0x78
 8001fc6:	f7ff ff33 	bl	8001e30 <ssd1306_I2C_Write>
 8001fca:	22af      	movs	r2, #175	; 0xaf
 8001fcc:	4621      	mov	r1, r4
 8001fce:	2078      	movs	r0, #120	; 0x78
 8001fd0:	f7ff ff2e 	bl	8001e30 <ssd1306_I2C_Write>
 8001fd4:	222e      	movs	r2, #46	; 0x2e
 8001fd6:	4621      	mov	r1, r4
 8001fd8:	2078      	movs	r0, #120	; 0x78
 8001fda:	f7ff ff29 	bl	8001e30 <ssd1306_I2C_Write>
 8001fde:	4620      	mov	r0, r4
 8001fe0:	f7ff fe9a 	bl	8001d18 <SSD1306_Fill>
 8001fe4:	f7ff ff38 	bl	8001e58 <SSD1306_UpdateScreen>
 8001fe8:	2001      	movs	r0, #1
 8001fea:	4b04      	ldr	r3, [pc, #16]	; (8001ffc <SSD1306_Init+0x138>)
 8001fec:	801c      	strh	r4, [r3, #0]
 8001fee:	805c      	strh	r4, [r3, #2]
 8001ff0:	7158      	strb	r0, [r3, #5]
 8001ff2:	bd10      	pop	{r4, pc}
 8001ff4:	2000      	movs	r0, #0
 8001ff6:	e7fc      	b.n	8001ff2 <SSD1306_Init+0x12e>
 8001ff8:	2000043c 	.word	0x2000043c
 8001ffc:	2000010a 	.word	0x2000010a

08002000 <HAL_InitTick>:
 8002000:	b538      	push	{r3, r4, r5, lr}
 8002002:	4b0e      	ldr	r3, [pc, #56]	; (800203c <HAL_InitTick+0x3c>)
 8002004:	4605      	mov	r5, r0
 8002006:	7818      	ldrb	r0, [r3, #0]
 8002008:	f44f 737a 	mov.w	r3, #1000	; 0x3e8
 800200c:	fbb3 f3f0 	udiv	r3, r3, r0
 8002010:	4a0b      	ldr	r2, [pc, #44]	; (8002040 <HAL_InitTick+0x40>)
 8002012:	6810      	ldr	r0, [r2, #0]
 8002014:	fbb0 f0f3 	udiv	r0, r0, r3
 8002018:	f000 fbae 	bl	8002778 <HAL_SYSTICK_Config>
 800201c:	4604      	mov	r4, r0
 800201e:	b958      	cbnz	r0, 8002038 <HAL_InitTick+0x38>
 8002020:	2d0f      	cmp	r5, #15
 8002022:	d809      	bhi.n	8002038 <HAL_InitTick+0x38>
 8002024:	4602      	mov	r2, r0
 8002026:	4629      	mov	r1, r5
 8002028:	f04f 30ff 	mov.w	r0, #4294967295
 800202c:	f000 fb64 	bl	80026f8 <HAL_NVIC_SetPriority>
 8002030:	4620      	mov	r0, r4
 8002032:	4b04      	ldr	r3, [pc, #16]	; (8002044 <HAL_InitTick+0x44>)
 8002034:	601d      	str	r5, [r3, #0]
 8002036:	bd38      	pop	{r3, r4, r5, pc}
 8002038:	2001      	movs	r0, #1
 800203a:	e7fc      	b.n	8002036 <HAL_InitTick+0x36>
 800203c:	20000068 	.word	0x20000068
 8002040:	20000078 	.word	0x20000078
 8002044:	2000006c 	.word	0x2000006c

08002048 <HAL_Init>:
 8002048:	4a07      	ldr	r2, [pc, #28]	; (8002068 <HAL_Init+0x20>)
 800204a:	b508      	push	{r3, lr}
 800204c:	6813      	ldr	r3, [r2, #0]
 800204e:	2003      	movs	r0, #3
 8002050:	f043 0310 	orr.w	r3, r3, #16
 8002054:	6013      	str	r3, [r2, #0]
 8002056:	f000 fb3d 	bl	80026d4 <HAL_NVIC_SetPriorityGrouping>
 800205a:	2000      	movs	r0, #0
 800205c:	f7ff ffd0 	bl	8002000 <HAL_InitTick>
 8002060:	f003 fbf0 	bl	8005844 <HAL_MspInit>
 8002064:	2000      	movs	r0, #0
 8002066:	bd08      	pop	{r3, pc}
 8002068:	40022000 	.word	0x40022000

0800206c <HAL_IncTick>:
 800206c:	4a03      	ldr	r2, [pc, #12]	; (800207c <HAL_IncTick+0x10>)
 800206e:	4b04      	ldr	r3, [pc, #16]	; (8002080 <HAL_IncTick+0x14>)
 8002070:	6811      	ldr	r1, [r2, #0]
 8002072:	781b      	ldrb	r3, [r3, #0]
 8002074:	440b      	add	r3, r1
 8002076:	6013      	str	r3, [r2, #0]
 8002078:	4770      	bx	lr
 800207a:	bf00      	nop
 800207c:	20000380 	.word	0x20000380
 8002080:	20000068 	.word	0x20000068

08002084 <HAL_GetTick>:
 8002084:	4b01      	ldr	r3, [pc, #4]	; (800208c <HAL_GetTick+0x8>)
 8002086:	6818      	ldr	r0, [r3, #0]
 8002088:	4770      	bx	lr
 800208a:	bf00      	nop
 800208c:	20000380 	.word	0x20000380

08002090 <HAL_Delay>:
 8002090:	b538      	push	{r3, r4, r5, lr}
 8002092:	4604      	mov	r4, r0
 8002094:	f7ff fff6 	bl	8002084 <HAL_GetTick>
 8002098:	4605      	mov	r5, r0
 800209a:	1c63      	adds	r3, r4, #1
 800209c:	bf1e      	ittt	ne
 800209e:	4b04      	ldrne	r3, [pc, #16]	; (80020b0 <HAL_Delay+0x20>)
 80020a0:	781b      	ldrbne	r3, [r3, #0]
 80020a2:	18e4      	addne	r4, r4, r3
 80020a4:	f7ff ffee 	bl	8002084 <HAL_GetTick>
 80020a8:	1b43      	subs	r3, r0, r5
 80020aa:	42a3      	cmp	r3, r4
 80020ac:	d3fa      	bcc.n	80020a4 <HAL_Delay+0x14>
 80020ae:	bd38      	pop	{r3, r4, r5, pc}
 80020b0:	20000068 	.word	0x20000068

080020b4 <ADC_DMAConvCplt>:
 80020b4:	6a43      	ldr	r3, [r0, #36]	; 0x24
 80020b6:	b510      	push	{r4, lr}
 80020b8:	6a9a      	ldr	r2, [r3, #40]	; 0x28
 80020ba:	f012 0f50 	tst.w	r2, #80	; 0x50
 80020be:	d11b      	bne.n	80020f8 <ADC_DMAConvCplt+0x44>
 80020c0:	6a9a      	ldr	r2, [r3, #40]	; 0x28
 80020c2:	f442 7200 	orr.w	r2, r2, #512	; 0x200
 80020c6:	629a      	str	r2, [r3, #40]	; 0x28
 80020c8:	681a      	ldr	r2, [r3, #0]
 80020ca:	6892      	ldr	r2, [r2, #8]
 80020cc:	f402 2260 	and.w	r2, r2, #917504	; 0xe0000
 80020d0:	f5b2 2f60 	cmp.w	r2, #917504	; 0xe0000
 80020d4:	d10c      	bne.n	80020f0 <ADC_DMAConvCplt+0x3c>
 80020d6:	7b1a      	ldrb	r2, [r3, #12]
 80020d8:	b952      	cbnz	r2, 80020f0 <ADC_DMAConvCplt+0x3c>
 80020da:	6a9a      	ldr	r2, [r3, #40]	; 0x28
 80020dc:	f422 7280 	bic.w	r2, r2, #256	; 0x100
 80020e0:	629a      	str	r2, [r3, #40]	; 0x28
 80020e2:	6a9a      	ldr	r2, [r3, #40]	; 0x28
 80020e4:	04d2      	lsls	r2, r2, #19
 80020e6:	bf5e      	ittt	pl
 80020e8:	6a9a      	ldrpl	r2, [r3, #40]	; 0x28
 80020ea:	f042 0201 	orrpl.w	r2, r2, #1
 80020ee:	629a      	strpl	r2, [r3, #40]	; 0x28
 80020f0:	4618      	mov	r0, r3
 80020f2:	f7ff fd65 	bl	8001bc0 <HAL_ADC_ConvCpltCallback>
 80020f6:	bd10      	pop	{r4, pc}
 80020f8:	6a1b      	ldr	r3, [r3, #32]
 80020fa:	e8bd 4010 	ldmia.w	sp!, {r4, lr}
 80020fe:	6b1b      	ldr	r3, [r3, #48]	; 0x30
 8002100:	4718      	bx	r3

08002102 <HAL_ADC_ConvHalfCpltCallback>:
 8002102:	4770      	bx	lr

08002104 <ADC_DMAHalfConvCplt>:
 8002104:	b508      	push	{r3, lr}
 8002106:	6a40      	ldr	r0, [r0, #36]	; 0x24
 8002108:	f7ff fffb 	bl	8002102 <HAL_ADC_ConvHalfCpltCallback>
 800210c:	bd08      	pop	{r3, pc}

0800210e <HAL_ADC_LevelOutOfWindowCallback>:
 800210e:	4770      	bx	lr

08002110 <HAL_ADC_IRQHandler>:
 8002110:	6803      	ldr	r3, [r0, #0]
 8002112:	b510      	push	{r4, lr}
 8002114:	685a      	ldr	r2, [r3, #4]
 8002116:	4604      	mov	r4, r0
 8002118:	0690      	lsls	r0, r2, #26
 800211a:	d527      	bpl.n	800216c <HAL_ADC_IRQHandler+0x5c>
 800211c:	681a      	ldr	r2, [r3, #0]
 800211e:	0791      	lsls	r1, r2, #30
 8002120:	d524      	bpl.n	800216c <HAL_ADC_IRQHandler+0x5c>
 8002122:	6aa2      	ldr	r2, [r4, #40]	; 0x28
 8002124:	06d2      	lsls	r2, r2, #27
 8002126:	bf5e      	ittt	pl
 8002128:	6aa2      	ldrpl	r2, [r4, #40]	; 0x28
 800212a:	f442 7200 	orrpl.w	r2, r2, #512	; 0x200
 800212e:	62a2      	strpl	r2, [r4, #40]	; 0x28
 8002130:	689a      	ldr	r2, [r3, #8]
 8002132:	f402 2260 	and.w	r2, r2, #917504	; 0xe0000
 8002136:	f5b2 2f60 	cmp.w	r2, #917504	; 0xe0000
 800213a:	d110      	bne.n	800215e <HAL_ADC_IRQHandler+0x4e>
 800213c:	7b22      	ldrb	r2, [r4, #12]
 800213e:	b972      	cbnz	r2, 800215e <HAL_ADC_IRQHandler+0x4e>
 8002140:	685a      	ldr	r2, [r3, #4]
 8002142:	f022 0220 	bic.w	r2, r2, #32
 8002146:	605a      	str	r2, [r3, #4]
 8002148:	6aa3      	ldr	r3, [r4, #40]	; 0x28
 800214a:	f423 7380 	bic.w	r3, r3, #256	; 0x100
 800214e:	62a3      	str	r3, [r4, #40]	; 0x28
 8002150:	6aa3      	ldr	r3, [r4, #40]	; 0x28
 8002152:	04db      	lsls	r3, r3, #19
 8002154:	bf5e      	ittt	pl
 8002156:	6aa3      	ldrpl	r3, [r4, #40]	; 0x28
 8002158:	f043 0301 	orrpl.w	r3, r3, #1
 800215c:	62a3      	strpl	r3, [r4, #40]	; 0x28
 800215e:	4620      	mov	r0, r4
 8002160:	f7ff fd2e 	bl	8001bc0 <HAL_ADC_ConvCpltCallback>
 8002164:	f06f 0212 	mvn.w	r2, #18
 8002168:	6823      	ldr	r3, [r4, #0]
 800216a:	601a      	str	r2, [r3, #0]
 800216c:	6823      	ldr	r3, [r4, #0]
 800216e:	685a      	ldr	r2, [r3, #4]
 8002170:	0610      	lsls	r0, r2, #24
 8002172:	d530      	bpl.n	80021d6 <HAL_ADC_IRQHandler+0xc6>
 8002174:	681a      	ldr	r2, [r3, #0]
 8002176:	0751      	lsls	r1, r2, #29
 8002178:	d52d      	bpl.n	80021d6 <HAL_ADC_IRQHandler+0xc6>
 800217a:	6aa2      	ldr	r2, [r4, #40]	; 0x28
 800217c:	06d2      	lsls	r2, r2, #27
 800217e:	bf5e      	ittt	pl
 8002180:	6aa2      	ldrpl	r2, [r4, #40]	; 0x28
 8002182:	f442 5200 	orrpl.w	r2, r2, #8192	; 0x2000
 8002186:	62a2      	strpl	r2, [r4, #40]	; 0x28
 8002188:	689a      	ldr	r2, [r3, #8]
 800218a:	f402 42e0 	and.w	r2, r2, #28672	; 0x7000
 800218e:	f5b2 4fe0 	cmp.w	r2, #28672	; 0x7000
 8002192:	d00a      	beq.n	80021aa <HAL_ADC_IRQHandler+0x9a>
 8002194:	685a      	ldr	r2, [r3, #4]
 8002196:	0550      	lsls	r0, r2, #21
 8002198:	d416      	bmi.n	80021c8 <HAL_ADC_IRQHandler+0xb8>
 800219a:	689a      	ldr	r2, [r3, #8]
 800219c:	f402 2260 	and.w	r2, r2, #917504	; 0xe0000
 80021a0:	f5b2 2f60 	cmp.w	r2, #917504	; 0xe0000
 80021a4:	d110      	bne.n	80021c8 <HAL_ADC_IRQHandler+0xb8>
 80021a6:	7b22      	ldrb	r2, [r4, #12]
 80021a8:	b972      	cbnz	r2, 80021c8 <HAL_ADC_IRQHandler+0xb8>
 80021aa:	685a      	ldr	r2, [r3, #4]
 80021ac:	f022 0280 	bic.w	r2, r2, #128	; 0x80
 80021b0:	605a      	str	r2, [r3, #4]
 80021b2:	6aa3      	ldr	r3, [r4, #40]	; 0x28
 80021b4:	f423 5380 	bic.w	r3, r3, #4096	; 0x1000
 80021b8:	62a3      	str	r3, [r4, #40]	; 0x28
 80021ba:	6aa3      	ldr	r3, [r4, #40]	; 0x28
 80021bc:	05d9      	lsls	r1, r3, #23
 80021be:	bf5e      	ittt	pl
 80021c0:	6aa3      	ldrpl	r3, [r4, #40]	; 0x28
 80021c2:	f043 0301 	orrpl.w	r3, r3, #1
 80021c6:	62a3      	strpl	r3, [r4, #40]	; 0x28
 80021c8:	4620      	mov	r0, r4
 80021ca:	f000 fa81 	bl	80026d0 <HAL_ADCEx_InjectedConvCpltCallback>
 80021ce:	f06f 020c 	mvn.w	r2, #12
 80021d2:	6823      	ldr	r3, [r4, #0]
 80021d4:	601a      	str	r2, [r3, #0]
 80021d6:	6823      	ldr	r3, [r4, #0]
 80021d8:	685a      	ldr	r2, [r3, #4]
 80021da:	0652      	lsls	r2, r2, #25
 80021dc:	d50d      	bpl.n	80021fa <HAL_ADC_IRQHandler+0xea>
 80021de:	681b      	ldr	r3, [r3, #0]
 80021e0:	07db      	lsls	r3, r3, #31
 80021e2:	d50a      	bpl.n	80021fa <HAL_ADC_IRQHandler+0xea>
 80021e4:	6aa3      	ldr	r3, [r4, #40]	; 0x28
 80021e6:	4620      	mov	r0, r4
 80021e8:	f443 3380 	orr.w	r3, r3, #65536	; 0x10000
 80021ec:	62a3      	str	r3, [r4, #40]	; 0x28
 80021ee:	f7ff ff8e 	bl	800210e <HAL_ADC_LevelOutOfWindowCallback>
 80021f2:	f06f 0201 	mvn.w	r2, #1
 80021f6:	6823      	ldr	r3, [r4, #0]
 80021f8:	601a      	str	r2, [r3, #0]
 80021fa:	bd10      	pop	{r4, pc}

080021fc <ADC_DMAError>:
 80021fc:	6a40      	ldr	r0, [r0, #36]	; 0x24
 80021fe:	b508      	push	{r3, lr}
 8002200:	6a83      	ldr	r3, [r0, #40]	; 0x28
 8002202:	f043 0340 	orr.w	r3, r3, #64	; 0x40
 8002206:	6283      	str	r3, [r0, #40]	; 0x28
 8002208:	6ac3      	ldr	r3, [r0, #44]	; 0x2c
 800220a:	f043 0304 	orr.w	r3, r3, #4
 800220e:	62c3      	str	r3, [r0, #44]	; 0x2c
 8002210:	f7ff fd22 	bl	8001c58 <HAL_ADC_ErrorCallback>
 8002214:	bd08      	pop	{r3, pc}
	...

08002218 <HAL_ADC_ConfigChannel>:
 8002218:	2300      	movs	r3, #0
 800221a:	b573      	push	{r0, r1, r4, r5, r6, lr}
 800221c:	9301      	str	r3, [sp, #4]
 800221e:	f890 3024 	ldrb.w	r3, [r0, #36]	; 0x24
 8002222:	4604      	mov	r4, r0
 8002224:	2b01      	cmp	r3, #1
 8002226:	d06c      	beq.n	8002302 <HAL_ADC_ConfigChannel+0xea>
 8002228:	2301      	movs	r3, #1
 800222a:	f880 3024 	strb.w	r3, [r0, #36]	; 0x24
 800222e:	684d      	ldr	r5, [r1, #4]
 8002230:	6802      	ldr	r2, [r0, #0]
 8002232:	2d06      	cmp	r5, #6
 8002234:	6808      	ldr	r0, [r1, #0]
 8002236:	eb05 0385 	add.w	r3, r5, r5, lsl #2
 800223a:	d822      	bhi.n	8002282 <HAL_ADC_ConfigChannel+0x6a>
 800223c:	261f      	movs	r6, #31
 800223e:	6b55      	ldr	r5, [r2, #52]	; 0x34
 8002240:	3b05      	subs	r3, #5
 8002242:	409e      	lsls	r6, r3
 8002244:	ea25 0506 	bic.w	r5, r5, r6
 8002248:	fa00 f303 	lsl.w	r3, r0, r3
 800224c:	432b      	orrs	r3, r5
 800224e:	6353      	str	r3, [r2, #52]	; 0x34
 8002250:	2809      	cmp	r0, #9
 8002252:	688b      	ldr	r3, [r1, #8]
 8002254:	eb00 0540 	add.w	r5, r0, r0, lsl #1
 8002258:	f04f 0107 	mov.w	r1, #7
 800225c:	d929      	bls.n	80022b2 <HAL_ADC_ConfigChannel+0x9a>
 800225e:	68d6      	ldr	r6, [r2, #12]
 8002260:	3d1e      	subs	r5, #30
 8002262:	40a9      	lsls	r1, r5
 8002264:	ea26 0101 	bic.w	r1, r6, r1
 8002268:	40ab      	lsls	r3, r5
 800226a:	430b      	orrs	r3, r1
 800226c:	60d3      	str	r3, [r2, #12]
 800226e:	f1a0 0310 	sub.w	r3, r0, #16
 8002272:	2b01      	cmp	r3, #1
 8002274:	d925      	bls.n	80022c2 <HAL_ADC_ConfigChannel+0xaa>
 8002276:	2000      	movs	r0, #0
 8002278:	2300      	movs	r3, #0
 800227a:	f884 3024 	strb.w	r3, [r4, #36]	; 0x24
 800227e:	b002      	add	sp, #8
 8002280:	bd70      	pop	{r4, r5, r6, pc}
 8002282:	2d0c      	cmp	r5, #12
 8002284:	f04f 051f 	mov.w	r5, #31
 8002288:	d809      	bhi.n	800229e <HAL_ADC_ConfigChannel+0x86>
 800228a:	6b16      	ldr	r6, [r2, #48]	; 0x30
 800228c:	3b23      	subs	r3, #35	; 0x23
 800228e:	409d      	lsls	r5, r3
 8002290:	ea26 0505 	bic.w	r5, r6, r5
 8002294:	fa00 f303 	lsl.w	r3, r0, r3
 8002298:	432b      	orrs	r3, r5
 800229a:	6313      	str	r3, [r2, #48]	; 0x30
 800229c:	e7d8      	b.n	8002250 <HAL_ADC_ConfigChannel+0x38>
 800229e:	6ad6      	ldr	r6, [r2, #44]	; 0x2c
 80022a0:	3b41      	subs	r3, #65	; 0x41
 80022a2:	409d      	lsls	r5, r3
 80022a4:	ea26 0505 	bic.w	r5, r6, r5
 80022a8:	fa00 f303 	lsl.w	r3, r0, r3
 80022ac:	432b      	orrs	r3, r5
 80022ae:	62d3      	str	r3, [r2, #44]	; 0x2c
 80022b0:	e7ce      	b.n	8002250 <HAL_ADC_ConfigChannel+0x38>
 80022b2:	6910      	ldr	r0, [r2, #16]
 80022b4:	40a9      	lsls	r1, r5
 80022b6:	ea20 0101 	bic.w	r1, r0, r1
 80022ba:	40ab      	lsls	r3, r5
 80022bc:	430b      	orrs	r3, r1
 80022be:	6113      	str	r3, [r2, #16]
 80022c0:	e7d9      	b.n	8002276 <HAL_ADC_ConfigChannel+0x5e>
 80022c2:	4b11      	ldr	r3, [pc, #68]	; (8002308 <HAL_ADC_ConfigChannel+0xf0>)
 80022c4:	429a      	cmp	r2, r3
 80022c6:	d116      	bne.n	80022f6 <HAL_ADC_ConfigChannel+0xde>
 80022c8:	6893      	ldr	r3, [r2, #8]
 80022ca:	021b      	lsls	r3, r3, #8
 80022cc:	d4d3      	bmi.n	8002276 <HAL_ADC_ConfigChannel+0x5e>
 80022ce:	6893      	ldr	r3, [r2, #8]
 80022d0:	2810      	cmp	r0, #16
 80022d2:	f443 0300 	orr.w	r3, r3, #8388608	; 0x800000
 80022d6:	6093      	str	r3, [r2, #8]
 80022d8:	d1cd      	bne.n	8002276 <HAL_ADC_ConfigChannel+0x5e>
 80022da:	4b0c      	ldr	r3, [pc, #48]	; (800230c <HAL_ADC_ConfigChannel+0xf4>)
 80022dc:	4a0c      	ldr	r2, [pc, #48]	; (8002310 <HAL_ADC_ConfigChannel+0xf8>)
 80022de:	681b      	ldr	r3, [r3, #0]
 80022e0:	fbb3 f2f2 	udiv	r2, r3, r2
 80022e4:	230a      	movs	r3, #10
 80022e6:	4353      	muls	r3, r2
 80022e8:	9301      	str	r3, [sp, #4]
 80022ea:	9b01      	ldr	r3, [sp, #4]
 80022ec:	2b00      	cmp	r3, #0
 80022ee:	d0c2      	beq.n	8002276 <HAL_ADC_ConfigChannel+0x5e>
 80022f0:	9b01      	ldr	r3, [sp, #4]
 80022f2:	3b01      	subs	r3, #1
 80022f4:	e7f8      	b.n	80022e8 <HAL_ADC_ConfigChannel+0xd0>
 80022f6:	6aa3      	ldr	r3, [r4, #40]	; 0x28
 80022f8:	2001      	movs	r0, #1
 80022fa:	f043 0320 	orr.w	r3, r3, #32
 80022fe:	62a3      	str	r3, [r4, #40]	; 0x28
 8002300:	e7ba      	b.n	8002278 <HAL_ADC_ConfigChannel+0x60>
 8002302:	2002      	movs	r0, #2
 8002304:	e7bb      	b.n	800227e <HAL_ADC_ConfigChannel+0x66>
 8002306:	bf00      	nop
 8002308:	40012400 	.word	0x40012400
 800230c:	20000078 	.word	0x20000078
 8002310:	000f4240 	.word	0x000f4240

08002314 <ADC_Enable>:
 8002314:	2300      	movs	r3, #0
 8002316:	b537      	push	{r0, r1, r2, r4, r5, lr}
 8002318:	9301      	str	r3, [sp, #4]
 800231a:	6803      	ldr	r3, [r0, #0]
 800231c:	4604      	mov	r4, r0
 800231e:	689a      	ldr	r2, [r3, #8]
 8002320:	07d2      	lsls	r2, r2, #31
 8002322:	d502      	bpl.n	800232a <ADC_Enable+0x16>
 8002324:	2000      	movs	r0, #0
 8002326:	b003      	add	sp, #12
 8002328:	bd30      	pop	{r4, r5, pc}
 800232a:	689a      	ldr	r2, [r3, #8]
 800232c:	f042 0201 	orr.w	r2, r2, #1
 8002330:	609a      	str	r2, [r3, #8]
 8002332:	4b14      	ldr	r3, [pc, #80]	; (8002384 <ADC_Enable+0x70>)
 8002334:	4a14      	ldr	r2, [pc, #80]	; (8002388 <ADC_Enable+0x74>)
 8002336:	681b      	ldr	r3, [r3, #0]
 8002338:	fbb3 f3f2 	udiv	r3, r3, r2
 800233c:	9301      	str	r3, [sp, #4]
 800233e:	9b01      	ldr	r3, [sp, #4]
 8002340:	b9e3      	cbnz	r3, 800237c <ADC_Enable+0x68>
 8002342:	f7ff fe9f 	bl	8002084 <HAL_GetTick>
 8002346:	4605      	mov	r5, r0
 8002348:	6823      	ldr	r3, [r4, #0]
 800234a:	689b      	ldr	r3, [r3, #8]
 800234c:	07db      	lsls	r3, r3, #31
 800234e:	d4e9      	bmi.n	8002324 <ADC_Enable+0x10>
 8002350:	f7ff fe98 	bl	8002084 <HAL_GetTick>
 8002354:	1b40      	subs	r0, r0, r5
 8002356:	2802      	cmp	r0, #2
 8002358:	d9f6      	bls.n	8002348 <ADC_Enable+0x34>
 800235a:	6823      	ldr	r3, [r4, #0]
 800235c:	689b      	ldr	r3, [r3, #8]
 800235e:	f013 0301 	ands.w	r3, r3, #1
 8002362:	d1f1      	bne.n	8002348 <ADC_Enable+0x34>
 8002364:	6aa2      	ldr	r2, [r4, #40]	; 0x28
 8002366:	2001      	movs	r0, #1
 8002368:	f042 0210 	orr.w	r2, r2, #16
 800236c:	62a2      	str	r2, [r4, #40]	; 0x28
 800236e:	6ae2      	ldr	r2, [r4, #44]	; 0x2c
 8002370:	f884 3024 	strb.w	r3, [r4, #36]	; 0x24
 8002374:	f042 0201 	orr.w	r2, r2, #1
 8002378:	62e2      	str	r2, [r4, #44]	; 0x2c
 800237a:	e7d4      	b.n	8002326 <ADC_Enable+0x12>
 800237c:	9b01      	ldr	r3, [sp, #4]
 800237e:	3b01      	subs	r3, #1
 8002380:	e7dc      	b.n	800233c <ADC_Enable+0x28>
 8002382:	bf00      	nop
 8002384:	20000078 	.word	0x20000078
 8002388:	000f4240 	.word	0x000f4240

0800238c <HAL_ADC_Start_DMA>:
 800238c:	e92d 41f0 	stmdb	sp!, {r4, r5, r6, r7, r8, lr}
 8002390:	4b40      	ldr	r3, [pc, #256]	; (8002494 <HAL_ADC_Start_DMA+0x108>)
 8002392:	4690      	mov	r8, r2
 8002394:	6802      	ldr	r2, [r0, #0]
 8002396:	4604      	mov	r4, r0
 8002398:	429a      	cmp	r2, r3
 800239a:	460f      	mov	r7, r1
 800239c:	d002      	beq.n	80023a4 <HAL_ADC_Start_DMA+0x18>
 800239e:	493e      	ldr	r1, [pc, #248]	; (8002498 <HAL_ADC_Start_DMA+0x10c>)
 80023a0:	428a      	cmp	r2, r1
 80023a2:	d103      	bne.n	80023ac <HAL_ADC_Start_DMA+0x20>
 80023a4:	685b      	ldr	r3, [r3, #4]
 80023a6:	f413 2f70 	tst.w	r3, #983040	; 0xf0000
 80023aa:	d16e      	bne.n	800248a <HAL_ADC_Start_DMA+0xfe>
 80023ac:	f894 3024 	ldrb.w	r3, [r4, #36]	; 0x24
 80023b0:	2b01      	cmp	r3, #1
 80023b2:	d06c      	beq.n	800248e <HAL_ADC_Start_DMA+0x102>
 80023b4:	2301      	movs	r3, #1
 80023b6:	4620      	mov	r0, r4
 80023b8:	f884 3024 	strb.w	r3, [r4, #36]	; 0x24
 80023bc:	f7ff ffaa 	bl	8002314 <ADC_Enable>
 80023c0:	4606      	mov	r6, r0
 80023c2:	2800      	cmp	r0, #0
 80023c4:	d15d      	bne.n	8002482 <HAL_ADC_Start_DMA+0xf6>
 80023c6:	6aa5      	ldr	r5, [r4, #40]	; 0x28
 80023c8:	6821      	ldr	r1, [r4, #0]
 80023ca:	4b33      	ldr	r3, [pc, #204]	; (8002498 <HAL_ADC_Start_DMA+0x10c>)
 80023cc:	f425 6570 	bic.w	r5, r5, #3840	; 0xf00
 80023d0:	f025 0501 	bic.w	r5, r5, #1
 80023d4:	f445 7580 	orr.w	r5, r5, #256	; 0x100
 80023d8:	4299      	cmp	r1, r3
 80023da:	62a5      	str	r5, [r4, #40]	; 0x28
 80023dc:	d104      	bne.n	80023e8 <HAL_ADC_Start_DMA+0x5c>
 80023de:	4a2d      	ldr	r2, [pc, #180]	; (8002494 <HAL_ADC_Start_DMA+0x108>)
 80023e0:	6853      	ldr	r3, [r2, #4]
 80023e2:	f413 2f70 	tst.w	r3, #983040	; 0xf0000
 80023e6:	d13e      	bne.n	8002466 <HAL_ADC_Start_DMA+0xda>
 80023e8:	6aa3      	ldr	r3, [r4, #40]	; 0x28
 80023ea:	f423 1380 	bic.w	r3, r3, #1048576	; 0x100000
 80023ee:	62a3      	str	r3, [r4, #40]	; 0x28
 80023f0:	684b      	ldr	r3, [r1, #4]
 80023f2:	055a      	lsls	r2, r3, #21
 80023f4:	d505      	bpl.n	8002402 <HAL_ADC_Start_DMA+0x76>
 80023f6:	6aa3      	ldr	r3, [r4, #40]	; 0x28
 80023f8:	f423 5340 	bic.w	r3, r3, #12288	; 0x3000
 80023fc:	f443 5380 	orr.w	r3, r3, #4096	; 0x1000
 8002400:	62a3      	str	r3, [r4, #40]	; 0x28
 8002402:	6aa3      	ldr	r3, [r4, #40]	; 0x28
 8002404:	6a20      	ldr	r0, [r4, #32]
 8002406:	f413 5380 	ands.w	r3, r3, #4096	; 0x1000
 800240a:	bf18      	it	ne
 800240c:	6ae3      	ldrne	r3, [r4, #44]	; 0x2c
 800240e:	463a      	mov	r2, r7
 8002410:	bf18      	it	ne
 8002412:	f023 0306 	bicne.w	r3, r3, #6
 8002416:	62e3      	str	r3, [r4, #44]	; 0x2c
 8002418:	2300      	movs	r3, #0
 800241a:	f884 3024 	strb.w	r3, [r4, #36]	; 0x24
 800241e:	4b1f      	ldr	r3, [pc, #124]	; (800249c <HAL_ADC_Start_DMA+0x110>)
 8002420:	314c      	adds	r1, #76	; 0x4c
 8002422:	6283      	str	r3, [r0, #40]	; 0x28
 8002424:	4b1e      	ldr	r3, [pc, #120]	; (80024a0 <HAL_ADC_Start_DMA+0x114>)
 8002426:	62c3      	str	r3, [r0, #44]	; 0x2c
 8002428:	4b1e      	ldr	r3, [pc, #120]	; (80024a4 <HAL_ADC_Start_DMA+0x118>)
 800242a:	6303      	str	r3, [r0, #48]	; 0x30
 800242c:	f06f 0302 	mvn.w	r3, #2
 8002430:	f841 3c4c 	str.w	r3, [r1, #-76]
 8002434:	f851 3c44 	ldr.w	r3, [r1, #-68]
 8002438:	f443 7380 	orr.w	r3, r3, #256	; 0x100
 800243c:	f841 3c44 	str.w	r3, [r1, #-68]
 8002440:	4643      	mov	r3, r8
 8002442:	f000 f9dd 	bl	8002800 <HAL_DMA_Start_IT>
 8002446:	6823      	ldr	r3, [r4, #0]
 8002448:	689a      	ldr	r2, [r3, #8]
 800244a:	f402 2260 	and.w	r2, r2, #917504	; 0xe0000
 800244e:	f5b2 2f60 	cmp.w	r2, #917504	; 0xe0000
 8002452:	689a      	ldr	r2, [r3, #8]
 8002454:	bf0c      	ite	eq
 8002456:	f442 02a0 	orreq.w	r2, r2, #5242880	; 0x500000
 800245a:	f442 1280 	orrne.w	r2, r2, #1048576	; 0x100000
 800245e:	609a      	str	r2, [r3, #8]
 8002460:	4630      	mov	r0, r6
 8002462:	e8bd 81f0 	ldmia.w	sp!, {r4, r5, r6, r7, r8, pc}
 8002466:	6aa3      	ldr	r3, [r4, #40]	; 0x28
 8002468:	f443 1380 	orr.w	r3, r3, #1048576	; 0x100000
 800246c:	62a3      	str	r3, [r4, #40]	; 0x28
 800246e:	6853      	ldr	r3, [r2, #4]
 8002470:	055b      	lsls	r3, r3, #21
 8002472:	bf41      	itttt	mi
 8002474:	6aa0      	ldrmi	r0, [r4, #40]	; 0x28
 8002476:	f420 5040 	bicmi.w	r0, r0, #12288	; 0x3000
 800247a:	f440 5080 	orrmi.w	r0, r0, #4096	; 0x1000
 800247e:	62a0      	strmi	r0, [r4, #40]	; 0x28
 8002480:	e7bf      	b.n	8002402 <HAL_ADC_Start_DMA+0x76>
 8002482:	2300      	movs	r3, #0
 8002484:	f884 3024 	strb.w	r3, [r4, #36]	; 0x24
 8002488:	e7ea      	b.n	8002460 <HAL_ADC_Start_DMA+0xd4>
 800248a:	2601      	movs	r6, #1
 800248c:	e7e8      	b.n	8002460 <HAL_ADC_Start_DMA+0xd4>
 800248e:	2602      	movs	r6, #2
 8002490:	e7e6      	b.n	8002460 <HAL_ADC_Start_DMA+0xd4>
 8002492:	bf00      	nop
 8002494:	40012400 	.word	0x40012400
 8002498:	40012800 	.word	0x40012800
 800249c:	080020b5 	.word	0x080020b5
 80024a0:	08002105 	.word	0x08002105
 80024a4:	080021fd 	.word	0x080021fd

080024a8 <ADC_ConversionStop_Disable>:
 80024a8:	b538      	push	{r3, r4, r5, lr}
 80024aa:	6803      	ldr	r3, [r0, #0]
 80024ac:	4604      	mov	r4, r0
 80024ae:	689a      	ldr	r2, [r3, #8]
 80024b0:	07d1      	lsls	r1, r2, #31
 80024b2:	d401      	bmi.n	80024b8 <ADC_ConversionStop_Disable+0x10>
 80024b4:	2000      	movs	r0, #0
 80024b6:	bd38      	pop	{r3, r4, r5, pc}
 80024b8:	689a      	ldr	r2, [r3, #8]
 80024ba:	f022 0201 	bic.w	r2, r2, #1
 80024be:	609a      	str	r2, [r3, #8]
 80024c0:	f7ff fde0 	bl	8002084 <HAL_GetTick>
 80024c4:	4605      	mov	r5, r0
 80024c6:	6823      	ldr	r3, [r4, #0]
 80024c8:	689b      	ldr	r3, [r3, #8]
 80024ca:	07db      	lsls	r3, r3, #31
 80024cc:	d5f2      	bpl.n	80024b4 <ADC_ConversionStop_Disable+0xc>
 80024ce:	f7ff fdd9 	bl	8002084 <HAL_GetTick>
 80024d2:	1b40      	subs	r0, r0, r5
 80024d4:	2802      	cmp	r0, #2
 80024d6:	d9f6      	bls.n	80024c6 <ADC_ConversionStop_Disable+0x1e>
 80024d8:	6823      	ldr	r3, [r4, #0]
 80024da:	689b      	ldr	r3, [r3, #8]
 80024dc:	07da      	lsls	r2, r3, #31
 80024de:	d5f2      	bpl.n	80024c6 <ADC_ConversionStop_Disable+0x1e>
 80024e0:	6aa3      	ldr	r3, [r4, #40]	; 0x28
 80024e2:	2001      	movs	r0, #1
 80024e4:	f043 0310 	orr.w	r3, r3, #16
 80024e8:	62a3      	str	r3, [r4, #40]	; 0x28
 80024ea:	6ae3      	ldr	r3, [r4, #44]	; 0x2c
 80024ec:	f043 0301 	orr.w	r3, r3, #1
 80024f0:	62e3      	str	r3, [r4, #44]	; 0x2c
 80024f2:	e7e0      	b.n	80024b6 <ADC_ConversionStop_Disable+0xe>

080024f4 <HAL_ADC_Init>:
 80024f4:	b5f8      	push	{r3, r4, r5, r6, r7, lr}
 80024f6:	4604      	mov	r4, r0
 80024f8:	2800      	cmp	r0, #0
 80024fa:	d06e      	beq.n	80025da <HAL_ADC_Init+0xe6>
 80024fc:	6a83      	ldr	r3, [r0, #40]	; 0x28
 80024fe:	b923      	cbnz	r3, 800250a <HAL_ADC_Init+0x16>
 8002500:	62c3      	str	r3, [r0, #44]	; 0x2c
 8002502:	f880 3024 	strb.w	r3, [r0, #36]	; 0x24
 8002506:	f002 fd41 	bl	8004f8c <HAL_ADC_MspInit>
 800250a:	4620      	mov	r0, r4
 800250c:	f7ff ffcc 	bl	80024a8 <ADC_ConversionStop_Disable>
 8002510:	6aa3      	ldr	r3, [r4, #40]	; 0x28
 8002512:	f013 0310 	ands.w	r3, r3, #16
 8002516:	d162      	bne.n	80025de <HAL_ADC_Init+0xea>
 8002518:	2800      	cmp	r0, #0
 800251a:	d160      	bne.n	80025de <HAL_ADC_Init+0xea>
 800251c:	6aa2      	ldr	r2, [r4, #40]	; 0x28
 800251e:	69e5      	ldr	r5, [r4, #28]
 8002520:	6861      	ldr	r1, [r4, #4]
 8002522:	f422 5288 	bic.w	r2, r2, #4352	; 0x1100
 8002526:	f022 0202 	bic.w	r2, r2, #2
 800252a:	f042 0202 	orr.w	r2, r2, #2
 800252e:	4329      	orrs	r1, r5
 8002530:	68a5      	ldr	r5, [r4, #8]
 8002532:	62a2      	str	r2, [r4, #40]	; 0x28
 8002534:	7b22      	ldrb	r2, [r4, #12]
 8002536:	f5b5 7f80 	cmp.w	r5, #256	; 0x100
 800253a:	ea41 0142 	orr.w	r1, r1, r2, lsl #1
 800253e:	d037      	beq.n	80025b0 <HAL_ADC_Init+0xbc>
 8002540:	2d01      	cmp	r5, #1
 8002542:	bf14      	ite	ne
 8002544:	2700      	movne	r7, #0
 8002546:	f44f 7780 	moveq.w	r7, #256	; 0x100
 800254a:	7d26      	ldrb	r6, [r4, #20]
 800254c:	2e01      	cmp	r6, #1
 800254e:	d106      	bne.n	800255e <HAL_ADC_Init+0x6a>
 8002550:	bb82      	cbnz	r2, 80025b4 <HAL_ADC_Init+0xc0>
 8002552:	69a2      	ldr	r2, [r4, #24]
 8002554:	3a01      	subs	r2, #1
 8002556:	ea47 3642 	orr.w	r6, r7, r2, lsl #13
 800255a:	f446 6700 	orr.w	r7, r6, #2048	; 0x800
 800255e:	6822      	ldr	r2, [r4, #0]
 8002560:	f5b5 7f80 	cmp.w	r5, #256	; 0x100
 8002564:	6856      	ldr	r6, [r2, #4]
 8002566:	f426 4669 	bic.w	r6, r6, #59648	; 0xe900
 800256a:	ea46 0607 	orr.w	r6, r6, r7
 800256e:	6056      	str	r6, [r2, #4]
 8002570:	6897      	ldr	r7, [r2, #8]
 8002572:	4e1d      	ldr	r6, [pc, #116]	; (80025e8 <HAL_ADC_Init+0xf4>)
 8002574:	ea06 0607 	and.w	r6, r6, r7
 8002578:	ea46 0601 	orr.w	r6, r6, r1
 800257c:	6096      	str	r6, [r2, #8]
 800257e:	d001      	beq.n	8002584 <HAL_ADC_Init+0x90>
 8002580:	2d01      	cmp	r5, #1
 8002582:	d102      	bne.n	800258a <HAL_ADC_Init+0x96>
 8002584:	6923      	ldr	r3, [r4, #16]
 8002586:	3b01      	subs	r3, #1
 8002588:	051b      	lsls	r3, r3, #20
 800258a:	6ad5      	ldr	r5, [r2, #44]	; 0x2c
 800258c:	f425 0570 	bic.w	r5, r5, #15728640	; 0xf00000
 8002590:	432b      	orrs	r3, r5
 8002592:	62d3      	str	r3, [r2, #44]	; 0x2c
 8002594:	6892      	ldr	r2, [r2, #8]
 8002596:	4b15      	ldr	r3, [pc, #84]	; (80025ec <HAL_ADC_Init+0xf8>)
 8002598:	4013      	ands	r3, r2
 800259a:	4299      	cmp	r1, r3
 800259c:	d113      	bne.n	80025c6 <HAL_ADC_Init+0xd2>
 800259e:	2300      	movs	r3, #0
 80025a0:	62e3      	str	r3, [r4, #44]	; 0x2c
 80025a2:	6aa3      	ldr	r3, [r4, #40]	; 0x28
 80025a4:	f023 0303 	bic.w	r3, r3, #3
 80025a8:	f043 0301 	orr.w	r3, r3, #1
 80025ac:	62a3      	str	r3, [r4, #40]	; 0x28
 80025ae:	bdf8      	pop	{r3, r4, r5, r6, r7, pc}
 80025b0:	462f      	mov	r7, r5
 80025b2:	e7ca      	b.n	800254a <HAL_ADC_Init+0x56>
 80025b4:	6aa2      	ldr	r2, [r4, #40]	; 0x28
 80025b6:	f042 0220 	orr.w	r2, r2, #32
 80025ba:	62a2      	str	r2, [r4, #40]	; 0x28
 80025bc:	6ae2      	ldr	r2, [r4, #44]	; 0x2c
 80025be:	f042 0201 	orr.w	r2, r2, #1
 80025c2:	62e2      	str	r2, [r4, #44]	; 0x2c
 80025c4:	e7cb      	b.n	800255e <HAL_ADC_Init+0x6a>
 80025c6:	6aa3      	ldr	r3, [r4, #40]	; 0x28
 80025c8:	f023 0312 	bic.w	r3, r3, #18
 80025cc:	f043 0310 	orr.w	r3, r3, #16
 80025d0:	62a3      	str	r3, [r4, #40]	; 0x28
 80025d2:	6ae3      	ldr	r3, [r4, #44]	; 0x2c
 80025d4:	f043 0301 	orr.w	r3, r3, #1
 80025d8:	62e3      	str	r3, [r4, #44]	; 0x2c
 80025da:	2001      	movs	r0, #1
 80025dc:	e7e7      	b.n	80025ae <HAL_ADC_Init+0xba>
 80025de:	6aa3      	ldr	r3, [r4, #40]	; 0x28
 80025e0:	f043 0310 	orr.w	r3, r3, #16
 80025e4:	62a3      	str	r3, [r4, #40]	; 0x28
 80025e6:	e7f8      	b.n	80025da <HAL_ADC_Init+0xe6>
 80025e8:	ffe1f7fd 	.word	0xffe1f7fd
 80025ec:	ff1f0efe 	.word	0xff1f0efe

080025f0 <HAL_ADCEx_Calibration_Start>:
 80025f0:	2300      	movs	r3, #0
 80025f2:	b573      	push	{r0, r1, r4, r5, r6, lr}
 80025f4:	9301      	str	r3, [sp, #4]
 80025f6:	f890 3024 	ldrb.w	r3, [r0, #36]	; 0x24
 80025fa:	4604      	mov	r4, r0
 80025fc:	2b01      	cmp	r3, #1
 80025fe:	d062      	beq.n	80026c6 <HAL_ADCEx_Calibration_Start+0xd6>
 8002600:	2301      	movs	r3, #1
 8002602:	f880 3024 	strb.w	r3, [r0, #36]	; 0x24
 8002606:	f7ff ff4f 	bl	80024a8 <ADC_ConversionStop_Disable>
 800260a:	4605      	mov	r5, r0
 800260c:	2800      	cmp	r0, #0
 800260e:	d132      	bne.n	8002676 <HAL_ADCEx_Calibration_Start+0x86>
 8002610:	6aa3      	ldr	r3, [r4, #40]	; 0x28
 8002612:	2002      	movs	r0, #2
 8002614:	f423 5388 	bic.w	r3, r3, #4352	; 0x1100
 8002618:	f023 0302 	bic.w	r3, r3, #2
 800261c:	f043 0302 	orr.w	r3, r3, #2
 8002620:	62a3      	str	r3, [r4, #40]	; 0x28
 8002622:	4b2a      	ldr	r3, [pc, #168]	; (80026cc <HAL_ADCEx_Calibration_Start+0xdc>)
 8002624:	681e      	ldr	r6, [r3, #0]
 8002626:	f002 f813 	bl	8004650 <HAL_RCCEx_GetPeriphCLKFreq>
 800262a:	fbb6 f6f0 	udiv	r6, r6, r0
 800262e:	0076      	lsls	r6, r6, #1
 8002630:	9601      	str	r6, [sp, #4]
 8002632:	9b01      	ldr	r3, [sp, #4]
 8002634:	bb1b      	cbnz	r3, 800267e <HAL_ADCEx_Calibration_Start+0x8e>
 8002636:	4620      	mov	r0, r4
 8002638:	f7ff fe6c 	bl	8002314 <ADC_Enable>
 800263c:	6822      	ldr	r2, [r4, #0]
 800263e:	6893      	ldr	r3, [r2, #8]
 8002640:	f043 0308 	orr.w	r3, r3, #8
 8002644:	6093      	str	r3, [r2, #8]
 8002646:	f7ff fd1d 	bl	8002084 <HAL_GetTick>
 800264a:	4606      	mov	r6, r0
 800264c:	6823      	ldr	r3, [r4, #0]
 800264e:	689a      	ldr	r2, [r3, #8]
 8002650:	0711      	lsls	r1, r2, #28
 8002652:	d418      	bmi.n	8002686 <HAL_ADCEx_Calibration_Start+0x96>
 8002654:	689a      	ldr	r2, [r3, #8]
 8002656:	f042 0204 	orr.w	r2, r2, #4
 800265a:	609a      	str	r2, [r3, #8]
 800265c:	f7ff fd12 	bl	8002084 <HAL_GetTick>
 8002660:	4606      	mov	r6, r0
 8002662:	6823      	ldr	r3, [r4, #0]
 8002664:	689b      	ldr	r3, [r3, #8]
 8002666:	075b      	lsls	r3, r3, #29
 8002668:	d423      	bmi.n	80026b2 <HAL_ADCEx_Calibration_Start+0xc2>
 800266a:	6aa3      	ldr	r3, [r4, #40]	; 0x28
 800266c:	f023 0303 	bic.w	r3, r3, #3
 8002670:	f043 0301 	orr.w	r3, r3, #1
 8002674:	62a3      	str	r3, [r4, #40]	; 0x28
 8002676:	2300      	movs	r3, #0
 8002678:	f884 3024 	strb.w	r3, [r4, #36]	; 0x24
 800267c:	e016      	b.n	80026ac <HAL_ADCEx_Calibration_Start+0xbc>
 800267e:	9b01      	ldr	r3, [sp, #4]
 8002680:	3b01      	subs	r3, #1
 8002682:	9301      	str	r3, [sp, #4]
 8002684:	e7d5      	b.n	8002632 <HAL_ADCEx_Calibration_Start+0x42>
 8002686:	f7ff fcfd 	bl	8002084 <HAL_GetTick>
 800268a:	1b80      	subs	r0, r0, r6
 800268c:	280a      	cmp	r0, #10
 800268e:	d9dd      	bls.n	800264c <HAL_ADCEx_Calibration_Start+0x5c>
 8002690:	6823      	ldr	r3, [r4, #0]
 8002692:	689b      	ldr	r3, [r3, #8]
 8002694:	0718      	lsls	r0, r3, #28
 8002696:	d5d9      	bpl.n	800264c <HAL_ADCEx_Calibration_Start+0x5c>
 8002698:	6aa3      	ldr	r3, [r4, #40]	; 0x28
 800269a:	2501      	movs	r5, #1
 800269c:	f023 0312 	bic.w	r3, r3, #18
 80026a0:	f043 0310 	orr.w	r3, r3, #16
 80026a4:	62a3      	str	r3, [r4, #40]	; 0x28
 80026a6:	2300      	movs	r3, #0
 80026a8:	f884 3024 	strb.w	r3, [r4, #36]	; 0x24
 80026ac:	4628      	mov	r0, r5
 80026ae:	b002      	add	sp, #8
 80026b0:	bd70      	pop	{r4, r5, r6, pc}
 80026b2:	f7ff fce7 	bl	8002084 <HAL_GetTick>
 80026b6:	1b80      	subs	r0, r0, r6
 80026b8:	280a      	cmp	r0, #10
 80026ba:	d9d2      	bls.n	8002662 <HAL_ADCEx_Calibration_Start+0x72>
 80026bc:	6823      	ldr	r3, [r4, #0]
 80026be:	689b      	ldr	r3, [r3, #8]
 80026c0:	075a      	lsls	r2, r3, #29
 80026c2:	d5ce      	bpl.n	8002662 <HAL_ADCEx_Calibration_Start+0x72>
 80026c4:	e7e8      	b.n	8002698 <HAL_ADCEx_Calibration_Start+0xa8>
 80026c6:	2502      	movs	r5, #2
 80026c8:	e7f0      	b.n	80026ac <HAL_ADCEx_Calibration_Start+0xbc>
 80026ca:	bf00      	nop
 80026cc:	20000078 	.word	0x20000078

080026d0 <HAL_ADCEx_InjectedConvCpltCallback>:
 80026d0:	4770      	bx	lr
	...

080026d4 <HAL_NVIC_SetPriorityGrouping>:
 80026d4:	4907      	ldr	r1, [pc, #28]	; (80026f4 <HAL_NVIC_SetPriorityGrouping+0x20>)
 80026d6:	0203      	lsls	r3, r0, #8
 80026d8:	68ca      	ldr	r2, [r1, #12]
 80026da:	f403 63e0 	and.w	r3, r3, #1792	; 0x700
 80026de:	f422 62e0 	bic.w	r2, r2, #1792	; 0x700
 80026e2:	0412      	lsls	r2, r2, #16
 80026e4:	0c12      	lsrs	r2, r2, #16
 80026e6:	4313      	orrs	r3, r2
 80026e8:	f043 63bf 	orr.w	r3, r3, #100139008	; 0x5f80000
 80026ec:	f443 3300 	orr.w	r3, r3, #131072	; 0x20000
 80026f0:	60cb      	str	r3, [r1, #12]
 80026f2:	4770      	bx	lr
 80026f4:	e000ed00 	.word	0xe000ed00

080026f8 <HAL_NVIC_SetPriority>:
 80026f8:	4b16      	ldr	r3, [pc, #88]	; (8002754 <HAL_NVIC_SetPriority+0x5c>)
 80026fa:	b530      	push	{r4, r5, lr}
 80026fc:	68dc      	ldr	r4, [r3, #12]
 80026fe:	f3c4 2402 	ubfx	r4, r4, #8, #3
 8002702:	f1c4 0307 	rsb	r3, r4, #7
 8002706:	1d25      	adds	r5, r4, #4
 8002708:	2b04      	cmp	r3, #4
 800270a:	bf28      	it	cs
 800270c:	2304      	movcs	r3, #4
 800270e:	2d06      	cmp	r5, #6
 8002710:	f04f 35ff 	mov.w	r5, #4294967295
 8002714:	bf98      	it	ls
 8002716:	2400      	movls	r4, #0
 8002718:	fa05 f303 	lsl.w	r3, r5, r3
 800271c:	bf88      	it	hi
 800271e:	3c03      	subhi	r4, #3
 8002720:	ea21 0303 	bic.w	r3, r1, r3
 8002724:	40a3      	lsls	r3, r4
 8002726:	fa05 f404 	lsl.w	r4, r5, r4
 800272a:	ea22 0204 	bic.w	r2, r2, r4
 800272e:	2800      	cmp	r0, #0
 8002730:	ea43 0302 	orr.w	r3, r3, r2
 8002734:	bfac      	ite	ge
 8002736:	f100 4060 	addge.w	r0, r0, #3758096384	; 0xe0000000
 800273a:	4a07      	ldrlt	r2, [pc, #28]	; (8002758 <HAL_NVIC_SetPriority+0x60>)
 800273c:	ea4f 1303 	mov.w	r3, r3, lsl #4
 8002740:	b2db      	uxtb	r3, r3
 8002742:	bfab      	itete	ge
 8002744:	f500 4061 	addge.w	r0, r0, #57600	; 0xe100
 8002748:	f000 000f 	andlt.w	r0, r0, #15
 800274c:	f880 3300 	strbge.w	r3, [r0, #768]	; 0x300
 8002750:	5413      	strblt	r3, [r2, r0]
 8002752:	bd30      	pop	{r4, r5, pc}
 8002754:	e000ed00 	.word	0xe000ed00
 8002758:	e000ed14 	.word	0xe000ed14

0800275c <HAL_NVIC_EnableIRQ>:
 800275c:	2800      	cmp	r0, #0
 800275e:	db08      	blt.n	8002772 <HAL_NVIC_EnableIRQ+0x16>
 8002760:	2301      	movs	r3, #1
 8002762:	0942      	lsrs	r2, r0, #5
 8002764:	f000 001f 	and.w	r0, r0, #31
 8002768:	fa03 f000 	lsl.w	r0, r3, r0
 800276c:	4b01      	ldr	r3, [pc, #4]	; (8002774 <HAL_NVIC_EnableIRQ+0x18>)
 800276e:	f843 0022 	str.w	r0, [r3, r2, lsl #2]
 8002772:	4770      	bx	lr
 8002774:	e000e100 	.word	0xe000e100

08002778 <HAL_SYSTICK_Config>:
 8002778:	3801      	subs	r0, #1
 800277a:	f1b0 7f80 	cmp.w	r0, #16777216	; 0x1000000
 800277e:	d20a      	bcs.n	8002796 <HAL_SYSTICK_Config+0x1e>
 8002780:	21f0      	movs	r1, #240	; 0xf0
 8002782:	4b06      	ldr	r3, [pc, #24]	; (800279c <HAL_SYSTICK_Config+0x24>)
 8002784:	4a06      	ldr	r2, [pc, #24]	; (80027a0 <HAL_SYSTICK_Config+0x28>)
 8002786:	6058      	str	r0, [r3, #4]
 8002788:	f882 1023 	strb.w	r1, [r2, #35]	; 0x23
 800278c:	2000      	movs	r0, #0
 800278e:	2207      	movs	r2, #7
 8002790:	6098      	str	r0, [r3, #8]
 8002792:	601a      	str	r2, [r3, #0]
 8002794:	4770      	bx	lr
 8002796:	2001      	movs	r0, #1
 8002798:	4770      	bx	lr
 800279a:	bf00      	nop
 800279c:	e000e010 	.word	0xe000e010
 80027a0:	e000ed00 	.word	0xe000ed00

080027a4 <HAL_DMA_Init>:
 80027a4:	b510      	push	{r4, lr}
 80027a6:	b320      	cbz	r0, 80027f2 <HAL_DMA_Init+0x4e>
 80027a8:	2214      	movs	r2, #20
 80027aa:	6801      	ldr	r1, [r0, #0]
 80027ac:	4b12      	ldr	r3, [pc, #72]	; (80027f8 <HAL_DMA_Init+0x54>)
 80027ae:	440b      	add	r3, r1
 80027b0:	fbb3 f3f2 	udiv	r3, r3, r2
 80027b4:	009b      	lsls	r3, r3, #2
 80027b6:	6403      	str	r3, [r0, #64]	; 0x40
 80027b8:	4b10      	ldr	r3, [pc, #64]	; (80027fc <HAL_DMA_Init+0x58>)
 80027ba:	680a      	ldr	r2, [r1, #0]
 80027bc:	63c3      	str	r3, [r0, #60]	; 0x3c
 80027be:	e9d0 3401 	ldrd	r3, r4, [r0, #4]
 80027c2:	4323      	orrs	r3, r4
 80027c4:	68c4      	ldr	r4, [r0, #12]
 80027c6:	f422 527f 	bic.w	r2, r2, #16320	; 0x3fc0
 80027ca:	4323      	orrs	r3, r4
 80027cc:	6904      	ldr	r4, [r0, #16]
 80027ce:	f022 0230 	bic.w	r2, r2, #48	; 0x30
 80027d2:	4323      	orrs	r3, r4
 80027d4:	6944      	ldr	r4, [r0, #20]
 80027d6:	4323      	orrs	r3, r4
 80027d8:	6984      	ldr	r4, [r0, #24]
 80027da:	4323      	orrs	r3, r4
 80027dc:	69c4      	ldr	r4, [r0, #28]
 80027de:	4323      	orrs	r3, r4
 80027e0:	4313      	orrs	r3, r2
 80027e2:	600b      	str	r3, [r1, #0]
 80027e4:	f44f 7280 	mov.w	r2, #256	; 0x100
 80027e8:	2300      	movs	r3, #0
 80027ea:	8402      	strh	r2, [r0, #32]
 80027ec:	6383      	str	r3, [r0, #56]	; 0x38
 80027ee:	4618      	mov	r0, r3
 80027f0:	bd10      	pop	{r4, pc}
 80027f2:	2001      	movs	r0, #1
 80027f4:	e7fc      	b.n	80027f0 <HAL_DMA_Init+0x4c>
 80027f6:	bf00      	nop
 80027f8:	bffdfff8 	.word	0xbffdfff8
 80027fc:	40020000 	.word	0x40020000

08002800 <HAL_DMA_Start_IT>:
 8002800:	b5f0      	push	{r4, r5, r6, r7, lr}
 8002802:	f890 4020 	ldrb.w	r4, [r0, #32]
 8002806:	2c01      	cmp	r4, #1
 8002808:	d034      	beq.n	8002874 <HAL_DMA_Start_IT+0x74>
 800280a:	2401      	movs	r4, #1
 800280c:	f890 5021 	ldrb.w	r5, [r0, #33]	; 0x21
 8002810:	f880 4020 	strb.w	r4, [r0, #32]
 8002814:	42a5      	cmp	r5, r4
 8002816:	f04f 0600 	mov.w	r6, #0
 800281a:	f04f 0402 	mov.w	r4, #2
 800281e:	d127      	bne.n	8002870 <HAL_DMA_Start_IT+0x70>
 8002820:	f880 4021 	strb.w	r4, [r0, #33]	; 0x21
 8002824:	6804      	ldr	r4, [r0, #0]
 8002826:	6386      	str	r6, [r0, #56]	; 0x38
 8002828:	6826      	ldr	r6, [r4, #0]
 800282a:	f026 0601 	bic.w	r6, r6, #1
 800282e:	6026      	str	r6, [r4, #0]
 8002830:	e9d0 670f 	ldrd	r6, r7, [r0, #60]	; 0x3c
 8002834:	40bd      	lsls	r5, r7
 8002836:	6075      	str	r5, [r6, #4]
 8002838:	6063      	str	r3, [r4, #4]
 800283a:	6843      	ldr	r3, [r0, #4]
 800283c:	2b10      	cmp	r3, #16
 800283e:	6ac3      	ldr	r3, [r0, #44]	; 0x2c
 8002840:	bf0b      	itete	eq
 8002842:	60a2      	streq	r2, [r4, #8]
 8002844:	60a1      	strne	r1, [r4, #8]
 8002846:	60e1      	streq	r1, [r4, #12]
 8002848:	60e2      	strne	r2, [r4, #12]
 800284a:	b14b      	cbz	r3, 8002860 <HAL_DMA_Start_IT+0x60>
 800284c:	6823      	ldr	r3, [r4, #0]
 800284e:	f043 030e 	orr.w	r3, r3, #14
 8002852:	2000      	movs	r0, #0
 8002854:	6023      	str	r3, [r4, #0]
 8002856:	6823      	ldr	r3, [r4, #0]
 8002858:	f043 0301 	orr.w	r3, r3, #1
 800285c:	6023      	str	r3, [r4, #0]
 800285e:	bdf0      	pop	{r4, r5, r6, r7, pc}
 8002860:	6823      	ldr	r3, [r4, #0]
 8002862:	f023 0304 	bic.w	r3, r3, #4
 8002866:	6023      	str	r3, [r4, #0]
 8002868:	6823      	ldr	r3, [r4, #0]
 800286a:	f043 030a 	orr.w	r3, r3, #10
 800286e:	e7f0      	b.n	8002852 <HAL_DMA_Start_IT+0x52>
 8002870:	f880 6020 	strb.w	r6, [r0, #32]
 8002874:	2002      	movs	r0, #2
 8002876:	e7f2      	b.n	800285e <HAL_DMA_Start_IT+0x5e>

08002878 <HAL_DMA_Abort_IT>:
 8002878:	b508      	push	{r3, lr}
 800287a:	f890 3021 	ldrb.w	r3, [r0, #33]	; 0x21
 800287e:	2b02      	cmp	r3, #2
 8002880:	d003      	beq.n	800288a <HAL_DMA_Abort_IT+0x12>
 8002882:	2304      	movs	r3, #4
 8002884:	6383      	str	r3, [r0, #56]	; 0x38
 8002886:	2001      	movs	r0, #1
 8002888:	bd08      	pop	{r3, pc}
 800288a:	6803      	ldr	r3, [r0, #0]
 800288c:	681a      	ldr	r2, [r3, #0]
 800288e:	f022 020e 	bic.w	r2, r2, #14
 8002892:	601a      	str	r2, [r3, #0]
 8002894:	681a      	ldr	r2, [r3, #0]
 8002896:	f022 0201 	bic.w	r2, r2, #1
 800289a:	601a      	str	r2, [r3, #0]
 800289c:	4a17      	ldr	r2, [pc, #92]	; (80028fc <HAL_DMA_Abort_IT+0x84>)
 800289e:	4293      	cmp	r3, r2
 80028a0:	d01c      	beq.n	80028dc <HAL_DMA_Abort_IT+0x64>
 80028a2:	3214      	adds	r2, #20
 80028a4:	4293      	cmp	r3, r2
 80028a6:	d01b      	beq.n	80028e0 <HAL_DMA_Abort_IT+0x68>
 80028a8:	3214      	adds	r2, #20
 80028aa:	4293      	cmp	r3, r2
 80028ac:	d01a      	beq.n	80028e4 <HAL_DMA_Abort_IT+0x6c>
 80028ae:	3214      	adds	r2, #20
 80028b0:	4293      	cmp	r3, r2
 80028b2:	d01a      	beq.n	80028ea <HAL_DMA_Abort_IT+0x72>
 80028b4:	3214      	adds	r2, #20
 80028b6:	4293      	cmp	r3, r2
 80028b8:	d01a      	beq.n	80028f0 <HAL_DMA_Abort_IT+0x78>
 80028ba:	3214      	adds	r2, #20
 80028bc:	4293      	cmp	r3, r2
 80028be:	bf0c      	ite	eq
 80028c0:	f44f 1380 	moveq.w	r3, #1048576	; 0x100000
 80028c4:	f04f 7380 	movne.w	r3, #16777216	; 0x1000000
 80028c8:	4a0d      	ldr	r2, [pc, #52]	; (8002900 <HAL_DMA_Abort_IT+0x88>)
 80028ca:	6053      	str	r3, [r2, #4]
 80028cc:	f44f 7380 	mov.w	r3, #256	; 0x100
 80028d0:	8403      	strh	r3, [r0, #32]
 80028d2:	6b43      	ldr	r3, [r0, #52]	; 0x34
 80028d4:	b17b      	cbz	r3, 80028f6 <HAL_DMA_Abort_IT+0x7e>
 80028d6:	4798      	blx	r3
 80028d8:	2000      	movs	r0, #0
 80028da:	e7d5      	b.n	8002888 <HAL_DMA_Abort_IT+0x10>
 80028dc:	2301      	movs	r3, #1
 80028de:	e7f3      	b.n	80028c8 <HAL_DMA_Abort_IT+0x50>
 80028e0:	2310      	movs	r3, #16
 80028e2:	e7f1      	b.n	80028c8 <HAL_DMA_Abort_IT+0x50>
 80028e4:	f44f 7380 	mov.w	r3, #256	; 0x100
 80028e8:	e7ee      	b.n	80028c8 <HAL_DMA_Abort_IT+0x50>
 80028ea:	f44f 5380 	mov.w	r3, #4096	; 0x1000
 80028ee:	e7eb      	b.n	80028c8 <HAL_DMA_Abort_IT+0x50>
 80028f0:	f44f 3380 	mov.w	r3, #65536	; 0x10000
 80028f4:	e7e8      	b.n	80028c8 <HAL_DMA_Abort_IT+0x50>
 80028f6:	4618      	mov	r0, r3
 80028f8:	e7c6      	b.n	8002888 <HAL_DMA_Abort_IT+0x10>
 80028fa:	bf00      	nop
 80028fc:	40020008 	.word	0x40020008
 8002900:	40020000 	.word	0x40020000

08002904 <HAL_DMA_IRQHandler>:
 8002904:	b470      	push	{r4, r5, r6}
 8002906:	2504      	movs	r5, #4
 8002908:	6bc6      	ldr	r6, [r0, #60]	; 0x3c
 800290a:	6c02      	ldr	r2, [r0, #64]	; 0x40
 800290c:	6834      	ldr	r4, [r6, #0]
 800290e:	6803      	ldr	r3, [r0, #0]
 8002910:	4095      	lsls	r5, r2
 8002912:	4225      	tst	r5, r4
 8002914:	6819      	ldr	r1, [r3, #0]
 8002916:	d032      	beq.n	800297e <HAL_DMA_IRQHandler+0x7a>
 8002918:	074d      	lsls	r5, r1, #29
 800291a:	d530      	bpl.n	800297e <HAL_DMA_IRQHandler+0x7a>
 800291c:	681a      	ldr	r2, [r3, #0]
 800291e:	0696      	lsls	r6, r2, #26
 8002920:	bf5e      	ittt	pl
 8002922:	681a      	ldrpl	r2, [r3, #0]
 8002924:	f022 0204 	bicpl.w	r2, r2, #4
 8002928:	601a      	strpl	r2, [r3, #0]
 800292a:	4a3d      	ldr	r2, [pc, #244]	; (8002a20 <HAL_DMA_IRQHandler+0x11c>)
 800292c:	4293      	cmp	r3, r2
 800292e:	d019      	beq.n	8002964 <HAL_DMA_IRQHandler+0x60>
 8002930:	3214      	adds	r2, #20
 8002932:	4293      	cmp	r3, r2
 8002934:	d018      	beq.n	8002968 <HAL_DMA_IRQHandler+0x64>
 8002936:	3214      	adds	r2, #20
 8002938:	4293      	cmp	r3, r2
 800293a:	d017      	beq.n	800296c <HAL_DMA_IRQHandler+0x68>
 800293c:	3214      	adds	r2, #20
 800293e:	4293      	cmp	r3, r2
 8002940:	d017      	beq.n	8002972 <HAL_DMA_IRQHandler+0x6e>
 8002942:	3214      	adds	r2, #20
 8002944:	4293      	cmp	r3, r2
 8002946:	d017      	beq.n	8002978 <HAL_DMA_IRQHandler+0x74>
 8002948:	3214      	adds	r2, #20
 800294a:	4293      	cmp	r3, r2
 800294c:	bf0c      	ite	eq
 800294e:	f44f 0380 	moveq.w	r3, #4194304	; 0x400000
 8002952:	f04f 6380 	movne.w	r3, #67108864	; 0x4000000
 8002956:	4a33      	ldr	r2, [pc, #204]	; (8002a24 <HAL_DMA_IRQHandler+0x120>)
 8002958:	6053      	str	r3, [r2, #4]
 800295a:	6ac3      	ldr	r3, [r0, #44]	; 0x2c
 800295c:	2b00      	cmp	r3, #0
 800295e:	d05c      	beq.n	8002a1a <HAL_DMA_IRQHandler+0x116>
 8002960:	bc70      	pop	{r4, r5, r6}
 8002962:	4718      	bx	r3
 8002964:	2304      	movs	r3, #4
 8002966:	e7f6      	b.n	8002956 <HAL_DMA_IRQHandler+0x52>
 8002968:	2340      	movs	r3, #64	; 0x40
 800296a:	e7f4      	b.n	8002956 <HAL_DMA_IRQHandler+0x52>
 800296c:	f44f 6380 	mov.w	r3, #1024	; 0x400
 8002970:	e7f1      	b.n	8002956 <HAL_DMA_IRQHandler+0x52>
 8002972:	f44f 4380 	mov.w	r3, #16384	; 0x4000
 8002976:	e7ee      	b.n	8002956 <HAL_DMA_IRQHandler+0x52>
 8002978:	f44f 2380 	mov.w	r3, #262144	; 0x40000
 800297c:	e7eb      	b.n	8002956 <HAL_DMA_IRQHandler+0x52>
 800297e:	2502      	movs	r5, #2
 8002980:	4095      	lsls	r5, r2
 8002982:	4225      	tst	r5, r4
 8002984:	d035      	beq.n	80029f2 <HAL_DMA_IRQHandler+0xee>
 8002986:	078d      	lsls	r5, r1, #30
 8002988:	d533      	bpl.n	80029f2 <HAL_DMA_IRQHandler+0xee>
 800298a:	681a      	ldr	r2, [r3, #0]
 800298c:	0694      	lsls	r4, r2, #26
 800298e:	d406      	bmi.n	800299e <HAL_DMA_IRQHandler+0x9a>
 8002990:	681a      	ldr	r2, [r3, #0]
 8002992:	f022 020a 	bic.w	r2, r2, #10
 8002996:	601a      	str	r2, [r3, #0]
 8002998:	2201      	movs	r2, #1
 800299a:	f880 2021 	strb.w	r2, [r0, #33]	; 0x21
 800299e:	4a20      	ldr	r2, [pc, #128]	; (8002a20 <HAL_DMA_IRQHandler+0x11c>)
 80029a0:	4293      	cmp	r3, r2
 80029a2:	d019      	beq.n	80029d8 <HAL_DMA_IRQHandler+0xd4>
 80029a4:	3214      	adds	r2, #20
 80029a6:	4293      	cmp	r3, r2
 80029a8:	d018      	beq.n	80029dc <HAL_DMA_IRQHandler+0xd8>
 80029aa:	3214      	adds	r2, #20
 80029ac:	4293      	cmp	r3, r2
 80029ae:	d017      	beq.n	80029e0 <HAL_DMA_IRQHandler+0xdc>
 80029b0:	3214      	adds	r2, #20
 80029b2:	4293      	cmp	r3, r2
 80029b4:	d017      	beq.n	80029e6 <HAL_DMA_IRQHandler+0xe2>
 80029b6:	3214      	adds	r2, #20
 80029b8:	4293      	cmp	r3, r2
 80029ba:	d017      	beq.n	80029ec <HAL_DMA_IRQHandler+0xe8>
 80029bc:	3214      	adds	r2, #20
 80029be:	4293      	cmp	r3, r2
 80029c0:	bf0c      	ite	eq
 80029c2:	f44f 1300 	moveq.w	r3, #2097152	; 0x200000
 80029c6:	f04f 7300 	movne.w	r3, #33554432	; 0x2000000
 80029ca:	4a16      	ldr	r2, [pc, #88]	; (8002a24 <HAL_DMA_IRQHandler+0x120>)
 80029cc:	6053      	str	r3, [r2, #4]
 80029ce:	2300      	movs	r3, #0
 80029d0:	f880 3020 	strb.w	r3, [r0, #32]
 80029d4:	6a83      	ldr	r3, [r0, #40]	; 0x28
 80029d6:	e7c1      	b.n	800295c <HAL_DMA_IRQHandler+0x58>
 80029d8:	2302      	movs	r3, #2
 80029da:	e7f6      	b.n	80029ca <HAL_DMA_IRQHandler+0xc6>
 80029dc:	2320      	movs	r3, #32
 80029de:	e7f4      	b.n	80029ca <HAL_DMA_IRQHandler+0xc6>
 80029e0:	f44f 7300 	mov.w	r3, #512	; 0x200
 80029e4:	e7f1      	b.n	80029ca <HAL_DMA_IRQHandler+0xc6>
 80029e6:	f44f 5300 	mov.w	r3, #8192	; 0x2000
 80029ea:	e7ee      	b.n	80029ca <HAL_DMA_IRQHandler+0xc6>
 80029ec:	f44f 3300 	mov.w	r3, #131072	; 0x20000
 80029f0:	e7eb      	b.n	80029ca <HAL_DMA_IRQHandler+0xc6>
 80029f2:	2508      	movs	r5, #8
 80029f4:	4095      	lsls	r5, r2
 80029f6:	4225      	tst	r5, r4
 80029f8:	d00f      	beq.n	8002a1a <HAL_DMA_IRQHandler+0x116>
 80029fa:	0709      	lsls	r1, r1, #28
 80029fc:	d50d      	bpl.n	8002a1a <HAL_DMA_IRQHandler+0x116>
 80029fe:	6819      	ldr	r1, [r3, #0]
 8002a00:	f021 010e 	bic.w	r1, r1, #14
 8002a04:	6019      	str	r1, [r3, #0]
 8002a06:	2301      	movs	r3, #1
 8002a08:	fa03 f202 	lsl.w	r2, r3, r2
 8002a0c:	6072      	str	r2, [r6, #4]
 8002a0e:	6383      	str	r3, [r0, #56]	; 0x38
 8002a10:	f44f 7380 	mov.w	r3, #256	; 0x100
 8002a14:	8403      	strh	r3, [r0, #32]
 8002a16:	6b03      	ldr	r3, [r0, #48]	; 0x30
 8002a18:	e7a0      	b.n	800295c <HAL_DMA_IRQHandler+0x58>
 8002a1a:	bc70      	pop	{r4, r5, r6}
 8002a1c:	4770      	bx	lr
 8002a1e:	bf00      	nop
 8002a20:	40020008 	.word	0x40020008
 8002a24:	40020000 	.word	0x40020000

08002a28 <HAL_DMA_GetState>:
 8002a28:	f890 0021 	ldrb.w	r0, [r0, #33]	; 0x21
 8002a2c:	4770      	bx	lr
	...

08002a30 <HAL_GPIO_Init>:
 8002a30:	e92d 4ff7 	stmdb	sp!, {r0, r1, r2, r4, r5, r6, r7, r8, r9, sl, fp, lr}
 8002a34:	2200      	movs	r2, #0
 8002a36:	4616      	mov	r6, r2
 8002a38:	4b64      	ldr	r3, [pc, #400]	; (8002bcc <HAL_GPIO_Init+0x19c>)
 8002a3a:	f8df c1a0 	ldr.w	ip, [pc, #416]	; 8002bdc <HAL_GPIO_Init+0x1ac>
 8002a3e:	f8df e1a0 	ldr.w	lr, [pc, #416]	; 8002be0 <HAL_GPIO_Init+0x1b0>
 8002a42:	680d      	ldr	r5, [r1, #0]
 8002a44:	fa35 f406 	lsrs.w	r4, r5, r6
 8002a48:	d102      	bne.n	8002a50 <HAL_GPIO_Init+0x20>
 8002a4a:	b003      	add	sp, #12
 8002a4c:	e8bd 8ff0 	ldmia.w	sp!, {r4, r5, r6, r7, r8, r9, sl, fp, pc}
 8002a50:	f04f 0801 	mov.w	r8, #1
 8002a54:	fa08 f806 	lsl.w	r8, r8, r6
 8002a58:	ea05 0408 	and.w	r4, r5, r8
 8002a5c:	ea38 0505 	bics.w	r5, r8, r5
 8002a60:	d17c      	bne.n	8002b5c <HAL_GPIO_Init+0x12c>
 8002a62:	684d      	ldr	r5, [r1, #4]
 8002a64:	2d03      	cmp	r5, #3
 8002a66:	d807      	bhi.n	8002a78 <HAL_GPIO_Init+0x48>
 8002a68:	3d01      	subs	r5, #1
 8002a6a:	2d02      	cmp	r5, #2
 8002a6c:	f200 8088 	bhi.w	8002b80 <HAL_GPIO_Init+0x150>
 8002a70:	e8df f005 	tbb	[pc, r5]
 8002a74:	9b96      	.short	0x9b96
 8002a76:	a1          	.byte	0xa1
 8002a77:	00          	.byte	0x00
 8002a78:	2d12      	cmp	r5, #18
 8002a7a:	f000 8099 	beq.w	8002bb0 <HAL_GPIO_Init+0x180>
 8002a7e:	d86f      	bhi.n	8002b60 <HAL_GPIO_Init+0x130>
 8002a80:	2d11      	cmp	r5, #17
 8002a82:	f000 808f 	beq.w	8002ba4 <HAL_GPIO_Init+0x174>
 8002a86:	2cff      	cmp	r4, #255	; 0xff
 8002a88:	bf98      	it	ls
 8002a8a:	4682      	movls	sl, r0
 8002a8c:	f04f 090f 	mov.w	r9, #15
 8002a90:	bf88      	it	hi
 8002a92:	f100 0a04 	addhi.w	sl, r0, #4
 8002a96:	ea4f 0586 	mov.w	r5, r6, lsl #2
 8002a9a:	f8da 8000 	ldr.w	r8, [sl]
 8002a9e:	bf88      	it	hi
 8002aa0:	3d20      	subhi	r5, #32
 8002aa2:	fa09 fb05 	lsl.w	fp, r9, r5
 8002aa6:	ea28 080b 	bic.w	r8, r8, fp
 8002aaa:	fa02 f505 	lsl.w	r5, r2, r5
 8002aae:	ea48 0505 	orr.w	r5, r8, r5
 8002ab2:	f8ca 5000 	str.w	r5, [sl]
 8002ab6:	f8d1 a004 	ldr.w	sl, [r1, #4]
 8002aba:	f01a 5f80 	tst.w	sl, #268435456	; 0x10000000
 8002abe:	d04d      	beq.n	8002b5c <HAL_GPIO_Init+0x12c>
 8002ac0:	4f43      	ldr	r7, [pc, #268]	; (8002bd0 <HAL_GPIO_Init+0x1a0>)
 8002ac2:	f026 0803 	bic.w	r8, r6, #3
 8002ac6:	69bd      	ldr	r5, [r7, #24]
 8002ac8:	f108 4880 	add.w	r8, r8, #1073741824	; 0x40000000
 8002acc:	f045 0501 	orr.w	r5, r5, #1
 8002ad0:	61bd      	str	r5, [r7, #24]
 8002ad2:	69bd      	ldr	r5, [r7, #24]
 8002ad4:	f508 3880 	add.w	r8, r8, #65536	; 0x10000
 8002ad8:	f005 0501 	and.w	r5, r5, #1
 8002adc:	9501      	str	r5, [sp, #4]
 8002ade:	f006 0b03 	and.w	fp, r6, #3
 8002ae2:	9d01      	ldr	r5, [sp, #4]
 8002ae4:	ea4f 0b8b 	mov.w	fp, fp, lsl #2
 8002ae8:	f8d8 5008 	ldr.w	r5, [r8, #8]
 8002aec:	fa09 f90b 	lsl.w	r9, r9, fp
 8002af0:	ea25 0909 	bic.w	r9, r5, r9
 8002af4:	4d37      	ldr	r5, [pc, #220]	; (8002bd4 <HAL_GPIO_Init+0x1a4>)
 8002af6:	42a8      	cmp	r0, r5
 8002af8:	d061      	beq.n	8002bbe <HAL_GPIO_Init+0x18e>
 8002afa:	f505 6580 	add.w	r5, r5, #1024	; 0x400
 8002afe:	42a8      	cmp	r0, r5
 8002b00:	d05f      	beq.n	8002bc2 <HAL_GPIO_Init+0x192>
 8002b02:	f505 6580 	add.w	r5, r5, #1024	; 0x400
 8002b06:	42a8      	cmp	r0, r5
 8002b08:	d05d      	beq.n	8002bc6 <HAL_GPIO_Init+0x196>
 8002b0a:	f505 6580 	add.w	r5, r5, #1024	; 0x400
 8002b0e:	42a8      	cmp	r0, r5
 8002b10:	bf0c      	ite	eq
 8002b12:	2503      	moveq	r5, #3
 8002b14:	2504      	movne	r5, #4
 8002b16:	fa05 f50b 	lsl.w	r5, r5, fp
 8002b1a:	ea45 0509 	orr.w	r5, r5, r9
 8002b1e:	f8c8 5008 	str.w	r5, [r8, #8]
 8002b22:	681d      	ldr	r5, [r3, #0]
 8002b24:	f41a 3f80 	tst.w	sl, #65536	; 0x10000
 8002b28:	bf14      	ite	ne
 8002b2a:	4325      	orrne	r5, r4
 8002b2c:	43a5      	biceq	r5, r4
 8002b2e:	601d      	str	r5, [r3, #0]
 8002b30:	685d      	ldr	r5, [r3, #4]
 8002b32:	f41a 3f00 	tst.w	sl, #131072	; 0x20000
 8002b36:	bf14      	ite	ne
 8002b38:	4325      	orrne	r5, r4
 8002b3a:	43a5      	biceq	r5, r4
 8002b3c:	605d      	str	r5, [r3, #4]
 8002b3e:	689d      	ldr	r5, [r3, #8]
 8002b40:	f41a 1f80 	tst.w	sl, #1048576	; 0x100000
 8002b44:	bf14      	ite	ne
 8002b46:	4325      	orrne	r5, r4
 8002b48:	43a5      	biceq	r5, r4
 8002b4a:	609d      	str	r5, [r3, #8]
 8002b4c:	68dd      	ldr	r5, [r3, #12]
 8002b4e:	f41a 1f00 	tst.w	sl, #2097152	; 0x200000
 8002b52:	bf14      	ite	ne
 8002b54:	432c      	orrne	r4, r5
 8002b56:	ea25 0404 	biceq.w	r4, r5, r4
 8002b5a:	60dc      	str	r4, [r3, #12]
 8002b5c:	3601      	adds	r6, #1
 8002b5e:	e770      	b.n	8002a42 <HAL_GPIO_Init+0x12>
 8002b60:	4f1d      	ldr	r7, [pc, #116]	; (8002bd8 <HAL_GPIO_Init+0x1a8>)
 8002b62:	42bd      	cmp	r5, r7
 8002b64:	d00c      	beq.n	8002b80 <HAL_GPIO_Init+0x150>
 8002b66:	d817      	bhi.n	8002b98 <HAL_GPIO_Init+0x168>
 8002b68:	f8df 9078 	ldr.w	r9, [pc, #120]	; 8002be4 <HAL_GPIO_Init+0x1b4>
 8002b6c:	454d      	cmp	r5, r9
 8002b6e:	d007      	beq.n	8002b80 <HAL_GPIO_Init+0x150>
 8002b70:	f509 2970 	add.w	r9, r9, #983040	; 0xf0000
 8002b74:	454d      	cmp	r5, r9
 8002b76:	d003      	beq.n	8002b80 <HAL_GPIO_Init+0x150>
 8002b78:	f5a9 1980 	sub.w	r9, r9, #1048576	; 0x100000
 8002b7c:	454d      	cmp	r5, r9
 8002b7e:	d182      	bne.n	8002a86 <HAL_GPIO_Init+0x56>
 8002b80:	688a      	ldr	r2, [r1, #8]
 8002b82:	b1d2      	cbz	r2, 8002bba <HAL_GPIO_Init+0x18a>
 8002b84:	2a01      	cmp	r2, #1
 8002b86:	bf08      	it	eq
 8002b88:	f8c0 8010 	streq.w	r8, [r0, #16]
 8002b8c:	f04f 0208 	mov.w	r2, #8
 8002b90:	bf18      	it	ne
 8002b92:	f8c0 8014 	strne.w	r8, [r0, #20]
 8002b96:	e776      	b.n	8002a86 <HAL_GPIO_Init+0x56>
 8002b98:	4565      	cmp	r5, ip
 8002b9a:	d0f1      	beq.n	8002b80 <HAL_GPIO_Init+0x150>
 8002b9c:	4575      	cmp	r5, lr
 8002b9e:	e7ee      	b.n	8002b7e <HAL_GPIO_Init+0x14e>
 8002ba0:	68ca      	ldr	r2, [r1, #12]
 8002ba2:	e770      	b.n	8002a86 <HAL_GPIO_Init+0x56>
 8002ba4:	68ca      	ldr	r2, [r1, #12]
 8002ba6:	3204      	adds	r2, #4
 8002ba8:	e76d      	b.n	8002a86 <HAL_GPIO_Init+0x56>
 8002baa:	68ca      	ldr	r2, [r1, #12]
 8002bac:	3208      	adds	r2, #8
 8002bae:	e76a      	b.n	8002a86 <HAL_GPIO_Init+0x56>
 8002bb0:	68ca      	ldr	r2, [r1, #12]
 8002bb2:	320c      	adds	r2, #12
 8002bb4:	e767      	b.n	8002a86 <HAL_GPIO_Init+0x56>
 8002bb6:	2200      	movs	r2, #0
 8002bb8:	e765      	b.n	8002a86 <HAL_GPIO_Init+0x56>
 8002bba:	2204      	movs	r2, #4
 8002bbc:	e763      	b.n	8002a86 <HAL_GPIO_Init+0x56>
 8002bbe:	2500      	movs	r5, #0
 8002bc0:	e7a9      	b.n	8002b16 <HAL_GPIO_Init+0xe6>
 8002bc2:	2501      	movs	r5, #1
 8002bc4:	e7a7      	b.n	8002b16 <HAL_GPIO_Init+0xe6>
 8002bc6:	2502      	movs	r5, #2
 8002bc8:	e7a5      	b.n	8002b16 <HAL_GPIO_Init+0xe6>
 8002bca:	bf00      	nop
 8002bcc:	40010400 	.word	0x40010400
 8002bd0:	40021000 	.word	0x40021000
 8002bd4:	40010800 	.word	0x40010800
 8002bd8:	10220000 	.word	0x10220000
 8002bdc:	10310000 	.word	0x10310000
 8002be0:	10320000 	.word	0x10320000
 8002be4:	10120000 	.word	0x10120000

08002be8 <HAL_GPIO_WritePin>:
 8002be8:	b10a      	cbz	r2, 8002bee <HAL_GPIO_WritePin+0x6>
 8002bea:	6101      	str	r1, [r0, #16]
 8002bec:	4770      	bx	lr
 8002bee:	0409      	lsls	r1, r1, #16
 8002bf0:	e7fb      	b.n	8002bea <HAL_GPIO_WritePin+0x2>

08002bf2 <HAL_GPIO_TogglePin>:
 8002bf2:	68c3      	ldr	r3, [r0, #12]
 8002bf4:	ea01 0203 	and.w	r2, r1, r3
 8002bf8:	ea21 0103 	bic.w	r1, r1, r3
 8002bfc:	ea41 4102 	orr.w	r1, r1, r2, lsl #16
 8002c00:	6101      	str	r1, [r0, #16]
 8002c02:	4770      	bx	lr

08002c04 <I2C_IsAcknowledgeFailed>:
 8002c04:	6801      	ldr	r1, [r0, #0]
 8002c06:	2200      	movs	r2, #0
 8002c08:	694b      	ldr	r3, [r1, #20]
 8002c0a:	f413 6380 	ands.w	r3, r3, #1024	; 0x400
 8002c0e:	d010      	beq.n	8002c32 <I2C_IsAcknowledgeFailed+0x2e>
 8002c10:	f46f 6380 	mvn.w	r3, #1024	; 0x400
 8002c14:	614b      	str	r3, [r1, #20]
 8002c16:	2320      	movs	r3, #32
 8002c18:	6302      	str	r2, [r0, #48]	; 0x30
 8002c1a:	f880 303d 	strb.w	r3, [r0, #61]	; 0x3d
 8002c1e:	f880 203e 	strb.w	r2, [r0, #62]	; 0x3e
 8002c22:	6c03      	ldr	r3, [r0, #64]	; 0x40
 8002c24:	f880 203c 	strb.w	r2, [r0, #60]	; 0x3c
 8002c28:	f043 0304 	orr.w	r3, r3, #4
 8002c2c:	6403      	str	r3, [r0, #64]	; 0x40
 8002c2e:	2001      	movs	r0, #1
 8002c30:	4770      	bx	lr
 8002c32:	4618      	mov	r0, r3
 8002c34:	4770      	bx	lr

08002c36 <I2C_WaitOnMasterAddressFlagUntilTimeout>:
 8002c36:	e92d 41f0 	stmdb	sp!, {r4, r5, r6, r7, r8, lr}
 8002c3a:	4604      	mov	r4, r0
 8002c3c:	460f      	mov	r7, r1
 8002c3e:	4616      	mov	r6, r2
 8002c40:	4698      	mov	r8, r3
 8002c42:	6825      	ldr	r5, [r4, #0]
 8002c44:	6968      	ldr	r0, [r5, #20]
 8002c46:	ea27 0000 	bic.w	r0, r7, r0
 8002c4a:	b280      	uxth	r0, r0
 8002c4c:	b1b8      	cbz	r0, 8002c7e <I2C_WaitOnMasterAddressFlagUntilTimeout+0x48>
 8002c4e:	696b      	ldr	r3, [r5, #20]
 8002c50:	055a      	lsls	r2, r3, #21
 8002c52:	d516      	bpl.n	8002c82 <I2C_WaitOnMasterAddressFlagUntilTimeout+0x4c>
 8002c54:	682b      	ldr	r3, [r5, #0]
 8002c56:	2220      	movs	r2, #32
 8002c58:	f443 7300 	orr.w	r3, r3, #512	; 0x200
 8002c5c:	602b      	str	r3, [r5, #0]
 8002c5e:	f46f 6380 	mvn.w	r3, #1024	; 0x400
 8002c62:	616b      	str	r3, [r5, #20]
 8002c64:	2300      	movs	r3, #0
 8002c66:	6323      	str	r3, [r4, #48]	; 0x30
 8002c68:	f884 203d 	strb.w	r2, [r4, #61]	; 0x3d
 8002c6c:	f884 303e 	strb.w	r3, [r4, #62]	; 0x3e
 8002c70:	6c22      	ldr	r2, [r4, #64]	; 0x40
 8002c72:	f042 0204 	orr.w	r2, r2, #4
 8002c76:	2001      	movs	r0, #1
 8002c78:	6422      	str	r2, [r4, #64]	; 0x40
 8002c7a:	f884 303c 	strb.w	r3, [r4, #60]	; 0x3c
 8002c7e:	e8bd 81f0 	ldmia.w	sp!, {r4, r5, r6, r7, r8, pc}
 8002c82:	1c73      	adds	r3, r6, #1
 8002c84:	d0de      	beq.n	8002c44 <I2C_WaitOnMasterAddressFlagUntilTimeout+0xe>
 8002c86:	f7ff f9fd 	bl	8002084 <HAL_GetTick>
 8002c8a:	eba0 0008 	sub.w	r0, r0, r8
 8002c8e:	42b0      	cmp	r0, r6
 8002c90:	d801      	bhi.n	8002c96 <I2C_WaitOnMasterAddressFlagUntilTimeout+0x60>
 8002c92:	2e00      	cmp	r6, #0
 8002c94:	d1d5      	bne.n	8002c42 <I2C_WaitOnMasterAddressFlagUntilTimeout+0xc>
 8002c96:	2300      	movs	r3, #0
 8002c98:	2220      	movs	r2, #32
 8002c9a:	6323      	str	r3, [r4, #48]	; 0x30
 8002c9c:	f884 203d 	strb.w	r2, [r4, #61]	; 0x3d
 8002ca0:	f884 303e 	strb.w	r3, [r4, #62]	; 0x3e
 8002ca4:	6c22      	ldr	r2, [r4, #64]	; 0x40
 8002ca6:	f042 0220 	orr.w	r2, r2, #32
 8002caa:	e7e4      	b.n	8002c76 <I2C_WaitOnMasterAddressFlagUntilTimeout+0x40>

08002cac <I2C_WaitOnBTFFlagUntilTimeout>:
 8002cac:	b570      	push	{r4, r5, r6, lr}
 8002cae:	4604      	mov	r4, r0
 8002cb0:	460d      	mov	r5, r1
 8002cb2:	4616      	mov	r6, r2
 8002cb4:	6823      	ldr	r3, [r4, #0]
 8002cb6:	695b      	ldr	r3, [r3, #20]
 8002cb8:	075b      	lsls	r3, r3, #29
 8002cba:	d501      	bpl.n	8002cc0 <I2C_WaitOnBTFFlagUntilTimeout+0x14>
 8002cbc:	2000      	movs	r0, #0
 8002cbe:	bd70      	pop	{r4, r5, r6, pc}
 8002cc0:	4620      	mov	r0, r4
 8002cc2:	f7ff ff9f 	bl	8002c04 <I2C_IsAcknowledgeFailed>
 8002cc6:	b9a8      	cbnz	r0, 8002cf4 <I2C_WaitOnBTFFlagUntilTimeout+0x48>
 8002cc8:	1c6a      	adds	r2, r5, #1
 8002cca:	d0f3      	beq.n	8002cb4 <I2C_WaitOnBTFFlagUntilTimeout+0x8>
 8002ccc:	f7ff f9da 	bl	8002084 <HAL_GetTick>
 8002cd0:	1b80      	subs	r0, r0, r6
 8002cd2:	42a8      	cmp	r0, r5
 8002cd4:	d801      	bhi.n	8002cda <I2C_WaitOnBTFFlagUntilTimeout+0x2e>
 8002cd6:	2d00      	cmp	r5, #0
 8002cd8:	d1ec      	bne.n	8002cb4 <I2C_WaitOnBTFFlagUntilTimeout+0x8>
 8002cda:	2300      	movs	r3, #0
 8002cdc:	2220      	movs	r2, #32
 8002cde:	6323      	str	r3, [r4, #48]	; 0x30
 8002ce0:	f884 203d 	strb.w	r2, [r4, #61]	; 0x3d
 8002ce4:	f884 303e 	strb.w	r3, [r4, #62]	; 0x3e
 8002ce8:	6c22      	ldr	r2, [r4, #64]	; 0x40
 8002cea:	f884 303c 	strb.w	r3, [r4, #60]	; 0x3c
 8002cee:	f042 0220 	orr.w	r2, r2, #32
 8002cf2:	6422      	str	r2, [r4, #64]	; 0x40
 8002cf4:	2001      	movs	r0, #1
 8002cf6:	e7e2      	b.n	8002cbe <I2C_WaitOnBTFFlagUntilTimeout+0x12>

08002cf8 <I2C_WaitOnFlagUntilTimeout>:
 8002cf8:	e92d 46f8 	stmdb	sp!, {r3, r4, r5, r6, r7, r9, sl, lr}
 8002cfc:	4606      	mov	r6, r0
 8002cfe:	460f      	mov	r7, r1
 8002d00:	4691      	mov	r9, r2
 8002d02:	461d      	mov	r5, r3
 8002d04:	ea4f 4a11 	mov.w	sl, r1, lsr #16
 8002d08:	6833      	ldr	r3, [r6, #0]
 8002d0a:	f1ba 0f01 	cmp.w	sl, #1
 8002d0e:	bf0c      	ite	eq
 8002d10:	695c      	ldreq	r4, [r3, #20]
 8002d12:	699c      	ldrne	r4, [r3, #24]
 8002d14:	ea27 0404 	bic.w	r4, r7, r4
 8002d18:	b2a4      	uxth	r4, r4
 8002d1a:	fab4 f484 	clz	r4, r4
 8002d1e:	0964      	lsrs	r4, r4, #5
 8002d20:	45a1      	cmp	r9, r4
 8002d22:	d001      	beq.n	8002d28 <I2C_WaitOnFlagUntilTimeout+0x30>
 8002d24:	2000      	movs	r0, #0
 8002d26:	e017      	b.n	8002d58 <I2C_WaitOnFlagUntilTimeout+0x60>
 8002d28:	1c6a      	adds	r2, r5, #1
 8002d2a:	d0ee      	beq.n	8002d0a <I2C_WaitOnFlagUntilTimeout+0x12>
 8002d2c:	f7ff f9aa 	bl	8002084 <HAL_GetTick>
 8002d30:	9b08      	ldr	r3, [sp, #32]
 8002d32:	1ac0      	subs	r0, r0, r3
 8002d34:	42a8      	cmp	r0, r5
 8002d36:	d801      	bhi.n	8002d3c <I2C_WaitOnFlagUntilTimeout+0x44>
 8002d38:	2d00      	cmp	r5, #0
 8002d3a:	d1e5      	bne.n	8002d08 <I2C_WaitOnFlagUntilTimeout+0x10>
 8002d3c:	2300      	movs	r3, #0
 8002d3e:	2220      	movs	r2, #32
 8002d40:	2001      	movs	r0, #1
 8002d42:	6333      	str	r3, [r6, #48]	; 0x30
 8002d44:	f886 203d 	strb.w	r2, [r6, #61]	; 0x3d
 8002d48:	f886 303e 	strb.w	r3, [r6, #62]	; 0x3e
 8002d4c:	6c32      	ldr	r2, [r6, #64]	; 0x40
 8002d4e:	f886 303c 	strb.w	r3, [r6, #60]	; 0x3c
 8002d52:	f042 0220 	orr.w	r2, r2, #32
 8002d56:	6432      	str	r2, [r6, #64]	; 0x40
 8002d58:	e8bd 86f8 	ldmia.w	sp!, {r3, r4, r5, r6, r7, r9, sl, pc}

08002d5c <I2C_WaitOnTXEFlagUntilTimeout>:
 8002d5c:	b570      	push	{r4, r5, r6, lr}
 8002d5e:	4604      	mov	r4, r0
 8002d60:	460d      	mov	r5, r1
 8002d62:	4616      	mov	r6, r2
 8002d64:	6823      	ldr	r3, [r4, #0]
 8002d66:	695b      	ldr	r3, [r3, #20]
 8002d68:	061b      	lsls	r3, r3, #24
 8002d6a:	d501      	bpl.n	8002d70 <I2C_WaitOnTXEFlagUntilTimeout+0x14>
 8002d6c:	2000      	movs	r0, #0
 8002d6e:	bd70      	pop	{r4, r5, r6, pc}
 8002d70:	4620      	mov	r0, r4
 8002d72:	f7ff ff47 	bl	8002c04 <I2C_IsAcknowledgeFailed>
 8002d76:	b9a8      	cbnz	r0, 8002da4 <I2C_WaitOnTXEFlagUntilTimeout+0x48>
 8002d78:	1c6a      	adds	r2, r5, #1
 8002d7a:	d0f3      	beq.n	8002d64 <I2C_WaitOnTXEFlagUntilTimeout+0x8>
 8002d7c:	f7ff f982 	bl	8002084 <HAL_GetTick>
 8002d80:	1b80      	subs	r0, r0, r6
 8002d82:	42a8      	cmp	r0, r5
 8002d84:	d801      	bhi.n	8002d8a <I2C_WaitOnTXEFlagUntilTimeout+0x2e>
 8002d86:	2d00      	cmp	r5, #0
 8002d88:	d1ec      	bne.n	8002d64 <I2C_WaitOnTXEFlagUntilTimeout+0x8>
 8002d8a:	2300      	movs	r3, #0
 8002d8c:	2220      	movs	r2, #32
 8002d8e:	6323      	str	r3, [r4, #48]	; 0x30
 8002d90:	f884 203d 	strb.w	r2, [r4, #61]	; 0x3d
 8002d94:	f884 303e 	strb.w	r3, [r4, #62]	; 0x3e
 8002d98:	6c22      	ldr	r2, [r4, #64]	; 0x40
 8002d9a:	f884 303c 	strb.w	r3, [r4, #60]	; 0x3c
 8002d9e:	f042 0220 	orr.w	r2, r2, #32
 8002da2:	6422      	str	r2, [r4, #64]	; 0x40
 8002da4:	2001      	movs	r0, #1
 8002da6:	e7e2      	b.n	8002d6e <I2C_WaitOnTXEFlagUntilTimeout+0x12>

08002da8 <I2C_RequestMemoryWrite>:
 8002da8:	e92d 43f0 	stmdb	sp!, {r4, r5, r6, r7, r8, r9, lr}
 8002dac:	4615      	mov	r5, r2
 8002dae:	6802      	ldr	r2, [r0, #0]
 8002db0:	4699      	mov	r9, r3
 8002db2:	6813      	ldr	r3, [r2, #0]
 8002db4:	b085      	sub	sp, #20
 8002db6:	f443 7380 	orr.w	r3, r3, #256	; 0x100
 8002dba:	6013      	str	r3, [r2, #0]
 8002dbc:	e9dd 780c 	ldrd	r7, r8, [sp, #48]	; 0x30
 8002dc0:	460e      	mov	r6, r1
 8002dc2:	463b      	mov	r3, r7
 8002dc4:	2200      	movs	r2, #0
 8002dc6:	f04f 1101 	mov.w	r1, #65537	; 0x10001
 8002dca:	f8cd 8000 	str.w	r8, [sp]
 8002dce:	4604      	mov	r4, r0
 8002dd0:	f7ff ff92 	bl	8002cf8 <I2C_WaitOnFlagUntilTimeout>
 8002dd4:	6823      	ldr	r3, [r4, #0]
 8002dd6:	b138      	cbz	r0, 8002de8 <I2C_RequestMemoryWrite+0x40>
 8002dd8:	681b      	ldr	r3, [r3, #0]
 8002dda:	05db      	lsls	r3, r3, #23
 8002ddc:	d502      	bpl.n	8002de4 <I2C_RequestMemoryWrite+0x3c>
 8002dde:	f44f 7300 	mov.w	r3, #512	; 0x200
 8002de2:	6423      	str	r3, [r4, #64]	; 0x40
 8002de4:	2003      	movs	r0, #3
 8002de6:	e00a      	b.n	8002dfe <I2C_RequestMemoryWrite+0x56>
 8002de8:	f006 06fe 	and.w	r6, r6, #254	; 0xfe
 8002dec:	611e      	str	r6, [r3, #16]
 8002dee:	463a      	mov	r2, r7
 8002df0:	4643      	mov	r3, r8
 8002df2:	4620      	mov	r0, r4
 8002df4:	4917      	ldr	r1, [pc, #92]	; (8002e54 <I2C_RequestMemoryWrite+0xac>)
 8002df6:	f7ff ff1e 	bl	8002c36 <I2C_WaitOnMasterAddressFlagUntilTimeout>
 8002dfa:	b118      	cbz	r0, 8002e04 <I2C_RequestMemoryWrite+0x5c>
 8002dfc:	2001      	movs	r0, #1
 8002dfe:	b005      	add	sp, #20
 8002e00:	e8bd 83f0 	ldmia.w	sp!, {r4, r5, r6, r7, r8, r9, pc}
 8002e04:	6823      	ldr	r3, [r4, #0]
 8002e06:	9003      	str	r0, [sp, #12]
 8002e08:	695a      	ldr	r2, [r3, #20]
 8002e0a:	4639      	mov	r1, r7
 8002e0c:	9203      	str	r2, [sp, #12]
 8002e0e:	699b      	ldr	r3, [r3, #24]
 8002e10:	4642      	mov	r2, r8
 8002e12:	9303      	str	r3, [sp, #12]
 8002e14:	4620      	mov	r0, r4
 8002e16:	9b03      	ldr	r3, [sp, #12]
 8002e18:	f7ff ffa0 	bl	8002d5c <I2C_WaitOnTXEFlagUntilTimeout>
 8002e1c:	b140      	cbz	r0, 8002e30 <I2C_RequestMemoryWrite+0x88>
 8002e1e:	6c23      	ldr	r3, [r4, #64]	; 0x40
 8002e20:	2b04      	cmp	r3, #4
 8002e22:	bf01      	itttt	eq
 8002e24:	6822      	ldreq	r2, [r4, #0]
 8002e26:	6813      	ldreq	r3, [r2, #0]
 8002e28:	f443 7300 	orreq.w	r3, r3, #512	; 0x200
 8002e2c:	6013      	streq	r3, [r2, #0]
 8002e2e:	e7e5      	b.n	8002dfc <I2C_RequestMemoryWrite+0x54>
 8002e30:	f1b9 0f01 	cmp.w	r9, #1
 8002e34:	6823      	ldr	r3, [r4, #0]
 8002e36:	d102      	bne.n	8002e3e <I2C_RequestMemoryWrite+0x96>
 8002e38:	b2ed      	uxtb	r5, r5
 8002e3a:	611d      	str	r5, [r3, #16]
 8002e3c:	e7df      	b.n	8002dfe <I2C_RequestMemoryWrite+0x56>
 8002e3e:	0a2a      	lsrs	r2, r5, #8
 8002e40:	611a      	str	r2, [r3, #16]
 8002e42:	4639      	mov	r1, r7
 8002e44:	4642      	mov	r2, r8
 8002e46:	4620      	mov	r0, r4
 8002e48:	f7ff ff88 	bl	8002d5c <I2C_WaitOnTXEFlagUntilTimeout>
 8002e4c:	2800      	cmp	r0, #0
 8002e4e:	d1e6      	bne.n	8002e1e <I2C_RequestMemoryWrite+0x76>
 8002e50:	6823      	ldr	r3, [r4, #0]
 8002e52:	e7f1      	b.n	8002e38 <I2C_RequestMemoryWrite+0x90>
 8002e54:	00010002 	.word	0x00010002

08002e58 <HAL_I2C_Init>:
 8002e58:	b570      	push	{r4, r5, r6, lr}
 8002e5a:	4604      	mov	r4, r0
 8002e5c:	b908      	cbnz	r0, 8002e62 <HAL_I2C_Init+0xa>
 8002e5e:	2001      	movs	r0, #1
 8002e60:	bd70      	pop	{r4, r5, r6, pc}
 8002e62:	f890 303d 	ldrb.w	r3, [r0, #61]	; 0x3d
 8002e66:	f003 02ff 	and.w	r2, r3, #255	; 0xff
 8002e6a:	b91b      	cbnz	r3, 8002e74 <HAL_I2C_Init+0x1c>
 8002e6c:	f880 203c 	strb.w	r2, [r0, #60]	; 0x3c
 8002e70:	f002 f978 	bl	8005164 <HAL_I2C_MspInit>
 8002e74:	2324      	movs	r3, #36	; 0x24
 8002e76:	f884 303d 	strb.w	r3, [r4, #61]	; 0x3d
 8002e7a:	6823      	ldr	r3, [r4, #0]
 8002e7c:	681a      	ldr	r2, [r3, #0]
 8002e7e:	f022 0201 	bic.w	r2, r2, #1
 8002e82:	601a      	str	r2, [r3, #0]
 8002e84:	681a      	ldr	r2, [r3, #0]
 8002e86:	f442 4200 	orr.w	r2, r2, #32768	; 0x8000
 8002e8a:	601a      	str	r2, [r3, #0]
 8002e8c:	681a      	ldr	r2, [r3, #0]
 8002e8e:	f422 4200 	bic.w	r2, r2, #32768	; 0x8000
 8002e92:	601a      	str	r2, [r3, #0]
 8002e94:	f001 fb44 	bl	8004520 <HAL_RCC_GetPCLK1Freq>
 8002e98:	4a3f      	ldr	r2, [pc, #252]	; (8002f98 <HAL_I2C_Init+0x140>)
 8002e9a:	6863      	ldr	r3, [r4, #4]
 8002e9c:	4293      	cmp	r3, r2
 8002e9e:	bf94      	ite	ls
 8002ea0:	4a3e      	ldrls	r2, [pc, #248]	; (8002f9c <HAL_I2C_Init+0x144>)
 8002ea2:	4a3f      	ldrhi	r2, [pc, #252]	; (8002fa0 <HAL_I2C_Init+0x148>)
 8002ea4:	4290      	cmp	r0, r2
 8002ea6:	bf8c      	ite	hi
 8002ea8:	2200      	movhi	r2, #0
 8002eaa:	2201      	movls	r2, #1
 8002eac:	2a00      	cmp	r2, #0
 8002eae:	d1d6      	bne.n	8002e5e <HAL_I2C_Init+0x6>
 8002eb0:	4e3c      	ldr	r6, [pc, #240]	; (8002fa4 <HAL_I2C_Init+0x14c>)
 8002eb2:	6822      	ldr	r2, [r4, #0]
 8002eb4:	fbb0 f6f6 	udiv	r6, r0, r6
 8002eb8:	6851      	ldr	r1, [r2, #4]
 8002eba:	3801      	subs	r0, #1
 8002ebc:	f021 013f 	bic.w	r1, r1, #63	; 0x3f
 8002ec0:	4331      	orrs	r1, r6
 8002ec2:	6051      	str	r1, [r2, #4]
 8002ec4:	4934      	ldr	r1, [pc, #208]	; (8002f98 <HAL_I2C_Init+0x140>)
 8002ec6:	6a15      	ldr	r5, [r2, #32]
 8002ec8:	428b      	cmp	r3, r1
 8002eca:	bf81      	itttt	hi
 8002ecc:	f44f 7196 	movhi.w	r1, #300	; 0x12c
 8002ed0:	4371      	mulhi	r1, r6
 8002ed2:	f44f 767a 	movhi.w	r6, #1000	; 0x3e8
 8002ed6:	fbb1 f1f6 	udivhi	r1, r1, r6
 8002eda:	f025 053f 	bic.w	r5, r5, #63	; 0x3f
 8002ede:	bf94      	ite	ls
 8002ee0:	1c71      	addls	r1, r6, #1
 8002ee2:	3101      	addhi	r1, #1
 8002ee4:	4329      	orrs	r1, r5
 8002ee6:	6211      	str	r1, [r2, #32]
 8002ee8:	69d1      	ldr	r1, [r2, #28]
 8002eea:	4d2b      	ldr	r5, [pc, #172]	; (8002f98 <HAL_I2C_Init+0x140>)
 8002eec:	f421 414f 	bic.w	r1, r1, #52992	; 0xcf00
 8002ef0:	42ab      	cmp	r3, r5
 8002ef2:	f021 01ff 	bic.w	r1, r1, #255	; 0xff
 8002ef6:	d832      	bhi.n	8002f5e <HAL_I2C_Init+0x106>
 8002ef8:	005b      	lsls	r3, r3, #1
 8002efa:	fbb0 f0f3 	udiv	r0, r0, r3
 8002efe:	1c43      	adds	r3, r0, #1
 8002f00:	f640 70fc 	movw	r0, #4092	; 0xffc
 8002f04:	4203      	tst	r3, r0
 8002f06:	d042      	beq.n	8002f8e <HAL_I2C_Init+0x136>
 8002f08:	f3c3 030b 	ubfx	r3, r3, #0, #12
 8002f0c:	430b      	orrs	r3, r1
 8002f0e:	61d3      	str	r3, [r2, #28]
 8002f10:	6811      	ldr	r1, [r2, #0]
 8002f12:	e9d4 3007 	ldrd	r3, r0, [r4, #28]
 8002f16:	f021 01c0 	bic.w	r1, r1, #192	; 0xc0
 8002f1a:	4303      	orrs	r3, r0
 8002f1c:	430b      	orrs	r3, r1
 8002f1e:	6013      	str	r3, [r2, #0]
 8002f20:	6891      	ldr	r1, [r2, #8]
 8002f22:	e9d4 0303 	ldrd	r0, r3, [r4, #12]
 8002f26:	f421 4103 	bic.w	r1, r1, #33536	; 0x8300
 8002f2a:	4303      	orrs	r3, r0
 8002f2c:	f021 01ff 	bic.w	r1, r1, #255	; 0xff
 8002f30:	430b      	orrs	r3, r1
 8002f32:	6093      	str	r3, [r2, #8]
 8002f34:	68d1      	ldr	r1, [r2, #12]
 8002f36:	e9d4 3005 	ldrd	r3, r0, [r4, #20]
 8002f3a:	f021 01ff 	bic.w	r1, r1, #255	; 0xff
 8002f3e:	4303      	orrs	r3, r0
 8002f40:	430b      	orrs	r3, r1
 8002f42:	60d3      	str	r3, [r2, #12]
 8002f44:	6813      	ldr	r3, [r2, #0]
 8002f46:	2000      	movs	r0, #0
 8002f48:	f043 0301 	orr.w	r3, r3, #1
 8002f4c:	6013      	str	r3, [r2, #0]
 8002f4e:	2320      	movs	r3, #32
 8002f50:	6420      	str	r0, [r4, #64]	; 0x40
 8002f52:	f884 303d 	strb.w	r3, [r4, #61]	; 0x3d
 8002f56:	6320      	str	r0, [r4, #48]	; 0x30
 8002f58:	f884 003e 	strb.w	r0, [r4, #62]	; 0x3e
 8002f5c:	e780      	b.n	8002e60 <HAL_I2C_Init+0x8>
 8002f5e:	68a5      	ldr	r5, [r4, #8]
 8002f60:	b955      	cbnz	r5, 8002f78 <HAL_I2C_Init+0x120>
 8002f62:	eb03 0343 	add.w	r3, r3, r3, lsl #1
 8002f66:	fbb0 f3f3 	udiv	r3, r0, r3
 8002f6a:	3301      	adds	r3, #1
 8002f6c:	f3c3 030b 	ubfx	r3, r3, #0, #12
 8002f70:	b17b      	cbz	r3, 8002f92 <HAL_I2C_Init+0x13a>
 8002f72:	f443 4300 	orr.w	r3, r3, #32768	; 0x8000
 8002f76:	e7c9      	b.n	8002f0c <HAL_I2C_Init+0xb4>
 8002f78:	2519      	movs	r5, #25
 8002f7a:	436b      	muls	r3, r5
 8002f7c:	fbb0 f3f3 	udiv	r3, r0, r3
 8002f80:	3301      	adds	r3, #1
 8002f82:	f3c3 030b 	ubfx	r3, r3, #0, #12
 8002f86:	b123      	cbz	r3, 8002f92 <HAL_I2C_Init+0x13a>
 8002f88:	f443 4340 	orr.w	r3, r3, #49152	; 0xc000
 8002f8c:	e7be      	b.n	8002f0c <HAL_I2C_Init+0xb4>
 8002f8e:	2304      	movs	r3, #4
 8002f90:	e7bc      	b.n	8002f0c <HAL_I2C_Init+0xb4>
 8002f92:	2301      	movs	r3, #1
 8002f94:	e7ba      	b.n	8002f0c <HAL_I2C_Init+0xb4>
 8002f96:	bf00      	nop
 8002f98:	000186a0 	.word	0x000186a0
 8002f9c:	001e847f 	.word	0x001e847f
 8002fa0:	003d08ff 	.word	0x003d08ff
 8002fa4:	000f4240 	.word	0x000f4240

08002fa8 <HAL_I2C_Mem_Write>:
 8002fa8:	e92d 43f7 	stmdb	sp!, {r0, r1, r2, r4, r5, r6, r7, r8, r9, lr}
 8002fac:	4604      	mov	r4, r0
 8002fae:	4699      	mov	r9, r3
 8002fb0:	460f      	mov	r7, r1
 8002fb2:	4690      	mov	r8, r2
 8002fb4:	9e0c      	ldr	r6, [sp, #48]	; 0x30
 8002fb6:	f7ff f865 	bl	8002084 <HAL_GetTick>
 8002fba:	f894 303d 	ldrb.w	r3, [r4, #61]	; 0x3d
 8002fbe:	4605      	mov	r5, r0
 8002fc0:	2b20      	cmp	r3, #32
 8002fc2:	d003      	beq.n	8002fcc <HAL_I2C_Mem_Write+0x24>
 8002fc4:	2002      	movs	r0, #2
 8002fc6:	b003      	add	sp, #12
 8002fc8:	e8bd 83f0 	ldmia.w	sp!, {r4, r5, r6, r7, r8, r9, pc}
 8002fcc:	9000      	str	r0, [sp, #0]
 8002fce:	2319      	movs	r3, #25
 8002fd0:	2201      	movs	r2, #1
 8002fd2:	4620      	mov	r0, r4
 8002fd4:	493a      	ldr	r1, [pc, #232]	; (80030c0 <HAL_I2C_Mem_Write+0x118>)
 8002fd6:	f7ff fe8f 	bl	8002cf8 <I2C_WaitOnFlagUntilTimeout>
 8002fda:	2800      	cmp	r0, #0
 8002fdc:	d1f2      	bne.n	8002fc4 <HAL_I2C_Mem_Write+0x1c>
 8002fde:	f894 303c 	ldrb.w	r3, [r4, #60]	; 0x3c
 8002fe2:	2b01      	cmp	r3, #1
 8002fe4:	d0ee      	beq.n	8002fc4 <HAL_I2C_Mem_Write+0x1c>
 8002fe6:	2301      	movs	r3, #1
 8002fe8:	6820      	ldr	r0, [r4, #0]
 8002fea:	f884 303c 	strb.w	r3, [r4, #60]	; 0x3c
 8002fee:	6803      	ldr	r3, [r0, #0]
 8002ff0:	4642      	mov	r2, r8
 8002ff2:	07d9      	lsls	r1, r3, #31
 8002ff4:	bf58      	it	pl
 8002ff6:	6803      	ldrpl	r3, [r0, #0]
 8002ff8:	4639      	mov	r1, r7
 8002ffa:	bf5c      	itt	pl
 8002ffc:	f043 0301 	orrpl.w	r3, r3, #1
 8003000:	6003      	strpl	r3, [r0, #0]
 8003002:	6803      	ldr	r3, [r0, #0]
 8003004:	f423 6300 	bic.w	r3, r3, #2048	; 0x800
 8003008:	6003      	str	r3, [r0, #0]
 800300a:	2321      	movs	r3, #33	; 0x21
 800300c:	f884 303d 	strb.w	r3, [r4, #61]	; 0x3d
 8003010:	2340      	movs	r3, #64	; 0x40
 8003012:	f884 303e 	strb.w	r3, [r4, #62]	; 0x3e
 8003016:	2300      	movs	r3, #0
 8003018:	6423      	str	r3, [r4, #64]	; 0x40
 800301a:	9b0a      	ldr	r3, [sp, #40]	; 0x28
 800301c:	4620      	mov	r0, r4
 800301e:	6263      	str	r3, [r4, #36]	; 0x24
 8003020:	f8bd 302c 	ldrh.w	r3, [sp, #44]	; 0x2c
 8003024:	e9cd 6500 	strd	r6, r5, [sp]
 8003028:	8563      	strh	r3, [r4, #42]	; 0x2a
 800302a:	8d63      	ldrh	r3, [r4, #42]	; 0x2a
 800302c:	8523      	strh	r3, [r4, #40]	; 0x28
 800302e:	4b25      	ldr	r3, [pc, #148]	; (80030c4 <HAL_I2C_Mem_Write+0x11c>)
 8003030:	62e3      	str	r3, [r4, #44]	; 0x2c
 8003032:	464b      	mov	r3, r9
 8003034:	f7ff feb8 	bl	8002da8 <I2C_RequestMemoryWrite>
 8003038:	2800      	cmp	r0, #0
 800303a:	d02a      	beq.n	8003092 <HAL_I2C_Mem_Write+0xea>
 800303c:	2001      	movs	r0, #1
 800303e:	e7c2      	b.n	8002fc6 <HAL_I2C_Mem_Write+0x1e>
 8003040:	f7ff fe8c 	bl	8002d5c <I2C_WaitOnTXEFlagUntilTimeout>
 8003044:	b140      	cbz	r0, 8003058 <HAL_I2C_Mem_Write+0xb0>
 8003046:	6c23      	ldr	r3, [r4, #64]	; 0x40
 8003048:	2b04      	cmp	r3, #4
 800304a:	bf01      	itttt	eq
 800304c:	6822      	ldreq	r2, [r4, #0]
 800304e:	6813      	ldreq	r3, [r2, #0]
 8003050:	f443 7300 	orreq.w	r3, r3, #512	; 0x200
 8003054:	6013      	streq	r3, [r2, #0]
 8003056:	e7f1      	b.n	800303c <HAL_I2C_Mem_Write+0x94>
 8003058:	6a63      	ldr	r3, [r4, #36]	; 0x24
 800305a:	6827      	ldr	r7, [r4, #0]
 800305c:	461a      	mov	r2, r3
 800305e:	f812 1b01 	ldrb.w	r1, [r2], #1
 8003062:	6139      	str	r1, [r7, #16]
 8003064:	6262      	str	r2, [r4, #36]	; 0x24
 8003066:	8d62      	ldrh	r2, [r4, #42]	; 0x2a
 8003068:	8d21      	ldrh	r1, [r4, #40]	; 0x28
 800306a:	3a01      	subs	r2, #1
 800306c:	b292      	uxth	r2, r2
 800306e:	8562      	strh	r2, [r4, #42]	; 0x2a
 8003070:	697a      	ldr	r2, [r7, #20]
 8003072:	1e48      	subs	r0, r1, #1
 8003074:	b280      	uxth	r0, r0
 8003076:	0752      	lsls	r2, r2, #29
 8003078:	8520      	strh	r0, [r4, #40]	; 0x28
 800307a:	d50a      	bpl.n	8003092 <HAL_I2C_Mem_Write+0xea>
 800307c:	b148      	cbz	r0, 8003092 <HAL_I2C_Mem_Write+0xea>
 800307e:	785a      	ldrb	r2, [r3, #1]
 8003080:	3302      	adds	r3, #2
 8003082:	613a      	str	r2, [r7, #16]
 8003084:	6263      	str	r3, [r4, #36]	; 0x24
 8003086:	8d63      	ldrh	r3, [r4, #42]	; 0x2a
 8003088:	3902      	subs	r1, #2
 800308a:	3b01      	subs	r3, #1
 800308c:	b29b      	uxth	r3, r3
 800308e:	8521      	strh	r1, [r4, #40]	; 0x28
 8003090:	8563      	strh	r3, [r4, #42]	; 0x2a
 8003092:	8d23      	ldrh	r3, [r4, #40]	; 0x28
 8003094:	462a      	mov	r2, r5
 8003096:	4631      	mov	r1, r6
 8003098:	4620      	mov	r0, r4
 800309a:	2b00      	cmp	r3, #0
 800309c:	d1d0      	bne.n	8003040 <HAL_I2C_Mem_Write+0x98>
 800309e:	f7ff fe05 	bl	8002cac <I2C_WaitOnBTFFlagUntilTimeout>
 80030a2:	2800      	cmp	r0, #0
 80030a4:	d1cf      	bne.n	8003046 <HAL_I2C_Mem_Write+0x9e>
 80030a6:	6822      	ldr	r2, [r4, #0]
 80030a8:	6813      	ldr	r3, [r2, #0]
 80030aa:	f443 7300 	orr.w	r3, r3, #512	; 0x200
 80030ae:	6013      	str	r3, [r2, #0]
 80030b0:	2320      	movs	r3, #32
 80030b2:	f884 003c 	strb.w	r0, [r4, #60]	; 0x3c
 80030b6:	f884 303d 	strb.w	r3, [r4, #61]	; 0x3d
 80030ba:	f884 003e 	strb.w	r0, [r4, #62]	; 0x3e
 80030be:	e782      	b.n	8002fc6 <HAL_I2C_Mem_Write+0x1e>
 80030c0:	00100002 	.word	0x00100002
 80030c4:	ffff0000 	.word	0xffff0000

080030c8 <HAL_I2C_Mem_Write_DMA>:
 80030c8:	e92d 47ff 	stmdb	sp!, {r0, r1, r2, r3, r4, r5, r6, r7, r8, r9, sl, lr}
 80030cc:	4699      	mov	r9, r3
 80030ce:	2300      	movs	r3, #0
 80030d0:	4604      	mov	r4, r0
 80030d2:	9302      	str	r3, [sp, #8]
 80030d4:	460f      	mov	r7, r1
 80030d6:	4690      	mov	r8, r2
 80030d8:	9d0c      	ldr	r5, [sp, #48]	; 0x30
 80030da:	f7fe ffd3 	bl	8002084 <HAL_GetTick>
 80030de:	f894 303d 	ldrb.w	r3, [r4, #61]	; 0x3d
 80030e2:	4682      	mov	sl, r0
 80030e4:	2b20      	cmp	r3, #32
 80030e6:	d003      	beq.n	80030f0 <HAL_I2C_Mem_Write_DMA+0x28>
 80030e8:	2002      	movs	r0, #2
 80030ea:	b004      	add	sp, #16
 80030ec:	e8bd 87f0 	ldmia.w	sp!, {r4, r5, r6, r7, r8, r9, sl, pc}
 80030f0:	f246 12a8 	movw	r2, #25000	; 0x61a8
 80030f4:	4b50      	ldr	r3, [pc, #320]	; (8003238 <HAL_I2C_Mem_Write_DMA+0x170>)
 80030f6:	681b      	ldr	r3, [r3, #0]
 80030f8:	fbb3 f2f2 	udiv	r2, r3, r2
 80030fc:	2319      	movs	r3, #25
 80030fe:	4353      	muls	r3, r2
 8003100:	9302      	str	r3, [sp, #8]
 8003102:	9b02      	ldr	r3, [sp, #8]
 8003104:	3b01      	subs	r3, #1
 8003106:	9302      	str	r3, [sp, #8]
 8003108:	9b02      	ldr	r3, [sp, #8]
 800310a:	b963      	cbnz	r3, 8003126 <HAL_I2C_Mem_Write_DMA+0x5e>
 800310c:	2220      	movs	r2, #32
 800310e:	6323      	str	r3, [r4, #48]	; 0x30
 8003110:	f884 203d 	strb.w	r2, [r4, #61]	; 0x3d
 8003114:	f884 303e 	strb.w	r3, [r4, #62]	; 0x3e
 8003118:	6c22      	ldr	r2, [r4, #64]	; 0x40
 800311a:	f042 0220 	orr.w	r2, r2, #32
 800311e:	6422      	str	r2, [r4, #64]	; 0x40
 8003120:	f884 303c 	strb.w	r3, [r4, #60]	; 0x3c
 8003124:	e05f      	b.n	80031e6 <HAL_I2C_Mem_Write_DMA+0x11e>
 8003126:	6822      	ldr	r2, [r4, #0]
 8003128:	6993      	ldr	r3, [r2, #24]
 800312a:	0799      	lsls	r1, r3, #30
 800312c:	d4e9      	bmi.n	8003102 <HAL_I2C_Mem_Write_DMA+0x3a>
 800312e:	f894 303c 	ldrb.w	r3, [r4, #60]	; 0x3c
 8003132:	2b01      	cmp	r3, #1
 8003134:	d0d8      	beq.n	80030e8 <HAL_I2C_Mem_Write_DMA+0x20>
 8003136:	2301      	movs	r3, #1
 8003138:	f884 303c 	strb.w	r3, [r4, #60]	; 0x3c
 800313c:	6813      	ldr	r3, [r2, #0]
 800313e:	2600      	movs	r6, #0
 8003140:	07db      	lsls	r3, r3, #31
 8003142:	bf58      	it	pl
 8003144:	6813      	ldrpl	r3, [r2, #0]
 8003146:	493d      	ldr	r1, [pc, #244]	; (800323c <HAL_I2C_Mem_Write_DMA+0x174>)
 8003148:	bf5c      	itt	pl
 800314a:	f043 0301 	orrpl.w	r3, r3, #1
 800314e:	6013      	strpl	r3, [r2, #0]
 8003150:	6813      	ldr	r3, [r2, #0]
 8003152:	f423 6300 	bic.w	r3, r3, #2048	; 0x800
 8003156:	6013      	str	r3, [r2, #0]
 8003158:	2321      	movs	r3, #33	; 0x21
 800315a:	f884 303d 	strb.w	r3, [r4, #61]	; 0x3d
 800315e:	2340      	movs	r3, #64	; 0x40
 8003160:	f884 303e 	strb.w	r3, [r4, #62]	; 0x3e
 8003164:	f8bd 3034 	ldrh.w	r3, [sp, #52]	; 0x34
 8003168:	6426      	str	r6, [r4, #64]	; 0x40
 800316a:	8563      	strh	r3, [r4, #42]	; 0x2a
 800316c:	8d63      	ldrh	r3, [r4, #42]	; 0x2a
 800316e:	6265      	str	r5, [r4, #36]	; 0x24
 8003170:	b29b      	uxth	r3, r3
 8003172:	8523      	strh	r3, [r4, #40]	; 0x28
 8003174:	62e1      	str	r1, [r4, #44]	; 0x2c
 8003176:	2b00      	cmp	r3, #0
 8003178:	d055      	beq.n	8003226 <HAL_I2C_Mem_Write_DMA+0x15e>
 800317a:	6b60      	ldr	r0, [r4, #52]	; 0x34
 800317c:	b340      	cbz	r0, 80031d0 <HAL_I2C_Mem_Write_DMA+0x108>
 800317e:	4930      	ldr	r1, [pc, #192]	; (8003240 <HAL_I2C_Mem_Write_DMA+0x178>)
 8003180:	6346      	str	r6, [r0, #52]	; 0x34
 8003182:	6281      	str	r1, [r0, #40]	; 0x28
 8003184:	492f      	ldr	r1, [pc, #188]	; (8003244 <HAL_I2C_Mem_Write_DMA+0x17c>)
 8003186:	3210      	adds	r2, #16
 8003188:	e9c0 610b 	strd	r6, r1, [r0, #44]	; 0x2c
 800318c:	4629      	mov	r1, r5
 800318e:	f7ff fb37 	bl	8002800 <HAL_DMA_Start_IT>
 8003192:	4605      	mov	r5, r0
 8003194:	2800      	cmp	r0, #0
 8003196:	d13a      	bne.n	800320e <HAL_I2C_Mem_Write_DMA+0x146>
 8003198:	2323      	movs	r3, #35	; 0x23
 800319a:	4642      	mov	r2, r8
 800319c:	9300      	str	r3, [sp, #0]
 800319e:	4639      	mov	r1, r7
 80031a0:	464b      	mov	r3, r9
 80031a2:	4620      	mov	r0, r4
 80031a4:	f8cd a004 	str.w	sl, [sp, #4]
 80031a8:	f7ff fdfe 	bl	8002da8 <I2C_RequestMemoryWrite>
 80031ac:	b1e8      	cbz	r0, 80031ea <HAL_I2C_Mem_Write_DMA+0x122>
 80031ae:	6b60      	ldr	r0, [r4, #52]	; 0x34
 80031b0:	f7ff fb62 	bl	8002878 <HAL_DMA_Abort_IT>
 80031b4:	6b63      	ldr	r3, [r4, #52]	; 0x34
 80031b6:	629d      	str	r5, [r3, #40]	; 0x28
 80031b8:	6823      	ldr	r3, [r4, #0]
 80031ba:	681a      	ldr	r2, [r3, #0]
 80031bc:	f422 6280 	bic.w	r2, r2, #1024	; 0x400
 80031c0:	601a      	str	r2, [r3, #0]
 80031c2:	8565      	strh	r5, [r4, #42]	; 0x2a
 80031c4:	681a      	ldr	r2, [r3, #0]
 80031c6:	8525      	strh	r5, [r4, #40]	; 0x28
 80031c8:	f022 0201 	bic.w	r2, r2, #1
 80031cc:	601a      	str	r2, [r3, #0]
 80031ce:	e00a      	b.n	80031e6 <HAL_I2C_Mem_Write_DMA+0x11e>
 80031d0:	2320      	movs	r3, #32
 80031d2:	f884 303d 	strb.w	r3, [r4, #61]	; 0x3d
 80031d6:	f884 003e 	strb.w	r0, [r4, #62]	; 0x3e
 80031da:	6c23      	ldr	r3, [r4, #64]	; 0x40
 80031dc:	f884 003c 	strb.w	r0, [r4, #60]	; 0x3c
 80031e0:	f043 0380 	orr.w	r3, r3, #128	; 0x80
 80031e4:	6423      	str	r3, [r4, #64]	; 0x40
 80031e6:	2001      	movs	r0, #1
 80031e8:	e77f      	b.n	80030ea <HAL_I2C_Mem_Write_DMA+0x22>
 80031ea:	6823      	ldr	r3, [r4, #0]
 80031ec:	9003      	str	r0, [sp, #12]
 80031ee:	695a      	ldr	r2, [r3, #20]
 80031f0:	9203      	str	r2, [sp, #12]
 80031f2:	699a      	ldr	r2, [r3, #24]
 80031f4:	f884 003c 	strb.w	r0, [r4, #60]	; 0x3c
 80031f8:	9203      	str	r2, [sp, #12]
 80031fa:	9a03      	ldr	r2, [sp, #12]
 80031fc:	685a      	ldr	r2, [r3, #4]
 80031fe:	f442 7280 	orr.w	r2, r2, #256	; 0x100
 8003202:	605a      	str	r2, [r3, #4]
 8003204:	685a      	ldr	r2, [r3, #4]
 8003206:	f442 6200 	orr.w	r2, r2, #2048	; 0x800
 800320a:	605a      	str	r2, [r3, #4]
 800320c:	e76d      	b.n	80030ea <HAL_I2C_Mem_Write_DMA+0x22>
 800320e:	2320      	movs	r3, #32
 8003210:	f884 303d 	strb.w	r3, [r4, #61]	; 0x3d
 8003214:	f884 603e 	strb.w	r6, [r4, #62]	; 0x3e
 8003218:	6c23      	ldr	r3, [r4, #64]	; 0x40
 800321a:	f884 603c 	strb.w	r6, [r4, #60]	; 0x3c
 800321e:	f043 0310 	orr.w	r3, r3, #16
 8003222:	6423      	str	r3, [r4, #64]	; 0x40
 8003224:	e7df      	b.n	80031e6 <HAL_I2C_Mem_Write_DMA+0x11e>
 8003226:	2220      	movs	r2, #32
 8003228:	f884 203d 	strb.w	r2, [r4, #61]	; 0x3d
 800322c:	f884 303e 	strb.w	r3, [r4, #62]	; 0x3e
 8003230:	6c22      	ldr	r2, [r4, #64]	; 0x40
 8003232:	f042 0240 	orr.w	r2, r2, #64	; 0x40
 8003236:	e772      	b.n	800311e <HAL_I2C_Mem_Write_DMA+0x56>
 8003238:	20000078 	.word	0x20000078
 800323c:	ffff0000 	.word	0xffff0000
 8003240:	08003497 	.word	0x08003497
 8003244:	0800345d 	.word	0x0800345d

08003248 <HAL_I2C_IsDeviceReady>:
 8003248:	e92d 4ff0 	stmdb	sp!, {r4, r5, r6, r7, r8, r9, sl, fp, lr}
 800324c:	4604      	mov	r4, r0
 800324e:	b085      	sub	sp, #20
 8003250:	461e      	mov	r6, r3
 8003252:	460f      	mov	r7, r1
 8003254:	4691      	mov	r9, r2
 8003256:	f7fe ff15 	bl	8002084 <HAL_GetTick>
 800325a:	f894 303d 	ldrb.w	r3, [r4, #61]	; 0x3d
 800325e:	4605      	mov	r5, r0
 8003260:	2b20      	cmp	r3, #32
 8003262:	d003      	beq.n	800326c <HAL_I2C_IsDeviceReady+0x24>
 8003264:	2002      	movs	r0, #2
 8003266:	b005      	add	sp, #20
 8003268:	e8bd 8ff0 	ldmia.w	sp!, {r4, r5, r6, r7, r8, r9, sl, fp, pc}
 800326c:	9000      	str	r0, [sp, #0]
 800326e:	2319      	movs	r3, #25
 8003270:	2201      	movs	r2, #1
 8003272:	4620      	mov	r0, r4
 8003274:	494c      	ldr	r1, [pc, #304]	; (80033a8 <HAL_I2C_IsDeviceReady+0x160>)
 8003276:	f7ff fd3f 	bl	8002cf8 <I2C_WaitOnFlagUntilTimeout>
 800327a:	2800      	cmp	r0, #0
 800327c:	d1f2      	bne.n	8003264 <HAL_I2C_IsDeviceReady+0x1c>
 800327e:	f894 303c 	ldrb.w	r3, [r4, #60]	; 0x3c
 8003282:	2b01      	cmp	r3, #1
 8003284:	d0ee      	beq.n	8003264 <HAL_I2C_IsDeviceReady+0x1c>
 8003286:	2301      	movs	r3, #1
 8003288:	f884 303c 	strb.w	r3, [r4, #60]	; 0x3c
 800328c:	6823      	ldr	r3, [r4, #0]
 800328e:	f04f 0a01 	mov.w	sl, #1
 8003292:	681a      	ldr	r2, [r3, #0]
 8003294:	f8df b110 	ldr.w	fp, [pc, #272]	; 80033a8 <HAL_I2C_IsDeviceReady+0x160>
 8003298:	07d2      	lsls	r2, r2, #31
 800329a:	bf58      	it	pl
 800329c:	681a      	ldrpl	r2, [r3, #0]
 800329e:	f007 07fe 	and.w	r7, r7, #254	; 0xfe
 80032a2:	bf5c      	itt	pl
 80032a4:	f042 0201 	orrpl.w	r2, r2, #1
 80032a8:	601a      	strpl	r2, [r3, #0]
 80032aa:	681a      	ldr	r2, [r3, #0]
 80032ac:	f422 6200 	bic.w	r2, r2, #2048	; 0x800
 80032b0:	601a      	str	r2, [r3, #0]
 80032b2:	2324      	movs	r3, #36	; 0x24
 80032b4:	f884 303d 	strb.w	r3, [r4, #61]	; 0x3d
 80032b8:	2300      	movs	r3, #0
 80032ba:	6423      	str	r3, [r4, #64]	; 0x40
 80032bc:	f5a3 3380 	sub.w	r3, r3, #65536	; 0x10000
 80032c0:	62e3      	str	r3, [r4, #44]	; 0x2c
 80032c2:	6822      	ldr	r2, [r4, #0]
 80032c4:	f04f 1101 	mov.w	r1, #65537	; 0x10001
 80032c8:	6813      	ldr	r3, [r2, #0]
 80032ca:	4620      	mov	r0, r4
 80032cc:	f443 7380 	orr.w	r3, r3, #256	; 0x100
 80032d0:	6013      	str	r3, [r2, #0]
 80032d2:	4633      	mov	r3, r6
 80032d4:	2200      	movs	r2, #0
 80032d6:	9500      	str	r5, [sp, #0]
 80032d8:	f7ff fd0e 	bl	8002cf8 <I2C_WaitOnFlagUntilTimeout>
 80032dc:	6823      	ldr	r3, [r4, #0]
 80032de:	b138      	cbz	r0, 80032f0 <HAL_I2C_IsDeviceReady+0xa8>
 80032e0:	681b      	ldr	r3, [r3, #0]
 80032e2:	05db      	lsls	r3, r3, #23
 80032e4:	d502      	bpl.n	80032ec <HAL_I2C_IsDeviceReady+0xa4>
 80032e6:	f44f 7300 	mov.w	r3, #512	; 0x200
 80032ea:	6423      	str	r3, [r4, #64]	; 0x40
 80032ec:	2003      	movs	r0, #3
 80032ee:	e7ba      	b.n	8003266 <HAL_I2C_IsDeviceReady+0x1e>
 80032f0:	611f      	str	r7, [r3, #16]
 80032f2:	f7fe fec7 	bl	8002084 <HAL_GetTick>
 80032f6:	f04f 08a0 	mov.w	r8, #160	; 0xa0
 80032fa:	4605      	mov	r5, r0
 80032fc:	6823      	ldr	r3, [r4, #0]
 80032fe:	695a      	ldr	r2, [r3, #20]
 8003300:	695b      	ldr	r3, [r3, #20]
 8003302:	f3c2 0240 	ubfx	r2, r2, #1, #1
 8003306:	f3c3 2380 	ubfx	r3, r3, #10, #1
 800330a:	f894 103d 	ldrb.w	r1, [r4, #61]	; 0x3d
 800330e:	29a0      	cmp	r1, #160	; 0xa0
 8003310:	d001      	beq.n	8003316 <HAL_I2C_IsDeviceReady+0xce>
 8003312:	4313      	orrs	r3, r2
 8003314:	d01d      	beq.n	8003352 <HAL_I2C_IsDeviceReady+0x10a>
 8003316:	f04f 0820 	mov.w	r8, #32
 800331a:	6823      	ldr	r3, [r4, #0]
 800331c:	f884 803d 	strb.w	r8, [r4, #61]	; 0x3d
 8003320:	695a      	ldr	r2, [r3, #20]
 8003322:	f012 0f02 	tst.w	r2, #2
 8003326:	681a      	ldr	r2, [r3, #0]
 8003328:	f442 7200 	orr.w	r2, r2, #512	; 0x200
 800332c:	601a      	str	r2, [r3, #0]
 800332e:	d025      	beq.n	800337c <HAL_I2C_IsDeviceReady+0x134>
 8003330:	2200      	movs	r2, #0
 8003332:	9203      	str	r2, [sp, #12]
 8003334:	695a      	ldr	r2, [r3, #20]
 8003336:	4620      	mov	r0, r4
 8003338:	9203      	str	r2, [sp, #12]
 800333a:	699b      	ldr	r3, [r3, #24]
 800333c:	2201      	movs	r2, #1
 800333e:	9303      	str	r3, [sp, #12]
 8003340:	9b03      	ldr	r3, [sp, #12]
 8003342:	4919      	ldr	r1, [pc, #100]	; (80033a8 <HAL_I2C_IsDeviceReady+0x160>)
 8003344:	2319      	movs	r3, #25
 8003346:	9500      	str	r5, [sp, #0]
 8003348:	f7ff fcd6 	bl	8002cf8 <I2C_WaitOnFlagUntilTimeout>
 800334c:	b188      	cbz	r0, 8003372 <HAL_I2C_IsDeviceReady+0x12a>
 800334e:	2001      	movs	r0, #1
 8003350:	e789      	b.n	8003266 <HAL_I2C_IsDeviceReady+0x1e>
 8003352:	f7fe fe97 	bl	8002084 <HAL_GetTick>
 8003356:	1b40      	subs	r0, r0, r5
 8003358:	42b0      	cmp	r0, r6
 800335a:	d800      	bhi.n	800335e <HAL_I2C_IsDeviceReady+0x116>
 800335c:	b90e      	cbnz	r6, 8003362 <HAL_I2C_IsDeviceReady+0x11a>
 800335e:	f884 803d 	strb.w	r8, [r4, #61]	; 0x3d
 8003362:	6823      	ldr	r3, [r4, #0]
 8003364:	695a      	ldr	r2, [r3, #20]
 8003366:	695b      	ldr	r3, [r3, #20]
 8003368:	f3c2 0240 	ubfx	r2, r2, #1, #1
 800336c:	f3c3 2380 	ubfx	r3, r3, #10, #1
 8003370:	e7cb      	b.n	800330a <HAL_I2C_IsDeviceReady+0xc2>
 8003372:	f884 803d 	strb.w	r8, [r4, #61]	; 0x3d
 8003376:	f884 003c 	strb.w	r0, [r4, #60]	; 0x3c
 800337a:	e774      	b.n	8003266 <HAL_I2C_IsDeviceReady+0x1e>
 800337c:	f46f 6280 	mvn.w	r2, #1024	; 0x400
 8003380:	4659      	mov	r1, fp
 8003382:	615a      	str	r2, [r3, #20]
 8003384:	4620      	mov	r0, r4
 8003386:	2319      	movs	r3, #25
 8003388:	2201      	movs	r2, #1
 800338a:	9500      	str	r5, [sp, #0]
 800338c:	f7ff fcb4 	bl	8002cf8 <I2C_WaitOnFlagUntilTimeout>
 8003390:	2800      	cmp	r0, #0
 8003392:	d1dc      	bne.n	800334e <HAL_I2C_IsDeviceReady+0x106>
 8003394:	f10a 0a01 	add.w	sl, sl, #1
 8003398:	45ca      	cmp	sl, r9
 800339a:	d392      	bcc.n	80032c2 <HAL_I2C_IsDeviceReady+0x7a>
 800339c:	f884 803d 	strb.w	r8, [r4, #61]	; 0x3d
 80033a0:	f884 003c 	strb.w	r0, [r4, #60]	; 0x3c
 80033a4:	e7d3      	b.n	800334e <HAL_I2C_IsDeviceReady+0x106>
 80033a6:	bf00      	nop
 80033a8:	00100002 	.word	0x00100002

080033ac <HAL_I2C_MasterTxCpltCallback>:
 80033ac:	4770      	bx	lr

080033ae <HAL_I2C_MasterRxCpltCallback>:
 80033ae:	4770      	bx	lr

080033b0 <HAL_I2C_SlaveTxCpltCallback>:
 80033b0:	4770      	bx	lr

080033b2 <HAL_I2C_SlaveRxCpltCallback>:
 80033b2:	4770      	bx	lr

080033b4 <HAL_I2C_AddrCallback>:
 80033b4:	4770      	bx	lr

080033b6 <HAL_I2C_ListenCpltCallback>:
 80033b6:	4770      	bx	lr

080033b8 <I2C_MemoryTransmit_TXE_BTF>:
 80033b8:	f890 203d 	ldrb.w	r2, [r0, #61]	; 0x3d
 80033bc:	b508      	push	{r3, lr}
 80033be:	6d03      	ldr	r3, [r0, #80]	; 0x50
 80033c0:	b2d2      	uxtb	r2, r2
 80033c2:	b983      	cbnz	r3, 80033e6 <I2C_MemoryTransmit_TXE_BTF+0x2e>
 80033c4:	6cc3      	ldr	r3, [r0, #76]	; 0x4c
 80033c6:	6802      	ldr	r2, [r0, #0]
 80033c8:	2b01      	cmp	r3, #1
 80033ca:	6c83      	ldr	r3, [r0, #72]	; 0x48
 80033cc:	d105      	bne.n	80033da <I2C_MemoryTransmit_TXE_BTF+0x22>
 80033ce:	b2db      	uxtb	r3, r3
 80033d0:	6113      	str	r3, [r2, #16]
 80033d2:	6d03      	ldr	r3, [r0, #80]	; 0x50
 80033d4:	3302      	adds	r3, #2
 80033d6:	6503      	str	r3, [r0, #80]	; 0x50
 80033d8:	bd08      	pop	{r3, pc}
 80033da:	f3c3 2307 	ubfx	r3, r3, #8, #8
 80033de:	6113      	str	r3, [r2, #16]
 80033e0:	6d03      	ldr	r3, [r0, #80]	; 0x50
 80033e2:	3301      	adds	r3, #1
 80033e4:	e7f7      	b.n	80033d6 <I2C_MemoryTransmit_TXE_BTF+0x1e>
 80033e6:	6d03      	ldr	r3, [r0, #80]	; 0x50
 80033e8:	2b01      	cmp	r3, #1
 80033ea:	d103      	bne.n	80033f4 <I2C_MemoryTransmit_TXE_BTF+0x3c>
 80033ec:	6c83      	ldr	r3, [r0, #72]	; 0x48
 80033ee:	6802      	ldr	r2, [r0, #0]
 80033f0:	b2db      	uxtb	r3, r3
 80033f2:	e7f4      	b.n	80033de <I2C_MemoryTransmit_TXE_BTF+0x26>
 80033f4:	6d03      	ldr	r3, [r0, #80]	; 0x50
 80033f6:	2b02      	cmp	r3, #2
 80033f8:	d1ee      	bne.n	80033d8 <I2C_MemoryTransmit_TXE_BTF+0x20>
 80033fa:	2a22      	cmp	r2, #34	; 0x22
 80033fc:	d105      	bne.n	800340a <I2C_MemoryTransmit_TXE_BTF+0x52>
 80033fe:	6802      	ldr	r2, [r0, #0]
 8003400:	6813      	ldr	r3, [r2, #0]
 8003402:	f443 7380 	orr.w	r3, r3, #256	; 0x100
 8003406:	6013      	str	r3, [r2, #0]
 8003408:	e7ea      	b.n	80033e0 <I2C_MemoryTransmit_TXE_BTF+0x28>
 800340a:	8d43      	ldrh	r3, [r0, #42]	; 0x2a
 800340c:	b29b      	uxth	r3, r3
 800340e:	b163      	cbz	r3, 800342a <I2C_MemoryTransmit_TXE_BTF+0x72>
 8003410:	2a21      	cmp	r2, #33	; 0x21
 8003412:	d10a      	bne.n	800342a <I2C_MemoryTransmit_TXE_BTF+0x72>
 8003414:	6a43      	ldr	r3, [r0, #36]	; 0x24
 8003416:	6802      	ldr	r2, [r0, #0]
 8003418:	f813 1b01 	ldrb.w	r1, [r3], #1
 800341c:	6111      	str	r1, [r2, #16]
 800341e:	6243      	str	r3, [r0, #36]	; 0x24
 8003420:	8d43      	ldrh	r3, [r0, #42]	; 0x2a
 8003422:	3b01      	subs	r3, #1
 8003424:	b29b      	uxth	r3, r3
 8003426:	8543      	strh	r3, [r0, #42]	; 0x2a
 8003428:	e7d6      	b.n	80033d8 <I2C_MemoryTransmit_TXE_BTF+0x20>
 800342a:	8d43      	ldrh	r3, [r0, #42]	; 0x2a
 800342c:	b29b      	uxth	r3, r3
 800342e:	2b00      	cmp	r3, #0
 8003430:	d1d2      	bne.n	80033d8 <I2C_MemoryTransmit_TXE_BTF+0x20>
 8003432:	2a21      	cmp	r2, #33	; 0x21
 8003434:	d1d0      	bne.n	80033d8 <I2C_MemoryTransmit_TXE_BTF+0x20>
 8003436:	6802      	ldr	r2, [r0, #0]
 8003438:	6851      	ldr	r1, [r2, #4]
 800343a:	f421 61e0 	bic.w	r1, r1, #1792	; 0x700
 800343e:	6051      	str	r1, [r2, #4]
 8003440:	6811      	ldr	r1, [r2, #0]
 8003442:	f441 7100 	orr.w	r1, r1, #512	; 0x200
 8003446:	6011      	str	r1, [r2, #0]
 8003448:	2220      	movs	r2, #32
 800344a:	6303      	str	r3, [r0, #48]	; 0x30
 800344c:	f880 203d 	strb.w	r2, [r0, #61]	; 0x3d
 8003450:	f880 303e 	strb.w	r3, [r0, #62]	; 0x3e
 8003454:	f001 ffa0 	bl	8005398 <HAL_I2C_MemTxCpltCallback>
 8003458:	e7be      	b.n	80033d8 <I2C_MemoryTransmit_TXE_BTF+0x20>

0800345a <HAL_I2C_MemRxCpltCallback>:
 800345a:	4770      	bx	lr

0800345c <I2C_DMAError>:
 800345c:	6a40      	ldr	r0, [r0, #36]	; 0x24
 800345e:	b508      	push	{r3, lr}
 8003460:	6b43      	ldr	r3, [r0, #52]	; 0x34
 8003462:	b10b      	cbz	r3, 8003468 <I2C_DMAError+0xc>
 8003464:	2200      	movs	r2, #0
 8003466:	629a      	str	r2, [r3, #40]	; 0x28
 8003468:	6b83      	ldr	r3, [r0, #56]	; 0x38
 800346a:	b10b      	cbz	r3, 8003470 <I2C_DMAError+0x14>
 800346c:	2200      	movs	r2, #0
 800346e:	629a      	str	r2, [r3, #40]	; 0x28
 8003470:	6802      	ldr	r2, [r0, #0]
 8003472:	6813      	ldr	r3, [r2, #0]
 8003474:	f423 6380 	bic.w	r3, r3, #1024	; 0x400
 8003478:	6013      	str	r3, [r2, #0]
 800347a:	2300      	movs	r3, #0
 800347c:	2220      	movs	r2, #32
 800347e:	8543      	strh	r3, [r0, #42]	; 0x2a
 8003480:	f880 203d 	strb.w	r2, [r0, #61]	; 0x3d
 8003484:	f880 303e 	strb.w	r3, [r0, #62]	; 0x3e
 8003488:	6c03      	ldr	r3, [r0, #64]	; 0x40
 800348a:	f043 0310 	orr.w	r3, r3, #16
 800348e:	6403      	str	r3, [r0, #64]	; 0x40
 8003490:	f001 ff88 	bl	80053a4 <HAL_I2C_ErrorCallback>
 8003494:	bd08      	pop	{r3, pc}

08003496 <I2C_DMAXferCplt>:
 8003496:	b570      	push	{r4, r5, r6, lr}
 8003498:	6a44      	ldr	r4, [r0, #36]	; 0x24
 800349a:	6823      	ldr	r3, [r4, #0]
 800349c:	f894 203d 	ldrb.w	r2, [r4, #61]	; 0x3d
 80034a0:	f894 003e 	ldrb.w	r0, [r4, #62]	; 0x3e
 80034a4:	6ae1      	ldr	r1, [r4, #44]	; 0x2c
 80034a6:	685d      	ldr	r5, [r3, #4]
 80034a8:	b2d2      	uxtb	r2, r2
 80034aa:	f425 7540 	bic.w	r5, r5, #768	; 0x300
 80034ae:	605d      	str	r5, [r3, #4]
 80034b0:	6b65      	ldr	r5, [r4, #52]	; 0x34
 80034b2:	b2c0      	uxtb	r0, r0
 80034b4:	b10d      	cbz	r5, 80034ba <I2C_DMAXferCplt+0x24>
 80034b6:	2600      	movs	r6, #0
 80034b8:	62ae      	str	r6, [r5, #40]	; 0x28
 80034ba:	6ba5      	ldr	r5, [r4, #56]	; 0x38
 80034bc:	b10d      	cbz	r5, 80034c2 <I2C_DMAXferCplt+0x2c>
 80034be:	2600      	movs	r6, #0
 80034c0:	62ae      	str	r6, [r5, #40]	; 0x28
 80034c2:	f002 0521 	and.w	r5, r2, #33	; 0x21
 80034c6:	2d21      	cmp	r5, #33	; 0x21
 80034c8:	d005      	beq.n	80034d6 <I2C_DMAXferCplt+0x40>
 80034ca:	f002 0522 	and.w	r5, r2, #34	; 0x22
 80034ce:	2d22      	cmp	r5, #34	; 0x22
 80034d0:	d123      	bne.n	800351a <I2C_DMAXferCplt+0x84>
 80034d2:	2820      	cmp	r0, #32
 80034d4:	d121      	bne.n	800351a <I2C_DMAXferCplt+0x84>
 80034d6:	6859      	ldr	r1, [r3, #4]
 80034d8:	2a29      	cmp	r2, #41	; 0x29
 80034da:	f421 6100 	bic.w	r1, r1, #2048	; 0x800
 80034de:	6059      	str	r1, [r3, #4]
 80034e0:	f04f 0300 	mov.w	r3, #0
 80034e4:	8563      	strh	r3, [r4, #42]	; 0x2a
 80034e6:	d10d      	bne.n	8003504 <I2C_DMAXferCplt+0x6e>
 80034e8:	2321      	movs	r3, #33	; 0x21
 80034ea:	6323      	str	r3, [r4, #48]	; 0x30
 80034ec:	2328      	movs	r3, #40	; 0x28
 80034ee:	4620      	mov	r0, r4
 80034f0:	f884 303d 	strb.w	r3, [r4, #61]	; 0x3d
 80034f4:	f7ff ff5c 	bl	80033b0 <HAL_I2C_SlaveTxCpltCallback>
 80034f8:	6822      	ldr	r2, [r4, #0]
 80034fa:	6853      	ldr	r3, [r2, #4]
 80034fc:	f443 7340 	orr.w	r3, r3, #768	; 0x300
 8003500:	6053      	str	r3, [r2, #4]
 8003502:	bd70      	pop	{r4, r5, r6, pc}
 8003504:	2a2a      	cmp	r2, #42	; 0x2a
 8003506:	d1f7      	bne.n	80034f8 <I2C_DMAXferCplt+0x62>
 8003508:	2322      	movs	r3, #34	; 0x22
 800350a:	6323      	str	r3, [r4, #48]	; 0x30
 800350c:	2328      	movs	r3, #40	; 0x28
 800350e:	4620      	mov	r0, r4
 8003510:	f884 303d 	strb.w	r3, [r4, #61]	; 0x3d
 8003514:	f7ff ff4d 	bl	80033b2 <HAL_I2C_SlaveRxCpltCallback>
 8003518:	e7ee      	b.n	80034f8 <I2C_DMAXferCplt+0x62>
 800351a:	f894 203e 	ldrb.w	r2, [r4, #62]	; 0x3e
 800351e:	2a00      	cmp	r2, #0
 8003520:	d0ef      	beq.n	8003502 <I2C_DMAXferCplt+0x6c>
 8003522:	8d62      	ldrh	r2, [r4, #42]	; 0x2a
 8003524:	b292      	uxth	r2, r2
 8003526:	2a01      	cmp	r2, #1
 8003528:	bf02      	ittt	eq
 800352a:	681a      	ldreq	r2, [r3, #0]
 800352c:	f422 6280 	biceq.w	r2, r2, #1024	; 0x400
 8003530:	601a      	streq	r2, [r3, #0]
 8003532:	685a      	ldr	r2, [r3, #4]
 8003534:	f511 3f80 	cmn.w	r1, #65536	; 0x10000
 8003538:	f422 7240 	bic.w	r2, r2, #768	; 0x300
 800353c:	605a      	str	r2, [r3, #4]
 800353e:	d006      	beq.n	800354e <I2C_DMAXferCplt+0xb8>
 8003540:	2908      	cmp	r1, #8
 8003542:	d004      	beq.n	800354e <I2C_DMAXferCplt+0xb8>
 8003544:	f1b1 4f2a 	cmp.w	r1, #2852126720	; 0xaa000000
 8003548:	d001      	beq.n	800354e <I2C_DMAXferCplt+0xb8>
 800354a:	2920      	cmp	r1, #32
 800354c:	d103      	bne.n	8003556 <I2C_DMAXferCplt+0xc0>
 800354e:	681a      	ldr	r2, [r3, #0]
 8003550:	f442 7200 	orr.w	r2, r2, #512	; 0x200
 8003554:	601a      	str	r2, [r3, #0]
 8003556:	685a      	ldr	r2, [r3, #4]
 8003558:	f422 5280 	bic.w	r2, r2, #4096	; 0x1000
 800355c:	605a      	str	r2, [r3, #4]
 800355e:	685a      	ldr	r2, [r3, #4]
 8003560:	f422 6200 	bic.w	r2, r2, #2048	; 0x800
 8003564:	605a      	str	r2, [r3, #4]
 8003566:	2300      	movs	r3, #0
 8003568:	8563      	strh	r3, [r4, #42]	; 0x2a
 800356a:	6c23      	ldr	r3, [r4, #64]	; 0x40
 800356c:	b11b      	cbz	r3, 8003576 <I2C_DMAXferCplt+0xe0>
 800356e:	4620      	mov	r0, r4
 8003570:	f001 ff18 	bl	80053a4 <HAL_I2C_ErrorCallback>
 8003574:	e7c5      	b.n	8003502 <I2C_DMAXferCplt+0x6c>
 8003576:	2220      	movs	r2, #32
 8003578:	f884 203d 	strb.w	r2, [r4, #61]	; 0x3d
 800357c:	f894 203e 	ldrb.w	r2, [r4, #62]	; 0x3e
 8003580:	f884 303e 	strb.w	r3, [r4, #62]	; 0x3e
 8003584:	2a40      	cmp	r2, #64	; 0x40
 8003586:	d104      	bne.n	8003592 <I2C_DMAXferCplt+0xfc>
 8003588:	4620      	mov	r0, r4
 800358a:	6323      	str	r3, [r4, #48]	; 0x30
 800358c:	f7ff ff65 	bl	800345a <HAL_I2C_MemRxCpltCallback>
 8003590:	e7b7      	b.n	8003502 <I2C_DMAXferCplt+0x6c>
 8003592:	2312      	movs	r3, #18
 8003594:	4620      	mov	r0, r4
 8003596:	6323      	str	r3, [r4, #48]	; 0x30
 8003598:	f7ff ff09 	bl	80033ae <HAL_I2C_MasterRxCpltCallback>
 800359c:	e7b1      	b.n	8003502 <I2C_DMAXferCplt+0x6c>

0800359e <HAL_I2C_AbortCpltCallback>:
 800359e:	4770      	bx	lr

080035a0 <I2C_DMAAbort>:
 80035a0:	2300      	movs	r3, #0
 80035a2:	b537      	push	{r0, r1, r2, r4, r5, lr}
 80035a4:	6a40      	ldr	r0, [r0, #36]	; 0x24
 80035a6:	9301      	str	r3, [sp, #4]
 80035a8:	f890 203d 	ldrb.w	r2, [r0, #61]	; 0x3d
 80035ac:	4b2b      	ldr	r3, [pc, #172]	; (800365c <I2C_DMAAbort+0xbc>)
 80035ae:	b2d1      	uxtb	r1, r2
 80035b0:	f246 12a8 	movw	r2, #25000	; 0x61a8
 80035b4:	681b      	ldr	r3, [r3, #0]
 80035b6:	fbb3 f2f2 	udiv	r2, r3, r2
 80035ba:	2323      	movs	r3, #35	; 0x23
 80035bc:	4353      	muls	r3, r2
 80035be:	9301      	str	r3, [sp, #4]
 80035c0:	6803      	ldr	r3, [r0, #0]
 80035c2:	9a01      	ldr	r2, [sp, #4]
 80035c4:	bb42      	cbnz	r2, 8003618 <I2C_DMAAbort+0x78>
 80035c6:	6c02      	ldr	r2, [r0, #64]	; 0x40
 80035c8:	f042 0220 	orr.w	r2, r2, #32
 80035cc:	6402      	str	r2, [r0, #64]	; 0x40
 80035ce:	6b45      	ldr	r5, [r0, #52]	; 0x34
 80035d0:	b10d      	cbz	r5, 80035d6 <I2C_DMAAbort+0x36>
 80035d2:	2200      	movs	r2, #0
 80035d4:	62aa      	str	r2, [r5, #40]	; 0x28
 80035d6:	6b84      	ldr	r4, [r0, #56]	; 0x38
 80035d8:	b10c      	cbz	r4, 80035de <I2C_DMAAbort+0x3e>
 80035da:	2200      	movs	r2, #0
 80035dc:	62a2      	str	r2, [r4, #40]	; 0x28
 80035de:	681a      	ldr	r2, [r3, #0]
 80035e0:	f422 6280 	bic.w	r2, r2, #1024	; 0x400
 80035e4:	601a      	str	r2, [r3, #0]
 80035e6:	2200      	movs	r2, #0
 80035e8:	8542      	strh	r2, [r0, #42]	; 0x2a
 80035ea:	b105      	cbz	r5, 80035ee <I2C_DMAAbort+0x4e>
 80035ec:	636a      	str	r2, [r5, #52]	; 0x34
 80035ee:	b104      	cbz	r4, 80035f2 <I2C_DMAAbort+0x52>
 80035f0:	6362      	str	r2, [r4, #52]	; 0x34
 80035f2:	681a      	ldr	r2, [r3, #0]
 80035f4:	f022 0201 	bic.w	r2, r2, #1
 80035f8:	601a      	str	r2, [r3, #0]
 80035fa:	f890 203d 	ldrb.w	r2, [r0, #61]	; 0x3d
 80035fe:	2a60      	cmp	r2, #96	; 0x60
 8003600:	d111      	bne.n	8003626 <I2C_DMAAbort+0x86>
 8003602:	2320      	movs	r3, #32
 8003604:	f880 303d 	strb.w	r3, [r0, #61]	; 0x3d
 8003608:	2300      	movs	r3, #0
 800360a:	f880 303e 	strb.w	r3, [r0, #62]	; 0x3e
 800360e:	6403      	str	r3, [r0, #64]	; 0x40
 8003610:	f7ff ffc5 	bl	800359e <HAL_I2C_AbortCpltCallback>
 8003614:	b003      	add	sp, #12
 8003616:	bd30      	pop	{r4, r5, pc}
 8003618:	9a01      	ldr	r2, [sp, #4]
 800361a:	3a01      	subs	r2, #1
 800361c:	9201      	str	r2, [sp, #4]
 800361e:	681a      	ldr	r2, [r3, #0]
 8003620:	0592      	lsls	r2, r2, #22
 8003622:	d4ce      	bmi.n	80035c2 <I2C_DMAAbort+0x22>
 8003624:	e7d3      	b.n	80035ce <I2C_DMAAbort+0x2e>
 8003626:	f001 0228 	and.w	r2, r1, #40	; 0x28
 800362a:	2a28      	cmp	r2, #40	; 0x28
 800362c:	d10e      	bne.n	800364c <I2C_DMAAbort+0xac>
 800362e:	6819      	ldr	r1, [r3, #0]
 8003630:	f041 0101 	orr.w	r1, r1, #1
 8003634:	6019      	str	r1, [r3, #0]
 8003636:	6819      	ldr	r1, [r3, #0]
 8003638:	f441 6180 	orr.w	r1, r1, #1024	; 0x400
 800363c:	6019      	str	r1, [r3, #0]
 800363e:	2300      	movs	r3, #0
 8003640:	6303      	str	r3, [r0, #48]	; 0x30
 8003642:	f880 203d 	strb.w	r2, [r0, #61]	; 0x3d
 8003646:	f001 fead 	bl	80053a4 <HAL_I2C_ErrorCallback>
 800364a:	e7e3      	b.n	8003614 <I2C_DMAAbort+0x74>
 800364c:	2320      	movs	r3, #32
 800364e:	f880 303d 	strb.w	r3, [r0, #61]	; 0x3d
 8003652:	2300      	movs	r3, #0
 8003654:	f880 303e 	strb.w	r3, [r0, #62]	; 0x3e
 8003658:	e7f5      	b.n	8003646 <I2C_DMAAbort+0xa6>
 800365a:	bf00      	nop
 800365c:	20000078 	.word	0x20000078

08003660 <I2C_ITError>:
 8003660:	b510      	push	{r4, lr}
 8003662:	f890 203d 	ldrb.w	r2, [r0, #61]	; 0x3d
 8003666:	f890 303e 	ldrb.w	r3, [r0, #62]	; 0x3e
 800366a:	4604      	mov	r4, r0
 800366c:	2b10      	cmp	r3, #16
 800366e:	b2d9      	uxtb	r1, r3
 8003670:	b2d2      	uxtb	r2, r2
 8003672:	6803      	ldr	r3, [r0, #0]
 8003674:	d001      	beq.n	800367a <I2C_ITError+0x1a>
 8003676:	2940      	cmp	r1, #64	; 0x40
 8003678:	d113      	bne.n	80036a2 <I2C_ITError+0x42>
 800367a:	2a22      	cmp	r2, #34	; 0x22
 800367c:	d111      	bne.n	80036a2 <I2C_ITError+0x42>
 800367e:	6819      	ldr	r1, [r3, #0]
 8003680:	f421 6100 	bic.w	r1, r1, #2048	; 0x800
 8003684:	6019      	str	r1, [r3, #0]
 8003686:	6859      	ldr	r1, [r3, #4]
 8003688:	f411 6100 	ands.w	r1, r1, #2048	; 0x800
 800368c:	d106      	bne.n	800369c <I2C_ITError+0x3c>
 800368e:	2a60      	cmp	r2, #96	; 0x60
 8003690:	bf1e      	ittt	ne
 8003692:	2220      	movne	r2, #32
 8003694:	f884 203d 	strbne.w	r2, [r4, #61]	; 0x3d
 8003698:	f884 103e 	strbne.w	r1, [r4, #62]	; 0x3e
 800369c:	2200      	movs	r2, #0
 800369e:	6322      	str	r2, [r4, #48]	; 0x30
 80036a0:	e007      	b.n	80036b2 <I2C_ITError+0x52>
 80036a2:	f002 0128 	and.w	r1, r2, #40	; 0x28
 80036a6:	2928      	cmp	r1, #40	; 0x28
 80036a8:	d1ed      	bne.n	8003686 <I2C_ITError+0x26>
 80036aa:	2200      	movs	r2, #0
 80036ac:	6322      	str	r2, [r4, #48]	; 0x30
 80036ae:	f884 103d 	strb.w	r1, [r4, #61]	; 0x3d
 80036b2:	685a      	ldr	r2, [r3, #4]
 80036b4:	f412 6200 	ands.w	r2, r2, #2048	; 0x800
 80036b8:	d04f      	beq.n	800375a <I2C_ITError+0xfa>
 80036ba:	685a      	ldr	r2, [r3, #4]
 80036bc:	6b60      	ldr	r0, [r4, #52]	; 0x34
 80036be:	f422 6200 	bic.w	r2, r2, #2048	; 0x800
 80036c2:	605a      	str	r2, [r3, #4]
 80036c4:	f890 3021 	ldrb.w	r3, [r0, #33]	; 0x21
 80036c8:	2b01      	cmp	r3, #1
 80036ca:	4b37      	ldr	r3, [pc, #220]	; (80037a8 <I2C_ITError+0x148>)
 80036cc:	d02b      	beq.n	8003726 <I2C_ITError+0xc6>
 80036ce:	6343      	str	r3, [r0, #52]	; 0x34
 80036d0:	f7ff f8d2 	bl	8002878 <HAL_DMA_Abort_IT>
 80036d4:	b150      	cbz	r0, 80036ec <I2C_ITError+0x8c>
 80036d6:	6822      	ldr	r2, [r4, #0]
 80036d8:	6b60      	ldr	r0, [r4, #52]	; 0x34
 80036da:	6813      	ldr	r3, [r2, #0]
 80036dc:	f023 0301 	bic.w	r3, r3, #1
 80036e0:	6013      	str	r3, [r2, #0]
 80036e2:	2320      	movs	r3, #32
 80036e4:	f884 303d 	strb.w	r3, [r4, #61]	; 0x3d
 80036e8:	6b43      	ldr	r3, [r0, #52]	; 0x34
 80036ea:	4798      	blx	r3
 80036ec:	6c23      	ldr	r3, [r4, #64]	; 0x40
 80036ee:	0719      	lsls	r1, r3, #28
 80036f0:	bf1f      	itttt	ne
 80036f2:	6822      	ldrne	r2, [r4, #0]
 80036f4:	6853      	ldrne	r3, [r2, #4]
 80036f6:	f423 63e0 	bicne.w	r3, r3, #1792	; 0x700
 80036fa:	6053      	strne	r3, [r2, #4]
 80036fc:	f894 303d 	ldrb.w	r3, [r4, #61]	; 0x3d
 8003700:	6c22      	ldr	r2, [r4, #64]	; 0x40
 8003702:	b2db      	uxtb	r3, r3
 8003704:	0752      	lsls	r2, r2, #29
 8003706:	d50d      	bpl.n	8003724 <I2C_ITError+0xc4>
 8003708:	2b28      	cmp	r3, #40	; 0x28
 800370a:	d10b      	bne.n	8003724 <I2C_ITError+0xc4>
 800370c:	4b27      	ldr	r3, [pc, #156]	; (80037ac <I2C_ITError+0x14c>)
 800370e:	2220      	movs	r2, #32
 8003710:	62e3      	str	r3, [r4, #44]	; 0x2c
 8003712:	2300      	movs	r3, #0
 8003714:	4620      	mov	r0, r4
 8003716:	6323      	str	r3, [r4, #48]	; 0x30
 8003718:	f884 203d 	strb.w	r2, [r4, #61]	; 0x3d
 800371c:	f884 303e 	strb.w	r3, [r4, #62]	; 0x3e
 8003720:	f7ff fe49 	bl	80033b6 <HAL_I2C_ListenCpltCallback>
 8003724:	bd10      	pop	{r4, pc}
 8003726:	6ba0      	ldr	r0, [r4, #56]	; 0x38
 8003728:	6343      	str	r3, [r0, #52]	; 0x34
 800372a:	f7ff f8a5 	bl	8002878 <HAL_DMA_Abort_IT>
 800372e:	2800      	cmp	r0, #0
 8003730:	d0dc      	beq.n	80036ec <I2C_ITError+0x8c>
 8003732:	6823      	ldr	r3, [r4, #0]
 8003734:	695a      	ldr	r2, [r3, #20]
 8003736:	0651      	lsls	r1, r2, #25
 8003738:	d505      	bpl.n	8003746 <I2C_ITError+0xe6>
 800373a:	691a      	ldr	r2, [r3, #16]
 800373c:	6a63      	ldr	r3, [r4, #36]	; 0x24
 800373e:	701a      	strb	r2, [r3, #0]
 8003740:	6a63      	ldr	r3, [r4, #36]	; 0x24
 8003742:	3301      	adds	r3, #1
 8003744:	6263      	str	r3, [r4, #36]	; 0x24
 8003746:	6822      	ldr	r2, [r4, #0]
 8003748:	6ba0      	ldr	r0, [r4, #56]	; 0x38
 800374a:	6813      	ldr	r3, [r2, #0]
 800374c:	f023 0301 	bic.w	r3, r3, #1
 8003750:	6013      	str	r3, [r2, #0]
 8003752:	2320      	movs	r3, #32
 8003754:	f884 303d 	strb.w	r3, [r4, #61]	; 0x3d
 8003758:	e7c6      	b.n	80036e8 <I2C_ITError+0x88>
 800375a:	f894 103d 	ldrb.w	r1, [r4, #61]	; 0x3d
 800375e:	2960      	cmp	r1, #96	; 0x60
 8003760:	d115      	bne.n	800378e <I2C_ITError+0x12e>
 8003762:	2120      	movs	r1, #32
 8003764:	f884 103d 	strb.w	r1, [r4, #61]	; 0x3d
 8003768:	6422      	str	r2, [r4, #64]	; 0x40
 800376a:	695a      	ldr	r2, [r3, #20]
 800376c:	0652      	lsls	r2, r2, #25
 800376e:	d505      	bpl.n	800377c <I2C_ITError+0x11c>
 8003770:	691a      	ldr	r2, [r3, #16]
 8003772:	6a63      	ldr	r3, [r4, #36]	; 0x24
 8003774:	701a      	strb	r2, [r3, #0]
 8003776:	6a63      	ldr	r3, [r4, #36]	; 0x24
 8003778:	3301      	adds	r3, #1
 800377a:	6263      	str	r3, [r4, #36]	; 0x24
 800377c:	6822      	ldr	r2, [r4, #0]
 800377e:	4620      	mov	r0, r4
 8003780:	6813      	ldr	r3, [r2, #0]
 8003782:	f023 0301 	bic.w	r3, r3, #1
 8003786:	6013      	str	r3, [r2, #0]
 8003788:	f7ff ff09 	bl	800359e <HAL_I2C_AbortCpltCallback>
 800378c:	e7ae      	b.n	80036ec <I2C_ITError+0x8c>
 800378e:	695a      	ldr	r2, [r3, #20]
 8003790:	0650      	lsls	r0, r2, #25
 8003792:	d505      	bpl.n	80037a0 <I2C_ITError+0x140>
 8003794:	691a      	ldr	r2, [r3, #16]
 8003796:	6a63      	ldr	r3, [r4, #36]	; 0x24
 8003798:	701a      	strb	r2, [r3, #0]
 800379a:	6a63      	ldr	r3, [r4, #36]	; 0x24
 800379c:	3301      	adds	r3, #1
 800379e:	6263      	str	r3, [r4, #36]	; 0x24
 80037a0:	4620      	mov	r0, r4
 80037a2:	f001 fdff 	bl	80053a4 <HAL_I2C_ErrorCallback>
 80037a6:	e7a1      	b.n	80036ec <I2C_ITError+0x8c>
 80037a8:	080035a1 	.word	0x080035a1
 80037ac:	ffff0000 	.word	0xffff0000

080037b0 <HAL_I2C_EV_IRQHandler>:
 80037b0:	b5f0      	push	{r4, r5, r6, r7, lr}
 80037b2:	4604      	mov	r4, r0
 80037b4:	6803      	ldr	r3, [r0, #0]
 80037b6:	b08f      	sub	sp, #60	; 0x3c
 80037b8:	685a      	ldr	r2, [r3, #4]
 80037ba:	6ac6      	ldr	r6, [r0, #44]	; 0x2c
 80037bc:	f890 003e 	ldrb.w	r0, [r0, #62]	; 0x3e
 80037c0:	f894 103d 	ldrb.w	r1, [r4, #61]	; 0x3d
 80037c4:	2810      	cmp	r0, #16
 80037c6:	b2c5      	uxtb	r5, r0
 80037c8:	b2c9      	uxtb	r1, r1
 80037ca:	d002      	beq.n	80037d2 <HAL_I2C_EV_IRQHandler+0x22>
 80037cc:	2d40      	cmp	r5, #64	; 0x40
 80037ce:	f040 82ca 	bne.w	8003d66 <HAL_I2C_EV_IRQHandler+0x5b6>
 80037d2:	699f      	ldr	r7, [r3, #24]
 80037d4:	6958      	ldr	r0, [r3, #20]
 80037d6:	f010 0f01 	tst.w	r0, #1
 80037da:	d107      	bne.n	80037ec <HAL_I2C_EV_IRQHandler+0x3c>
 80037dc:	f5b6 0f2a 	cmp.w	r6, #11141120	; 0xaa0000
 80037e0:	d002      	beq.n	80037e8 <HAL_I2C_EV_IRQHandler+0x38>
 80037e2:	f1b6 4f2a 	cmp.w	r6, #2852126720	; 0xaa000000
 80037e6:	d151      	bne.n	800388c <HAL_I2C_EV_IRQHandler+0xdc>
 80037e8:	b00f      	add	sp, #60	; 0x3c
 80037ea:	bdf0      	pop	{r4, r5, r6, r7, pc}
 80037ec:	0596      	lsls	r6, r2, #22
 80037ee:	d54d      	bpl.n	800388c <HAL_I2C_EV_IRQHandler+0xdc>
 80037f0:	6ae2      	ldr	r2, [r4, #44]	; 0x2c
 80037f2:	f5b2 0f2a 	cmp.w	r2, #11141120	; 0xaa0000
 80037f6:	d10c      	bne.n	8003812 <HAL_I2C_EV_IRQHandler+0x62>
 80037f8:	2201      	movs	r2, #1
 80037fa:	62e2      	str	r2, [r4, #44]	; 0x2c
 80037fc:	f894 203e 	ldrb.w	r2, [r4, #62]	; 0x3e
 8003800:	2a40      	cmp	r2, #64	; 0x40
 8003802:	d111      	bne.n	8003828 <HAL_I2C_EV_IRQHandler+0x78>
 8003804:	6d22      	ldr	r2, [r4, #80]	; 0x50
 8003806:	b952      	cbnz	r2, 800381e <HAL_I2C_EV_IRQHandler+0x6e>
 8003808:	6c62      	ldr	r2, [r4, #68]	; 0x44
 800380a:	f002 02fe 	and.w	r2, r2, #254	; 0xfe
 800380e:	611a      	str	r2, [r3, #16]
 8003810:	e7ea      	b.n	80037e8 <HAL_I2C_EV_IRQHandler+0x38>
 8003812:	6ae2      	ldr	r2, [r4, #44]	; 0x2c
 8003814:	f1b2 4f2a 	cmp.w	r2, #2852126720	; 0xaa000000
 8003818:	d1f0      	bne.n	80037fc <HAL_I2C_EV_IRQHandler+0x4c>
 800381a:	2208      	movs	r2, #8
 800381c:	e7ed      	b.n	80037fa <HAL_I2C_EV_IRQHandler+0x4a>
 800381e:	6c62      	ldr	r2, [r4, #68]	; 0x44
 8003820:	f042 0201 	orr.w	r2, r2, #1
 8003824:	b2d2      	uxtb	r2, r2
 8003826:	e7f2      	b.n	800380e <HAL_I2C_EV_IRQHandler+0x5e>
 8003828:	6922      	ldr	r2, [r4, #16]
 800382a:	f5b2 4f80 	cmp.w	r2, #16384	; 0x4000
 800382e:	d11a      	bne.n	8003866 <HAL_I2C_EV_IRQHandler+0xb6>
 8003830:	f894 203d 	ldrb.w	r2, [r4, #61]	; 0x3d
 8003834:	2a21      	cmp	r2, #33	; 0x21
 8003836:	6c62      	ldr	r2, [r4, #68]	; 0x44
 8003838:	d111      	bne.n	800385e <HAL_I2C_EV_IRQHandler+0xae>
 800383a:	f002 02fe 	and.w	r2, r2, #254	; 0xfe
 800383e:	611a      	str	r2, [r3, #16]
 8003840:	6b62      	ldr	r2, [r4, #52]	; 0x34
 8003842:	b10a      	cbz	r2, 8003848 <HAL_I2C_EV_IRQHandler+0x98>
 8003844:	6a92      	ldr	r2, [r2, #40]	; 0x28
 8003846:	b92a      	cbnz	r2, 8003854 <HAL_I2C_EV_IRQHandler+0xa4>
 8003848:	6ba2      	ldr	r2, [r4, #56]	; 0x38
 800384a:	2a00      	cmp	r2, #0
 800384c:	d0cc      	beq.n	80037e8 <HAL_I2C_EV_IRQHandler+0x38>
 800384e:	6a92      	ldr	r2, [r2, #40]	; 0x28
 8003850:	2a00      	cmp	r2, #0
 8003852:	d0c9      	beq.n	80037e8 <HAL_I2C_EV_IRQHandler+0x38>
 8003854:	685a      	ldr	r2, [r3, #4]
 8003856:	f442 6200 	orr.w	r2, r2, #2048	; 0x800
 800385a:	605a      	str	r2, [r3, #4]
 800385c:	e7c4      	b.n	80037e8 <HAL_I2C_EV_IRQHandler+0x38>
 800385e:	f042 0201 	orr.w	r2, r2, #1
 8003862:	b2d2      	uxtb	r2, r2
 8003864:	e7eb      	b.n	800383e <HAL_I2C_EV_IRQHandler+0x8e>
 8003866:	6d22      	ldr	r2, [r4, #80]	; 0x50
 8003868:	b932      	cbnz	r2, 8003878 <HAL_I2C_EV_IRQHandler+0xc8>
 800386a:	6c62      	ldr	r2, [r4, #68]	; 0x44
 800386c:	11d2      	asrs	r2, r2, #7
 800386e:	f002 0206 	and.w	r2, r2, #6
 8003872:	f042 02f0 	orr.w	r2, r2, #240	; 0xf0
 8003876:	e7ca      	b.n	800380e <HAL_I2C_EV_IRQHandler+0x5e>
 8003878:	6d22      	ldr	r2, [r4, #80]	; 0x50
 800387a:	2a01      	cmp	r2, #1
 800387c:	d1b4      	bne.n	80037e8 <HAL_I2C_EV_IRQHandler+0x38>
 800387e:	6c62      	ldr	r2, [r4, #68]	; 0x44
 8003880:	11d2      	asrs	r2, r2, #7
 8003882:	f002 0206 	and.w	r2, r2, #6
 8003886:	f042 02f1 	orr.w	r2, r2, #241	; 0xf1
 800388a:	e7c0      	b.n	800380e <HAL_I2C_EV_IRQHandler+0x5e>
 800388c:	0706      	lsls	r6, r0, #28
 800388e:	d503      	bpl.n	8003898 <HAL_I2C_EV_IRQHandler+0xe8>
 8003890:	0596      	lsls	r6, r2, #22
 8003892:	d501      	bpl.n	8003898 <HAL_I2C_EV_IRQHandler+0xe8>
 8003894:	6c62      	ldr	r2, [r4, #68]	; 0x44
 8003896:	e7e4      	b.n	8003862 <HAL_I2C_EV_IRQHandler+0xb2>
 8003898:	0786      	lsls	r6, r0, #30
 800389a:	f140 80e6 	bpl.w	8003a6a <HAL_I2C_EV_IRQHandler+0x2ba>
 800389e:	0596      	lsls	r6, r2, #22
 80038a0:	f140 80e3 	bpl.w	8003a6a <HAL_I2C_EV_IRQHandler+0x2ba>
 80038a4:	f894 103e 	ldrb.w	r1, [r4, #62]	; 0x3e
 80038a8:	6ae2      	ldr	r2, [r4, #44]	; 0x2c
 80038aa:	6b25      	ldr	r5, [r4, #48]	; 0x30
 80038ac:	f894 003d 	ldrb.w	r0, [r4, #61]	; 0x3d
 80038b0:	b2c9      	uxtb	r1, r1
 80038b2:	2822      	cmp	r0, #34	; 0x22
 80038b4:	f040 80d1 	bne.w	8003a5a <HAL_I2C_EV_IRQHandler+0x2aa>
 80038b8:	6d20      	ldr	r0, [r4, #80]	; 0x50
 80038ba:	b940      	cbnz	r0, 80038ce <HAL_I2C_EV_IRQHandler+0x11e>
 80038bc:	2940      	cmp	r1, #64	; 0x40
 80038be:	d106      	bne.n	80038ce <HAL_I2C_EV_IRQHandler+0x11e>
 80038c0:	9000      	str	r0, [sp, #0]
 80038c2:	695a      	ldr	r2, [r3, #20]
 80038c4:	9200      	str	r2, [sp, #0]
 80038c6:	699b      	ldr	r3, [r3, #24]
 80038c8:	9300      	str	r3, [sp, #0]
 80038ca:	9b00      	ldr	r3, [sp, #0]
 80038cc:	e78c      	b.n	80037e8 <HAL_I2C_EV_IRQHandler+0x38>
 80038ce:	6d21      	ldr	r1, [r4, #80]	; 0x50
 80038d0:	b989      	cbnz	r1, 80038f6 <HAL_I2C_EV_IRQHandler+0x146>
 80038d2:	6920      	ldr	r0, [r4, #16]
 80038d4:	f5b0 4f40 	cmp.w	r0, #49152	; 0xc000
 80038d8:	d10d      	bne.n	80038f6 <HAL_I2C_EV_IRQHandler+0x146>
 80038da:	9101      	str	r1, [sp, #4]
 80038dc:	695a      	ldr	r2, [r3, #20]
 80038de:	9201      	str	r2, [sp, #4]
 80038e0:	699a      	ldr	r2, [r3, #24]
 80038e2:	9201      	str	r2, [sp, #4]
 80038e4:	9a01      	ldr	r2, [sp, #4]
 80038e6:	681a      	ldr	r2, [r3, #0]
 80038e8:	f442 7280 	orr.w	r2, r2, #256	; 0x100
 80038ec:	601a      	str	r2, [r3, #0]
 80038ee:	6d23      	ldr	r3, [r4, #80]	; 0x50
 80038f0:	3301      	adds	r3, #1
 80038f2:	6523      	str	r3, [r4, #80]	; 0x50
 80038f4:	e778      	b.n	80037e8 <HAL_I2C_EV_IRQHandler+0x38>
 80038f6:	8d61      	ldrh	r1, [r4, #42]	; 0x2a
 80038f8:	b289      	uxth	r1, r1
 80038fa:	b951      	cbnz	r1, 8003912 <HAL_I2C_EV_IRQHandler+0x162>
 80038fc:	9102      	str	r1, [sp, #8]
 80038fe:	695a      	ldr	r2, [r3, #20]
 8003900:	9202      	str	r2, [sp, #8]
 8003902:	699a      	ldr	r2, [r3, #24]
 8003904:	9202      	str	r2, [sp, #8]
 8003906:	9a02      	ldr	r2, [sp, #8]
 8003908:	681a      	ldr	r2, [r3, #0]
 800390a:	f442 7200 	orr.w	r2, r2, #512	; 0x200
 800390e:	601a      	str	r2, [r3, #0]
 8003910:	e019      	b.n	8003946 <HAL_I2C_EV_IRQHandler+0x196>
 8003912:	8d61      	ldrh	r1, [r4, #42]	; 0x2a
 8003914:	b289      	uxth	r1, r1
 8003916:	2901      	cmp	r1, #1
 8003918:	d149      	bne.n	80039ae <HAL_I2C_EV_IRQHandler+0x1fe>
 800391a:	f512 3f80 	cmn.w	r2, #65536	; 0x10000
 800391e:	d11b      	bne.n	8003958 <HAL_I2C_EV_IRQHandler+0x1a8>
 8003920:	681a      	ldr	r2, [r3, #0]
 8003922:	f422 6280 	bic.w	r2, r2, #1024	; 0x400
 8003926:	601a      	str	r2, [r3, #0]
 8003928:	685a      	ldr	r2, [r3, #4]
 800392a:	f412 6200 	ands.w	r2, r2, #2048	; 0x800
 800392e:	d00c      	beq.n	800394a <HAL_I2C_EV_IRQHandler+0x19a>
 8003930:	681a      	ldr	r2, [r3, #0]
 8003932:	f422 6280 	bic.w	r2, r2, #1024	; 0x400
 8003936:	601a      	str	r2, [r3, #0]
 8003938:	2200      	movs	r2, #0
 800393a:	9203      	str	r2, [sp, #12]
 800393c:	695a      	ldr	r2, [r3, #20]
 800393e:	9203      	str	r2, [sp, #12]
 8003940:	699b      	ldr	r3, [r3, #24]
 8003942:	9303      	str	r3, [sp, #12]
 8003944:	9b03      	ldr	r3, [sp, #12]
 8003946:	2300      	movs	r3, #0
 8003948:	e7d3      	b.n	80038f2 <HAL_I2C_EV_IRQHandler+0x142>
 800394a:	9204      	str	r2, [sp, #16]
 800394c:	695a      	ldr	r2, [r3, #20]
 800394e:	9204      	str	r2, [sp, #16]
 8003950:	699a      	ldr	r2, [r3, #24]
 8003952:	9204      	str	r2, [sp, #16]
 8003954:	9a04      	ldr	r2, [sp, #16]
 8003956:	e7d7      	b.n	8003908 <HAL_I2C_EV_IRQHandler+0x158>
 8003958:	2a08      	cmp	r2, #8
 800395a:	d01c      	beq.n	8003996 <HAL_I2C_EV_IRQHandler+0x1e6>
 800395c:	2a20      	cmp	r2, #32
 800395e:	d01a      	beq.n	8003996 <HAL_I2C_EV_IRQHandler+0x1e6>
 8003960:	2d12      	cmp	r5, #18
 8003962:	d10d      	bne.n	8003980 <HAL_I2C_EV_IRQHandler+0x1d0>
 8003964:	2a01      	cmp	r2, #1
 8003966:	d116      	bne.n	8003996 <HAL_I2C_EV_IRQHandler+0x1e6>
 8003968:	681a      	ldr	r2, [r3, #0]
 800396a:	f422 6280 	bic.w	r2, r2, #1024	; 0x400
 800396e:	601a      	str	r2, [r3, #0]
 8003970:	2200      	movs	r2, #0
 8003972:	9205      	str	r2, [sp, #20]
 8003974:	695a      	ldr	r2, [r3, #20]
 8003976:	9205      	str	r2, [sp, #20]
 8003978:	699b      	ldr	r3, [r3, #24]
 800397a:	9305      	str	r3, [sp, #20]
 800397c:	9b05      	ldr	r3, [sp, #20]
 800397e:	e7e2      	b.n	8003946 <HAL_I2C_EV_IRQHandler+0x196>
 8003980:	2a10      	cmp	r2, #16
 8003982:	d8f1      	bhi.n	8003968 <HAL_I2C_EV_IRQHandler+0x1b8>
 8003984:	4996      	ldr	r1, [pc, #600]	; (8003be0 <HAL_I2C_EV_IRQHandler+0x430>)
 8003986:	fa21 f202 	lsr.w	r2, r1, r2
 800398a:	07d6      	lsls	r6, r2, #31
 800398c:	d5ec      	bpl.n	8003968 <HAL_I2C_EV_IRQHandler+0x1b8>
 800398e:	681a      	ldr	r2, [r3, #0]
 8003990:	f442 6280 	orr.w	r2, r2, #1024	; 0x400
 8003994:	e7eb      	b.n	800396e <HAL_I2C_EV_IRQHandler+0x1be>
 8003996:	681a      	ldr	r2, [r3, #0]
 8003998:	f422 6280 	bic.w	r2, r2, #1024	; 0x400
 800399c:	601a      	str	r2, [r3, #0]
 800399e:	2200      	movs	r2, #0
 80039a0:	9206      	str	r2, [sp, #24]
 80039a2:	695a      	ldr	r2, [r3, #20]
 80039a4:	9206      	str	r2, [sp, #24]
 80039a6:	699a      	ldr	r2, [r3, #24]
 80039a8:	9206      	str	r2, [sp, #24]
 80039aa:	9a06      	ldr	r2, [sp, #24]
 80039ac:	e7ac      	b.n	8003908 <HAL_I2C_EV_IRQHandler+0x158>
 80039ae:	8d61      	ldrh	r1, [r4, #42]	; 0x2a
 80039b0:	b289      	uxth	r1, r1
 80039b2:	2902      	cmp	r1, #2
 80039b4:	d133      	bne.n	8003a1e <HAL_I2C_EV_IRQHandler+0x26e>
 80039b6:	2a10      	cmp	r2, #16
 80039b8:	d805      	bhi.n	80039c6 <HAL_I2C_EV_IRQHandler+0x216>
 80039ba:	4989      	ldr	r1, [pc, #548]	; (8003be0 <HAL_I2C_EV_IRQHandler+0x430>)
 80039bc:	40d1      	lsrs	r1, r2
 80039be:	43c9      	mvns	r1, r1
 80039c0:	f011 0101 	ands.w	r1, r1, #1
 80039c4:	d020      	beq.n	8003a08 <HAL_I2C_EV_IRQHandler+0x258>
 80039c6:	6819      	ldr	r1, [r3, #0]
 80039c8:	f441 6100 	orr.w	r1, r1, #2048	; 0x800
 80039cc:	6019      	str	r1, [r3, #0]
 80039ce:	2100      	movs	r1, #0
 80039d0:	9107      	str	r1, [sp, #28]
 80039d2:	6959      	ldr	r1, [r3, #20]
 80039d4:	9107      	str	r1, [sp, #28]
 80039d6:	6999      	ldr	r1, [r3, #24]
 80039d8:	9107      	str	r1, [sp, #28]
 80039da:	9907      	ldr	r1, [sp, #28]
 80039dc:	6819      	ldr	r1, [r3, #0]
 80039de:	f421 6180 	bic.w	r1, r1, #1024	; 0x400
 80039e2:	6019      	str	r1, [r3, #0]
 80039e4:	6859      	ldr	r1, [r3, #4]
 80039e6:	050d      	lsls	r5, r1, #20
 80039e8:	d5ad      	bpl.n	8003946 <HAL_I2C_EV_IRQHandler+0x196>
 80039ea:	f512 3f80 	cmn.w	r2, #65536	; 0x10000
 80039ee:	d006      	beq.n	80039fe <HAL_I2C_EV_IRQHandler+0x24e>
 80039f0:	1e51      	subs	r1, r2, #1
 80039f2:	291f      	cmp	r1, #31
 80039f4:	d8a7      	bhi.n	8003946 <HAL_I2C_EV_IRQHandler+0x196>
 80039f6:	4a7b      	ldr	r2, [pc, #492]	; (8003be4 <HAL_I2C_EV_IRQHandler+0x434>)
 80039f8:	40ca      	lsrs	r2, r1
 80039fa:	07d0      	lsls	r0, r2, #31
 80039fc:	d5a3      	bpl.n	8003946 <HAL_I2C_EV_IRQHandler+0x196>
 80039fe:	685a      	ldr	r2, [r3, #4]
 8003a00:	f442 5280 	orr.w	r2, r2, #4096	; 0x1000
 8003a04:	605a      	str	r2, [r3, #4]
 8003a06:	e79e      	b.n	8003946 <HAL_I2C_EV_IRQHandler+0x196>
 8003a08:	6818      	ldr	r0, [r3, #0]
 8003a0a:	f440 6080 	orr.w	r0, r0, #1024	; 0x400
 8003a0e:	6018      	str	r0, [r3, #0]
 8003a10:	9108      	str	r1, [sp, #32]
 8003a12:	6959      	ldr	r1, [r3, #20]
 8003a14:	9108      	str	r1, [sp, #32]
 8003a16:	6999      	ldr	r1, [r3, #24]
 8003a18:	9108      	str	r1, [sp, #32]
 8003a1a:	9908      	ldr	r1, [sp, #32]
 8003a1c:	e7e2      	b.n	80039e4 <HAL_I2C_EV_IRQHandler+0x234>
 8003a1e:	6819      	ldr	r1, [r3, #0]
 8003a20:	f441 6180 	orr.w	r1, r1, #1024	; 0x400
 8003a24:	6019      	str	r1, [r3, #0]
 8003a26:	6859      	ldr	r1, [r3, #4]
 8003a28:	0509      	lsls	r1, r1, #20
 8003a2a:	d50e      	bpl.n	8003a4a <HAL_I2C_EV_IRQHandler+0x29a>
 8003a2c:	f512 3f80 	cmn.w	r2, #65536	; 0x10000
 8003a30:	d007      	beq.n	8003a42 <HAL_I2C_EV_IRQHandler+0x292>
 8003a32:	3a01      	subs	r2, #1
 8003a34:	2a1f      	cmp	r2, #31
 8003a36:	d808      	bhi.n	8003a4a <HAL_I2C_EV_IRQHandler+0x29a>
 8003a38:	496a      	ldr	r1, [pc, #424]	; (8003be4 <HAL_I2C_EV_IRQHandler+0x434>)
 8003a3a:	fa21 f202 	lsr.w	r2, r1, r2
 8003a3e:	07d2      	lsls	r2, r2, #31
 8003a40:	d503      	bpl.n	8003a4a <HAL_I2C_EV_IRQHandler+0x29a>
 8003a42:	685a      	ldr	r2, [r3, #4]
 8003a44:	f442 5280 	orr.w	r2, r2, #4096	; 0x1000
 8003a48:	605a      	str	r2, [r3, #4]
 8003a4a:	2200      	movs	r2, #0
 8003a4c:	9209      	str	r2, [sp, #36]	; 0x24
 8003a4e:	695a      	ldr	r2, [r3, #20]
 8003a50:	9209      	str	r2, [sp, #36]	; 0x24
 8003a52:	699b      	ldr	r3, [r3, #24]
 8003a54:	9309      	str	r3, [sp, #36]	; 0x24
 8003a56:	9b09      	ldr	r3, [sp, #36]	; 0x24
 8003a58:	e775      	b.n	8003946 <HAL_I2C_EV_IRQHandler+0x196>
 8003a5a:	2200      	movs	r2, #0
 8003a5c:	920a      	str	r2, [sp, #40]	; 0x28
 8003a5e:	695a      	ldr	r2, [r3, #20]
 8003a60:	920a      	str	r2, [sp, #40]	; 0x28
 8003a62:	699b      	ldr	r3, [r3, #24]
 8003a64:	930a      	str	r3, [sp, #40]	; 0x28
 8003a66:	9b0a      	ldr	r3, [sp, #40]	; 0x28
 8003a68:	e6be      	b.n	80037e8 <HAL_I2C_EV_IRQHandler+0x38>
 8003a6a:	077f      	lsls	r7, r7, #29
 8003a6c:	f140 808d 	bpl.w	8003b8a <HAL_I2C_EV_IRQHandler+0x3da>
 8003a70:	685e      	ldr	r6, [r3, #4]
 8003a72:	0536      	lsls	r6, r6, #20
 8003a74:	f53f aeb8 	bmi.w	80037e8 <HAL_I2C_EV_IRQHandler+0x38>
 8003a78:	0607      	lsls	r7, r0, #24
 8003a7a:	f3c0 0680 	ubfx	r6, r0, #2, #1
 8003a7e:	d53e      	bpl.n	8003afe <HAL_I2C_EV_IRQHandler+0x34e>
 8003a80:	0550      	lsls	r0, r2, #21
 8003a82:	d53c      	bpl.n	8003afe <HAL_I2C_EV_IRQHandler+0x34e>
 8003a84:	2e00      	cmp	r6, #0
 8003a86:	d13d      	bne.n	8003b04 <HAL_I2C_EV_IRQHandler+0x354>
 8003a88:	f894 203d 	ldrb.w	r2, [r4, #61]	; 0x3d
 8003a8c:	8d25      	ldrh	r5, [r4, #40]	; 0x28
 8003a8e:	f894 103e 	ldrb.w	r1, [r4, #62]	; 0x3e
 8003a92:	b2d2      	uxtb	r2, r2
 8003a94:	6ae0      	ldr	r0, [r4, #44]	; 0x2c
 8003a96:	b2c9      	uxtb	r1, r1
 8003a98:	b9c5      	cbnz	r5, 8003acc <HAL_I2C_EV_IRQHandler+0x31c>
 8003a9a:	2a21      	cmp	r2, #33	; 0x21
 8003a9c:	d118      	bne.n	8003ad0 <HAL_I2C_EV_IRQHandler+0x320>
 8003a9e:	2808      	cmp	r0, #8
 8003aa0:	d058      	beq.n	8003b54 <HAL_I2C_EV_IRQHandler+0x3a4>
 8003aa2:	2820      	cmp	r0, #32
 8003aa4:	d056      	beq.n	8003b54 <HAL_I2C_EV_IRQHandler+0x3a4>
 8003aa6:	f510 3f80 	cmn.w	r0, #65536	; 0x10000
 8003aaa:	d053      	beq.n	8003b54 <HAL_I2C_EV_IRQHandler+0x3a4>
 8003aac:	685a      	ldr	r2, [r3, #4]
 8003aae:	f422 62e0 	bic.w	r2, r2, #1792	; 0x700
 8003ab2:	605a      	str	r2, [r3, #4]
 8003ab4:	2311      	movs	r3, #17
 8003ab6:	6323      	str	r3, [r4, #48]	; 0x30
 8003ab8:	2300      	movs	r3, #0
 8003aba:	f884 303e 	strb.w	r3, [r4, #62]	; 0x3e
 8003abe:	2320      	movs	r3, #32
 8003ac0:	4620      	mov	r0, r4
 8003ac2:	f884 303d 	strb.w	r3, [r4, #61]	; 0x3d
 8003ac6:	f7ff fc71 	bl	80033ac <HAL_I2C_MasterTxCpltCallback>
 8003aca:	e68d      	b.n	80037e8 <HAL_I2C_EV_IRQHandler+0x38>
 8003acc:	2a21      	cmp	r2, #33	; 0x21
 8003ace:	d005      	beq.n	8003adc <HAL_I2C_EV_IRQHandler+0x32c>
 8003ad0:	2940      	cmp	r1, #64	; 0x40
 8003ad2:	f47f ae89 	bne.w	80037e8 <HAL_I2C_EV_IRQHandler+0x38>
 8003ad6:	2a22      	cmp	r2, #34	; 0x22
 8003ad8:	f47f ae86 	bne.w	80037e8 <HAL_I2C_EV_IRQHandler+0x38>
 8003adc:	8d62      	ldrh	r2, [r4, #42]	; 0x2a
 8003ade:	b292      	uxth	r2, r2
 8003ae0:	b91a      	cbnz	r2, 8003aea <HAL_I2C_EV_IRQHandler+0x33a>
 8003ae2:	685a      	ldr	r2, [r3, #4]
 8003ae4:	f422 6280 	bic.w	r2, r2, #1024	; 0x400
 8003ae8:	e6b7      	b.n	800385a <HAL_I2C_EV_IRQHandler+0xaa>
 8003aea:	f894 203e 	ldrb.w	r2, [r4, #62]	; 0x3e
 8003aee:	2a40      	cmp	r2, #64	; 0x40
 8003af0:	d116      	bne.n	8003b20 <HAL_I2C_EV_IRQHandler+0x370>
 8003af2:	4620      	mov	r0, r4
 8003af4:	b00f      	add	sp, #60	; 0x3c
 8003af6:	e8bd 40f0 	ldmia.w	sp!, {r4, r5, r6, r7, lr}
 8003afa:	f7ff bc5d 	b.w	80033b8 <I2C_MemoryTransmit_TXE_BTF>
 8003afe:	2e00      	cmp	r6, #0
 8003b00:	f43f ae72 	beq.w	80037e8 <HAL_I2C_EV_IRQHandler+0x38>
 8003b04:	0597      	lsls	r7, r2, #22
 8003b06:	f57f ae6f 	bpl.w	80037e8 <HAL_I2C_EV_IRQHandler+0x38>
 8003b0a:	2921      	cmp	r1, #33	; 0x21
 8003b0c:	d139      	bne.n	8003b82 <HAL_I2C_EV_IRQHandler+0x3d2>
 8003b0e:	6ae1      	ldr	r1, [r4, #44]	; 0x2c
 8003b10:	f894 203d 	ldrb.w	r2, [r4, #61]	; 0x3d
 8003b14:	2a21      	cmp	r2, #33	; 0x21
 8003b16:	f47f ae67 	bne.w	80037e8 <HAL_I2C_EV_IRQHandler+0x38>
 8003b1a:	8d62      	ldrh	r2, [r4, #42]	; 0x2a
 8003b1c:	b292      	uxth	r2, r2
 8003b1e:	b14a      	cbz	r2, 8003b34 <HAL_I2C_EV_IRQHandler+0x384>
 8003b20:	6a62      	ldr	r2, [r4, #36]	; 0x24
 8003b22:	f812 1b01 	ldrb.w	r1, [r2], #1
 8003b26:	6119      	str	r1, [r3, #16]
 8003b28:	6262      	str	r2, [r4, #36]	; 0x24
 8003b2a:	8d63      	ldrh	r3, [r4, #42]	; 0x2a
 8003b2c:	3b01      	subs	r3, #1
 8003b2e:	b29b      	uxth	r3, r3
 8003b30:	8563      	strh	r3, [r4, #42]	; 0x2a
 8003b32:	e659      	b.n	80037e8 <HAL_I2C_EV_IRQHandler+0x38>
 8003b34:	2908      	cmp	r1, #8
 8003b36:	d00d      	beq.n	8003b54 <HAL_I2C_EV_IRQHandler+0x3a4>
 8003b38:	2920      	cmp	r1, #32
 8003b3a:	d00b      	beq.n	8003b54 <HAL_I2C_EV_IRQHandler+0x3a4>
 8003b3c:	f511 3f80 	cmn.w	r1, #65536	; 0x10000
 8003b40:	d008      	beq.n	8003b54 <HAL_I2C_EV_IRQHandler+0x3a4>
 8003b42:	6859      	ldr	r1, [r3, #4]
 8003b44:	f421 61e0 	bic.w	r1, r1, #1792	; 0x700
 8003b48:	6059      	str	r1, [r3, #4]
 8003b4a:	2311      	movs	r3, #17
 8003b4c:	6323      	str	r3, [r4, #48]	; 0x30
 8003b4e:	f884 203e 	strb.w	r2, [r4, #62]	; 0x3e
 8003b52:	e7b4      	b.n	8003abe <HAL_I2C_EV_IRQHandler+0x30e>
 8003b54:	685a      	ldr	r2, [r3, #4]
 8003b56:	4620      	mov	r0, r4
 8003b58:	f422 62e0 	bic.w	r2, r2, #1792	; 0x700
 8003b5c:	605a      	str	r2, [r3, #4]
 8003b5e:	681a      	ldr	r2, [r3, #0]
 8003b60:	f442 7200 	orr.w	r2, r2, #512	; 0x200
 8003b64:	601a      	str	r2, [r3, #0]
 8003b66:	2300      	movs	r3, #0
 8003b68:	2220      	movs	r2, #32
 8003b6a:	6323      	str	r3, [r4, #48]	; 0x30
 8003b6c:	f884 203d 	strb.w	r2, [r4, #61]	; 0x3d
 8003b70:	f894 203e 	ldrb.w	r2, [r4, #62]	; 0x3e
 8003b74:	f884 303e 	strb.w	r3, [r4, #62]	; 0x3e
 8003b78:	2a40      	cmp	r2, #64	; 0x40
 8003b7a:	d1a4      	bne.n	8003ac6 <HAL_I2C_EV_IRQHandler+0x316>
 8003b7c:	f001 fc0c 	bl	8005398 <HAL_I2C_MemTxCpltCallback>
 8003b80:	e632      	b.n	80037e8 <HAL_I2C_EV_IRQHandler+0x38>
 8003b82:	2d40      	cmp	r5, #64	; 0x40
 8003b84:	f47f ae30 	bne.w	80037e8 <HAL_I2C_EV_IRQHandler+0x38>
 8003b88:	e7b3      	b.n	8003af2 <HAL_I2C_EV_IRQHandler+0x342>
 8003b8a:	6859      	ldr	r1, [r3, #4]
 8003b8c:	050e      	lsls	r6, r1, #20
 8003b8e:	f53f ae2b 	bmi.w	80037e8 <HAL_I2C_EV_IRQHandler+0x38>
 8003b92:	0645      	lsls	r5, r0, #25
 8003b94:	f3c0 0180 	ubfx	r1, r0, #2, #1
 8003b98:	d57b      	bpl.n	8003c92 <HAL_I2C_EV_IRQHandler+0x4e2>
 8003b9a:	0550      	lsls	r0, r2, #21
 8003b9c:	d579      	bpl.n	8003c92 <HAL_I2C_EV_IRQHandler+0x4e2>
 8003b9e:	2900      	cmp	r1, #0
 8003ba0:	d17a      	bne.n	8003c98 <HAL_I2C_EV_IRQHandler+0x4e8>
 8003ba2:	f894 203d 	ldrb.w	r2, [r4, #61]	; 0x3d
 8003ba6:	2a22      	cmp	r2, #34	; 0x22
 8003ba8:	f47f ae1e 	bne.w	80037e8 <HAL_I2C_EV_IRQHandler+0x38>
 8003bac:	8d62      	ldrh	r2, [r4, #42]	; 0x2a
 8003bae:	b292      	uxth	r2, r2
 8003bb0:	2a03      	cmp	r2, #3
 8003bb2:	d919      	bls.n	8003be8 <HAL_I2C_EV_IRQHandler+0x438>
 8003bb4:	691a      	ldr	r2, [r3, #16]
 8003bb6:	6a63      	ldr	r3, [r4, #36]	; 0x24
 8003bb8:	701a      	strb	r2, [r3, #0]
 8003bba:	6a63      	ldr	r3, [r4, #36]	; 0x24
 8003bbc:	3301      	adds	r3, #1
 8003bbe:	6263      	str	r3, [r4, #36]	; 0x24
 8003bc0:	8d63      	ldrh	r3, [r4, #42]	; 0x2a
 8003bc2:	3b01      	subs	r3, #1
 8003bc4:	b29b      	uxth	r3, r3
 8003bc6:	8563      	strh	r3, [r4, #42]	; 0x2a
 8003bc8:	8d63      	ldrh	r3, [r4, #42]	; 0x2a
 8003bca:	b29b      	uxth	r3, r3
 8003bcc:	2b03      	cmp	r3, #3
 8003bce:	f47f ae0b 	bne.w	80037e8 <HAL_I2C_EV_IRQHandler+0x38>
 8003bd2:	6822      	ldr	r2, [r4, #0]
 8003bd4:	6853      	ldr	r3, [r2, #4]
 8003bd6:	f423 6380 	bic.w	r3, r3, #1024	; 0x400
 8003bda:	6053      	str	r3, [r2, #4]
 8003bdc:	e604      	b.n	80037e8 <HAL_I2C_EV_IRQHandler+0x38>
 8003bde:	bf00      	nop
 8003be0:	00010014 	.word	0x00010014
 8003be4:	80008081 	.word	0x80008081
 8003be8:	6ae0      	ldr	r0, [r4, #44]	; 0x2c
 8003bea:	2802      	cmp	r0, #2
 8003bec:	f43f adfc 	beq.w	80037e8 <HAL_I2C_EV_IRQHandler+0x38>
 8003bf0:	2a01      	cmp	r2, #1
 8003bf2:	f63f adf9 	bhi.w	80037e8 <HAL_I2C_EV_IRQHandler+0x38>
 8003bf6:	910b      	str	r1, [sp, #44]	; 0x2c
 8003bf8:	f246 11a8 	movw	r1, #25000	; 0x61a8
 8003bfc:	4a72      	ldr	r2, [pc, #456]	; (8003dc8 <HAL_I2C_EV_IRQHandler+0x618>)
 8003bfe:	6812      	ldr	r2, [r2, #0]
 8003c00:	fbb2 f2f1 	udiv	r2, r2, r1
 8003c04:	eb02 0282 	add.w	r2, r2, r2, lsl #2
 8003c08:	920b      	str	r2, [sp, #44]	; 0x2c
 8003c0a:	9a0b      	ldr	r2, [sp, #44]	; 0x2c
 8003c0c:	3a01      	subs	r2, #1
 8003c0e:	920b      	str	r2, [sp, #44]	; 0x2c
 8003c10:	990b      	ldr	r1, [sp, #44]	; 0x2c
 8003c12:	b9d1      	cbnz	r1, 8003c4a <HAL_I2C_EV_IRQHandler+0x49a>
 8003c14:	6c22      	ldr	r2, [r4, #64]	; 0x40
 8003c16:	4620      	mov	r0, r4
 8003c18:	f042 0220 	orr.w	r2, r2, #32
 8003c1c:	6422      	str	r2, [r4, #64]	; 0x40
 8003c1e:	685a      	ldr	r2, [r3, #4]
 8003c20:	f422 62e0 	bic.w	r2, r2, #1792	; 0x700
 8003c24:	605a      	str	r2, [r3, #4]
 8003c26:	691a      	ldr	r2, [r3, #16]
 8003c28:	6a63      	ldr	r3, [r4, #36]	; 0x24
 8003c2a:	701a      	strb	r2, [r3, #0]
 8003c2c:	6a63      	ldr	r3, [r4, #36]	; 0x24
 8003c2e:	3301      	adds	r3, #1
 8003c30:	6263      	str	r3, [r4, #36]	; 0x24
 8003c32:	8d63      	ldrh	r3, [r4, #42]	; 0x2a
 8003c34:	3b01      	subs	r3, #1
 8003c36:	b29b      	uxth	r3, r3
 8003c38:	8563      	strh	r3, [r4, #42]	; 0x2a
 8003c3a:	2320      	movs	r3, #32
 8003c3c:	f884 303d 	strb.w	r3, [r4, #61]	; 0x3d
 8003c40:	f884 103e 	strb.w	r1, [r4, #62]	; 0x3e
 8003c44:	f001 fbae 	bl	80053a4 <HAL_I2C_ErrorCallback>
 8003c48:	e5ce      	b.n	80037e8 <HAL_I2C_EV_IRQHandler+0x38>
 8003c4a:	681a      	ldr	r2, [r3, #0]
 8003c4c:	f412 7200 	ands.w	r2, r2, #512	; 0x200
 8003c50:	d1db      	bne.n	8003c0a <HAL_I2C_EV_IRQHandler+0x45a>
 8003c52:	6819      	ldr	r1, [r3, #0]
 8003c54:	f421 6180 	bic.w	r1, r1, #1024	; 0x400
 8003c58:	6019      	str	r1, [r3, #0]
 8003c5a:	6859      	ldr	r1, [r3, #4]
 8003c5c:	f421 61e0 	bic.w	r1, r1, #1792	; 0x700
 8003c60:	6059      	str	r1, [r3, #4]
 8003c62:	6919      	ldr	r1, [r3, #16]
 8003c64:	6a63      	ldr	r3, [r4, #36]	; 0x24
 8003c66:	7019      	strb	r1, [r3, #0]
 8003c68:	6a63      	ldr	r3, [r4, #36]	; 0x24
 8003c6a:	3301      	adds	r3, #1
 8003c6c:	6263      	str	r3, [r4, #36]	; 0x24
 8003c6e:	8d63      	ldrh	r3, [r4, #42]	; 0x2a
 8003c70:	3b01      	subs	r3, #1
 8003c72:	b29b      	uxth	r3, r3
 8003c74:	8563      	strh	r3, [r4, #42]	; 0x2a
 8003c76:	2320      	movs	r3, #32
 8003c78:	f884 303d 	strb.w	r3, [r4, #61]	; 0x3d
 8003c7c:	f894 303e 	ldrb.w	r3, [r4, #62]	; 0x3e
 8003c80:	f884 203e 	strb.w	r2, [r4, #62]	; 0x3e
 8003c84:	2b40      	cmp	r3, #64	; 0x40
 8003c86:	d168      	bne.n	8003d5a <HAL_I2C_EV_IRQHandler+0x5aa>
 8003c88:	6322      	str	r2, [r4, #48]	; 0x30
 8003c8a:	4620      	mov	r0, r4
 8003c8c:	f7ff fbe5 	bl	800345a <HAL_I2C_MemRxCpltCallback>
 8003c90:	e5aa      	b.n	80037e8 <HAL_I2C_EV_IRQHandler+0x38>
 8003c92:	2900      	cmp	r1, #0
 8003c94:	f43f ada8 	beq.w	80037e8 <HAL_I2C_EV_IRQHandler+0x38>
 8003c98:	0592      	lsls	r2, r2, #22
 8003c9a:	f57f ada5 	bpl.w	80037e8 <HAL_I2C_EV_IRQHandler+0x38>
 8003c9e:	6ae2      	ldr	r2, [r4, #44]	; 0x2c
 8003ca0:	8d60      	ldrh	r0, [r4, #42]	; 0x2a
 8003ca2:	6a61      	ldr	r1, [r4, #36]	; 0x24
 8003ca4:	b280      	uxth	r0, r0
 8003ca6:	2804      	cmp	r0, #4
 8003ca8:	d109      	bne.n	8003cbe <HAL_I2C_EV_IRQHandler+0x50e>
 8003caa:	685a      	ldr	r2, [r3, #4]
 8003cac:	f422 6280 	bic.w	r2, r2, #1024	; 0x400
 8003cb0:	605a      	str	r2, [r3, #4]
 8003cb2:	691b      	ldr	r3, [r3, #16]
 8003cb4:	700b      	strb	r3, [r1, #0]
 8003cb6:	6a63      	ldr	r3, [r4, #36]	; 0x24
 8003cb8:	3301      	adds	r3, #1
 8003cba:	6263      	str	r3, [r4, #36]	; 0x24
 8003cbc:	e735      	b.n	8003b2a <HAL_I2C_EV_IRQHandler+0x37a>
 8003cbe:	8d60      	ldrh	r0, [r4, #42]	; 0x2a
 8003cc0:	b280      	uxth	r0, r0
 8003cc2:	2803      	cmp	r0, #3
 8003cc4:	d10c      	bne.n	8003ce0 <HAL_I2C_EV_IRQHandler+0x530>
 8003cc6:	6858      	ldr	r0, [r3, #4]
 8003cc8:	2a04      	cmp	r2, #4
 8003cca:	f420 6080 	bic.w	r0, r0, #1024	; 0x400
 8003cce:	6058      	str	r0, [r3, #4]
 8003cd0:	d0ef      	beq.n	8003cb2 <HAL_I2C_EV_IRQHandler+0x502>
 8003cd2:	2a02      	cmp	r2, #2
 8003cd4:	d0ed      	beq.n	8003cb2 <HAL_I2C_EV_IRQHandler+0x502>
 8003cd6:	681a      	ldr	r2, [r3, #0]
 8003cd8:	f422 6280 	bic.w	r2, r2, #1024	; 0x400
 8003cdc:	601a      	str	r2, [r3, #0]
 8003cde:	e7e8      	b.n	8003cb2 <HAL_I2C_EV_IRQHandler+0x502>
 8003ce0:	8d60      	ldrh	r0, [r4, #42]	; 0x2a
 8003ce2:	b280      	uxth	r0, r0
 8003ce4:	2802      	cmp	r0, #2
 8003ce6:	d1e4      	bne.n	8003cb2 <HAL_I2C_EV_IRQHandler+0x502>
 8003ce8:	2a01      	cmp	r2, #1
 8003cea:	d001      	beq.n	8003cf0 <HAL_I2C_EV_IRQHandler+0x540>
 8003cec:	2a10      	cmp	r2, #16
 8003cee:	d128      	bne.n	8003d42 <HAL_I2C_EV_IRQHandler+0x592>
 8003cf0:	681a      	ldr	r2, [r3, #0]
 8003cf2:	f422 6280 	bic.w	r2, r2, #1024	; 0x400
 8003cf6:	601a      	str	r2, [r3, #0]
 8003cf8:	691b      	ldr	r3, [r3, #16]
 8003cfa:	700b      	strb	r3, [r1, #0]
 8003cfc:	6a62      	ldr	r2, [r4, #36]	; 0x24
 8003cfe:	1c53      	adds	r3, r2, #1
 8003d00:	6263      	str	r3, [r4, #36]	; 0x24
 8003d02:	8d63      	ldrh	r3, [r4, #42]	; 0x2a
 8003d04:	3b01      	subs	r3, #1
 8003d06:	b29b      	uxth	r3, r3
 8003d08:	8563      	strh	r3, [r4, #42]	; 0x2a
 8003d0a:	6823      	ldr	r3, [r4, #0]
 8003d0c:	691b      	ldr	r3, [r3, #16]
 8003d0e:	7053      	strb	r3, [r2, #1]
 8003d10:	6a63      	ldr	r3, [r4, #36]	; 0x24
 8003d12:	6822      	ldr	r2, [r4, #0]
 8003d14:	3301      	adds	r3, #1
 8003d16:	6263      	str	r3, [r4, #36]	; 0x24
 8003d18:	8d63      	ldrh	r3, [r4, #42]	; 0x2a
 8003d1a:	3b01      	subs	r3, #1
 8003d1c:	b29b      	uxth	r3, r3
 8003d1e:	8563      	strh	r3, [r4, #42]	; 0x2a
 8003d20:	6853      	ldr	r3, [r2, #4]
 8003d22:	f423 7340 	bic.w	r3, r3, #768	; 0x300
 8003d26:	6053      	str	r3, [r2, #4]
 8003d28:	2320      	movs	r3, #32
 8003d2a:	f884 303d 	strb.w	r3, [r4, #61]	; 0x3d
 8003d2e:	f894 303e 	ldrb.w	r3, [r4, #62]	; 0x3e
 8003d32:	2b40      	cmp	r3, #64	; 0x40
 8003d34:	f04f 0300 	mov.w	r3, #0
 8003d38:	f884 303e 	strb.w	r3, [r4, #62]	; 0x3e
 8003d3c:	d10d      	bne.n	8003d5a <HAL_I2C_EV_IRQHandler+0x5aa>
 8003d3e:	6323      	str	r3, [r4, #48]	; 0x30
 8003d40:	e7a3      	b.n	8003c8a <HAL_I2C_EV_IRQHandler+0x4da>
 8003d42:	2a04      	cmp	r2, #4
 8003d44:	d001      	beq.n	8003d4a <HAL_I2C_EV_IRQHandler+0x59a>
 8003d46:	2a02      	cmp	r2, #2
 8003d48:	d103      	bne.n	8003d52 <HAL_I2C_EV_IRQHandler+0x5a2>
 8003d4a:	681a      	ldr	r2, [r3, #0]
 8003d4c:	f442 6280 	orr.w	r2, r2, #1024	; 0x400
 8003d50:	e7d1      	b.n	8003cf6 <HAL_I2C_EV_IRQHandler+0x546>
 8003d52:	681a      	ldr	r2, [r3, #0]
 8003d54:	f442 7200 	orr.w	r2, r2, #512	; 0x200
 8003d58:	e7cd      	b.n	8003cf6 <HAL_I2C_EV_IRQHandler+0x546>
 8003d5a:	2312      	movs	r3, #18
 8003d5c:	4620      	mov	r0, r4
 8003d5e:	6323      	str	r3, [r4, #48]	; 0x30
 8003d60:	f7ff fb25 	bl	80033ae <HAL_I2C_MasterRxCpltCallback>
 8003d64:	e540      	b.n	80037e8 <HAL_I2C_EV_IRQHandler+0x38>
 8003d66:	6c20      	ldr	r0, [r4, #64]	; 0x40
 8003d68:	b308      	cbz	r0, 8003dae <HAL_I2C_EV_IRQHandler+0x5fe>
 8003d6a:	2500      	movs	r5, #0
 8003d6c:	6958      	ldr	r0, [r3, #20]
 8003d6e:	0787      	lsls	r7, r0, #30
 8003d70:	d52c      	bpl.n	8003dcc <HAL_I2C_EV_IRQHandler+0x61c>
 8003d72:	0596      	lsls	r6, r2, #22
 8003d74:	d52a      	bpl.n	8003dcc <HAL_I2C_EV_IRQHandler+0x61c>
 8003d76:	6c22      	ldr	r2, [r4, #64]	; 0x40
 8003d78:	b102      	cbz	r2, 8003d7c <HAL_I2C_EV_IRQHandler+0x5cc>
 8003d7a:	699d      	ldr	r5, [r3, #24]
 8003d7c:	f894 203d 	ldrb.w	r2, [r4, #61]	; 0x3d
 8003d80:	f002 0228 	and.w	r2, r2, #40	; 0x28
 8003d84:	2a28      	cmp	r2, #40	; 0x28
 8003d86:	d115      	bne.n	8003db4 <HAL_I2C_EV_IRQHandler+0x604>
 8003d88:	685a      	ldr	r2, [r3, #4]
 8003d8a:	ea6f 0195 	mvn.w	r1, r5, lsr #2
 8003d8e:	f422 6280 	bic.w	r2, r2, #1024	; 0x400
 8003d92:	605a      	str	r2, [r3, #4]
 8003d94:	2300      	movs	r3, #0
 8003d96:	062f      	lsls	r7, r5, #24
 8003d98:	4620      	mov	r0, r4
 8003d9a:	bf54      	ite	pl
 8003d9c:	89a2      	ldrhpl	r2, [r4, #12]
 8003d9e:	8b22      	ldrhmi	r2, [r4, #24]
 8003da0:	f001 0101 	and.w	r1, r1, #1
 8003da4:	f884 303c 	strb.w	r3, [r4, #60]	; 0x3c
 8003da8:	f7ff fb04 	bl	80033b4 <HAL_I2C_AddrCallback>
 8003dac:	e51c      	b.n	80037e8 <HAL_I2C_EV_IRQHandler+0x38>
 8003dae:	699d      	ldr	r5, [r3, #24]
 8003db0:	6958      	ldr	r0, [r3, #20]
 8003db2:	e7dc      	b.n	8003d6e <HAL_I2C_EV_IRQHandler+0x5be>
 8003db4:	2200      	movs	r2, #0
 8003db6:	920c      	str	r2, [sp, #48]	; 0x30
 8003db8:	6959      	ldr	r1, [r3, #20]
 8003dba:	910c      	str	r1, [sp, #48]	; 0x30
 8003dbc:	699b      	ldr	r3, [r3, #24]
 8003dbe:	f884 203c 	strb.w	r2, [r4, #60]	; 0x3c
 8003dc2:	930c      	str	r3, [sp, #48]	; 0x30
 8003dc4:	9b0c      	ldr	r3, [sp, #48]	; 0x30
 8003dc6:	e50f      	b.n	80037e8 <HAL_I2C_EV_IRQHandler+0x38>
 8003dc8:	20000078 	.word	0x20000078
 8003dcc:	06c6      	lsls	r6, r0, #27
 8003dce:	f140 80b1 	bpl.w	8003f34 <HAL_I2C_EV_IRQHandler+0x784>
 8003dd2:	0595      	lsls	r5, r2, #22
 8003dd4:	f140 80ae 	bpl.w	8003f34 <HAL_I2C_EV_IRQHandler+0x784>
 8003dd8:	f894 503d 	ldrb.w	r5, [r4, #61]	; 0x3d
 8003ddc:	685a      	ldr	r2, [r3, #4]
 8003dde:	b2ed      	uxtb	r5, r5
 8003de0:	f422 62e0 	bic.w	r2, r2, #1792	; 0x700
 8003de4:	605a      	str	r2, [r3, #4]
 8003de6:	2200      	movs	r2, #0
 8003de8:	920d      	str	r2, [sp, #52]	; 0x34
 8003dea:	695a      	ldr	r2, [r3, #20]
 8003dec:	920d      	str	r2, [sp, #52]	; 0x34
 8003dee:	681a      	ldr	r2, [r3, #0]
 8003df0:	f042 0201 	orr.w	r2, r2, #1
 8003df4:	601a      	str	r2, [r3, #0]
 8003df6:	9a0d      	ldr	r2, [sp, #52]	; 0x34
 8003df8:	681a      	ldr	r2, [r3, #0]
 8003dfa:	f422 6280 	bic.w	r2, r2, #1024	; 0x400
 8003dfe:	601a      	str	r2, [r3, #0]
 8003e00:	685a      	ldr	r2, [r3, #4]
 8003e02:	0510      	lsls	r0, r2, #20
 8003e04:	d520      	bpl.n	8003e48 <HAL_I2C_EV_IRQHandler+0x698>
 8003e06:	f005 02f7 	and.w	r2, r5, #247	; 0xf7
 8003e0a:	2a22      	cmp	r2, #34	; 0x22
 8003e0c:	d14a      	bne.n	8003ea4 <HAL_I2C_EV_IRQHandler+0x6f4>
 8003e0e:	6ba0      	ldr	r0, [r4, #56]	; 0x38
 8003e10:	6802      	ldr	r2, [r0, #0]
 8003e12:	6852      	ldr	r2, [r2, #4]
 8003e14:	b292      	uxth	r2, r2
 8003e16:	8562      	strh	r2, [r4, #42]	; 0x2a
 8003e18:	8d62      	ldrh	r2, [r4, #42]	; 0x2a
 8003e1a:	b292      	uxth	r2, r2
 8003e1c:	b11a      	cbz	r2, 8003e26 <HAL_I2C_EV_IRQHandler+0x676>
 8003e1e:	6c22      	ldr	r2, [r4, #64]	; 0x40
 8003e20:	f042 0204 	orr.w	r2, r2, #4
 8003e24:	6422      	str	r2, [r4, #64]	; 0x40
 8003e26:	685a      	ldr	r2, [r3, #4]
 8003e28:	f422 6200 	bic.w	r2, r2, #2048	; 0x800
 8003e2c:	605a      	str	r2, [r3, #4]
 8003e2e:	f7fe fdfb 	bl	8002a28 <HAL_DMA_GetState>
 8003e32:	2801      	cmp	r0, #1
 8003e34:	d008      	beq.n	8003e48 <HAL_I2C_EV_IRQHandler+0x698>
 8003e36:	6ba0      	ldr	r0, [r4, #56]	; 0x38
 8003e38:	4b79      	ldr	r3, [pc, #484]	; (8004020 <HAL_I2C_EV_IRQHandler+0x870>)
 8003e3a:	6343      	str	r3, [r0, #52]	; 0x34
 8003e3c:	f7fe fd1c 	bl	8002878 <HAL_DMA_Abort_IT>
 8003e40:	b110      	cbz	r0, 8003e48 <HAL_I2C_EV_IRQHandler+0x698>
 8003e42:	6ba0      	ldr	r0, [r4, #56]	; 0x38
 8003e44:	6b43      	ldr	r3, [r0, #52]	; 0x34
 8003e46:	4798      	blx	r3
 8003e48:	8d63      	ldrh	r3, [r4, #42]	; 0x2a
 8003e4a:	b29b      	uxth	r3, r3
 8003e4c:	b313      	cbz	r3, 8003e94 <HAL_I2C_EV_IRQHandler+0x6e4>
 8003e4e:	6823      	ldr	r3, [r4, #0]
 8003e50:	695a      	ldr	r2, [r3, #20]
 8003e52:	0751      	lsls	r1, r2, #29
 8003e54:	d509      	bpl.n	8003e6a <HAL_I2C_EV_IRQHandler+0x6ba>
 8003e56:	691a      	ldr	r2, [r3, #16]
 8003e58:	6a63      	ldr	r3, [r4, #36]	; 0x24
 8003e5a:	701a      	strb	r2, [r3, #0]
 8003e5c:	6a63      	ldr	r3, [r4, #36]	; 0x24
 8003e5e:	3301      	adds	r3, #1
 8003e60:	6263      	str	r3, [r4, #36]	; 0x24
 8003e62:	8d63      	ldrh	r3, [r4, #42]	; 0x2a
 8003e64:	3b01      	subs	r3, #1
 8003e66:	b29b      	uxth	r3, r3
 8003e68:	8563      	strh	r3, [r4, #42]	; 0x2a
 8003e6a:	6823      	ldr	r3, [r4, #0]
 8003e6c:	695a      	ldr	r2, [r3, #20]
 8003e6e:	0652      	lsls	r2, r2, #25
 8003e70:	d509      	bpl.n	8003e86 <HAL_I2C_EV_IRQHandler+0x6d6>
 8003e72:	691a      	ldr	r2, [r3, #16]
 8003e74:	6a63      	ldr	r3, [r4, #36]	; 0x24
 8003e76:	701a      	strb	r2, [r3, #0]
 8003e78:	6a63      	ldr	r3, [r4, #36]	; 0x24
 8003e7a:	3301      	adds	r3, #1
 8003e7c:	6263      	str	r3, [r4, #36]	; 0x24
 8003e7e:	8d63      	ldrh	r3, [r4, #42]	; 0x2a
 8003e80:	3b01      	subs	r3, #1
 8003e82:	b29b      	uxth	r3, r3
 8003e84:	8563      	strh	r3, [r4, #42]	; 0x2a
 8003e86:	8d63      	ldrh	r3, [r4, #42]	; 0x2a
 8003e88:	b29b      	uxth	r3, r3
 8003e8a:	b11b      	cbz	r3, 8003e94 <HAL_I2C_EV_IRQHandler+0x6e4>
 8003e8c:	6c23      	ldr	r3, [r4, #64]	; 0x40
 8003e8e:	f043 0304 	orr.w	r3, r3, #4
 8003e92:	6423      	str	r3, [r4, #64]	; 0x40
 8003e94:	6c23      	ldr	r3, [r4, #64]	; 0x40
 8003e96:	b313      	cbz	r3, 8003ede <HAL_I2C_EV_IRQHandler+0x72e>
 8003e98:	4620      	mov	r0, r4
 8003e9a:	b00f      	add	sp, #60	; 0x3c
 8003e9c:	e8bd 40f0 	ldmia.w	sp!, {r4, r5, r6, r7, lr}
 8003ea0:	f7ff bbde 	b.w	8003660 <I2C_ITError>
 8003ea4:	6b60      	ldr	r0, [r4, #52]	; 0x34
 8003ea6:	6802      	ldr	r2, [r0, #0]
 8003ea8:	6852      	ldr	r2, [r2, #4]
 8003eaa:	b292      	uxth	r2, r2
 8003eac:	8562      	strh	r2, [r4, #42]	; 0x2a
 8003eae:	8d62      	ldrh	r2, [r4, #42]	; 0x2a
 8003eb0:	b292      	uxth	r2, r2
 8003eb2:	b11a      	cbz	r2, 8003ebc <HAL_I2C_EV_IRQHandler+0x70c>
 8003eb4:	6c22      	ldr	r2, [r4, #64]	; 0x40
 8003eb6:	f042 0204 	orr.w	r2, r2, #4
 8003eba:	6422      	str	r2, [r4, #64]	; 0x40
 8003ebc:	685a      	ldr	r2, [r3, #4]
 8003ebe:	f422 6200 	bic.w	r2, r2, #2048	; 0x800
 8003ec2:	605a      	str	r2, [r3, #4]
 8003ec4:	f7fe fdb0 	bl	8002a28 <HAL_DMA_GetState>
 8003ec8:	2801      	cmp	r0, #1
 8003eca:	d0bd      	beq.n	8003e48 <HAL_I2C_EV_IRQHandler+0x698>
 8003ecc:	6b60      	ldr	r0, [r4, #52]	; 0x34
 8003ece:	4b54      	ldr	r3, [pc, #336]	; (8004020 <HAL_I2C_EV_IRQHandler+0x870>)
 8003ed0:	6343      	str	r3, [r0, #52]	; 0x34
 8003ed2:	f7fe fcd1 	bl	8002878 <HAL_DMA_Abort_IT>
 8003ed6:	2800      	cmp	r0, #0
 8003ed8:	d0b6      	beq.n	8003e48 <HAL_I2C_EV_IRQHandler+0x698>
 8003eda:	6b60      	ldr	r0, [r4, #52]	; 0x34
 8003edc:	e7b2      	b.n	8003e44 <HAL_I2C_EV_IRQHandler+0x694>
 8003ede:	2d2a      	cmp	r5, #42	; 0x2a
 8003ee0:	d106      	bne.n	8003ef0 <HAL_I2C_EV_IRQHandler+0x740>
 8003ee2:	6323      	str	r3, [r4, #48]	; 0x30
 8003ee4:	2328      	movs	r3, #40	; 0x28
 8003ee6:	4620      	mov	r0, r4
 8003ee8:	f884 303d 	strb.w	r3, [r4, #61]	; 0x3d
 8003eec:	f7ff fa61 	bl	80033b2 <HAL_I2C_SlaveRxCpltCallback>
 8003ef0:	f894 303d 	ldrb.w	r3, [r4, #61]	; 0x3d
 8003ef4:	2b28      	cmp	r3, #40	; 0x28
 8003ef6:	d10c      	bne.n	8003f12 <HAL_I2C_EV_IRQHandler+0x762>
 8003ef8:	4b4a      	ldr	r3, [pc, #296]	; (8004024 <HAL_I2C_EV_IRQHandler+0x874>)
 8003efa:	2220      	movs	r2, #32
 8003efc:	62e3      	str	r3, [r4, #44]	; 0x2c
 8003efe:	2300      	movs	r3, #0
 8003f00:	4620      	mov	r0, r4
 8003f02:	6323      	str	r3, [r4, #48]	; 0x30
 8003f04:	f884 203d 	strb.w	r2, [r4, #61]	; 0x3d
 8003f08:	f884 303e 	strb.w	r3, [r4, #62]	; 0x3e
 8003f0c:	f7ff fa53 	bl	80033b6 <HAL_I2C_ListenCpltCallback>
 8003f10:	e46a      	b.n	80037e8 <HAL_I2C_EV_IRQHandler+0x38>
 8003f12:	6b23      	ldr	r3, [r4, #48]	; 0x30
 8003f14:	2b22      	cmp	r3, #34	; 0x22
 8003f16:	d002      	beq.n	8003f1e <HAL_I2C_EV_IRQHandler+0x76e>
 8003f18:	2d22      	cmp	r5, #34	; 0x22
 8003f1a:	f47f ac65 	bne.w	80037e8 <HAL_I2C_EV_IRQHandler+0x38>
 8003f1e:	2300      	movs	r3, #0
 8003f20:	2220      	movs	r2, #32
 8003f22:	6323      	str	r3, [r4, #48]	; 0x30
 8003f24:	f884 203d 	strb.w	r2, [r4, #61]	; 0x3d
 8003f28:	f884 303e 	strb.w	r3, [r4, #62]	; 0x3e
 8003f2c:	4620      	mov	r0, r4
 8003f2e:	f7ff fa40 	bl	80033b2 <HAL_I2C_SlaveRxCpltCallback>
 8003f32:	e459      	b.n	80037e8 <HAL_I2C_EV_IRQHandler+0x38>
 8003f34:	f001 01f7 	and.w	r1, r1, #247	; 0xf7
 8003f38:	2921      	cmp	r1, #33	; 0x21
 8003f3a:	f3c0 0580 	ubfx	r5, r0, #2, #1
 8003f3e:	d135      	bne.n	8003fac <HAL_I2C_EV_IRQHandler+0x7fc>
 8003f40:	0607      	lsls	r7, r0, #24
 8003f42:	d527      	bpl.n	8003f94 <HAL_I2C_EV_IRQHandler+0x7e4>
 8003f44:	0556      	lsls	r6, r2, #21
 8003f46:	d525      	bpl.n	8003f94 <HAL_I2C_EV_IRQHandler+0x7e4>
 8003f48:	bb3d      	cbnz	r5, 8003f9a <HAL_I2C_EV_IRQHandler+0x7ea>
 8003f4a:	f894 003d 	ldrb.w	r0, [r4, #61]	; 0x3d
 8003f4e:	8d62      	ldrh	r2, [r4, #42]	; 0x2a
 8003f50:	b2c0      	uxtb	r0, r0
 8003f52:	b292      	uxth	r2, r2
 8003f54:	2a00      	cmp	r2, #0
 8003f56:	f43f ac47 	beq.w	80037e8 <HAL_I2C_EV_IRQHandler+0x38>
 8003f5a:	6a62      	ldr	r2, [r4, #36]	; 0x24
 8003f5c:	f812 5b01 	ldrb.w	r5, [r2], #1
 8003f60:	611d      	str	r5, [r3, #16]
 8003f62:	6262      	str	r2, [r4, #36]	; 0x24
 8003f64:	8d62      	ldrh	r2, [r4, #42]	; 0x2a
 8003f66:	3a01      	subs	r2, #1
 8003f68:	b292      	uxth	r2, r2
 8003f6a:	8562      	strh	r2, [r4, #42]	; 0x2a
 8003f6c:	8d62      	ldrh	r2, [r4, #42]	; 0x2a
 8003f6e:	b292      	uxth	r2, r2
 8003f70:	2a00      	cmp	r2, #0
 8003f72:	f47f ac39 	bne.w	80037e8 <HAL_I2C_EV_IRQHandler+0x38>
 8003f76:	2829      	cmp	r0, #41	; 0x29
 8003f78:	f47f ac36 	bne.w	80037e8 <HAL_I2C_EV_IRQHandler+0x38>
 8003f7c:	685a      	ldr	r2, [r3, #4]
 8003f7e:	4620      	mov	r0, r4
 8003f80:	f422 6280 	bic.w	r2, r2, #1024	; 0x400
 8003f84:	605a      	str	r2, [r3, #4]
 8003f86:	2328      	movs	r3, #40	; 0x28
 8003f88:	6321      	str	r1, [r4, #48]	; 0x30
 8003f8a:	f884 303d 	strb.w	r3, [r4, #61]	; 0x3d
 8003f8e:	f7ff fa0f 	bl	80033b0 <HAL_I2C_SlaveTxCpltCallback>
 8003f92:	e429      	b.n	80037e8 <HAL_I2C_EV_IRQHandler+0x38>
 8003f94:	2d00      	cmp	r5, #0
 8003f96:	f43f ac27 	beq.w	80037e8 <HAL_I2C_EV_IRQHandler+0x38>
 8003f9a:	0595      	lsls	r5, r2, #22
 8003f9c:	f57f ac24 	bpl.w	80037e8 <HAL_I2C_EV_IRQHandler+0x38>
 8003fa0:	8d62      	ldrh	r2, [r4, #42]	; 0x2a
 8003fa2:	b292      	uxth	r2, r2
 8003fa4:	2a00      	cmp	r2, #0
 8003fa6:	f43f ac1f 	beq.w	80037e8 <HAL_I2C_EV_IRQHandler+0x38>
 8003faa:	e5b9      	b.n	8003b20 <HAL_I2C_EV_IRQHandler+0x370>
 8003fac:	0640      	lsls	r0, r0, #25
 8003fae:	d527      	bpl.n	8004000 <HAL_I2C_EV_IRQHandler+0x850>
 8003fb0:	0551      	lsls	r1, r2, #21
 8003fb2:	d525      	bpl.n	8004000 <HAL_I2C_EV_IRQHandler+0x850>
 8003fb4:	bb3d      	cbnz	r5, 8004006 <HAL_I2C_EV_IRQHandler+0x856>
 8003fb6:	f894 203d 	ldrb.w	r2, [r4, #61]	; 0x3d
 8003fba:	8d61      	ldrh	r1, [r4, #42]	; 0x2a
 8003fbc:	b2d2      	uxtb	r2, r2
 8003fbe:	b289      	uxth	r1, r1
 8003fc0:	2900      	cmp	r1, #0
 8003fc2:	f43f ac11 	beq.w	80037e8 <HAL_I2C_EV_IRQHandler+0x38>
 8003fc6:	6919      	ldr	r1, [r3, #16]
 8003fc8:	6a63      	ldr	r3, [r4, #36]	; 0x24
 8003fca:	7019      	strb	r1, [r3, #0]
 8003fcc:	6a63      	ldr	r3, [r4, #36]	; 0x24
 8003fce:	3301      	adds	r3, #1
 8003fd0:	6263      	str	r3, [r4, #36]	; 0x24
 8003fd2:	8d63      	ldrh	r3, [r4, #42]	; 0x2a
 8003fd4:	3b01      	subs	r3, #1
 8003fd6:	b29b      	uxth	r3, r3
 8003fd8:	8563      	strh	r3, [r4, #42]	; 0x2a
 8003fda:	8d63      	ldrh	r3, [r4, #42]	; 0x2a
 8003fdc:	b29b      	uxth	r3, r3
 8003fde:	2b00      	cmp	r3, #0
 8003fe0:	f47f ac02 	bne.w	80037e8 <HAL_I2C_EV_IRQHandler+0x38>
 8003fe4:	2a2a      	cmp	r2, #42	; 0x2a
 8003fe6:	f47f abff 	bne.w	80037e8 <HAL_I2C_EV_IRQHandler+0x38>
 8003fea:	6822      	ldr	r2, [r4, #0]
 8003fec:	6853      	ldr	r3, [r2, #4]
 8003fee:	f423 6380 	bic.w	r3, r3, #1024	; 0x400
 8003ff2:	6053      	str	r3, [r2, #4]
 8003ff4:	2322      	movs	r3, #34	; 0x22
 8003ff6:	6323      	str	r3, [r4, #48]	; 0x30
 8003ff8:	2328      	movs	r3, #40	; 0x28
 8003ffa:	f884 303d 	strb.w	r3, [r4, #61]	; 0x3d
 8003ffe:	e795      	b.n	8003f2c <HAL_I2C_EV_IRQHandler+0x77c>
 8004000:	2d00      	cmp	r5, #0
 8004002:	f43f abf1 	beq.w	80037e8 <HAL_I2C_EV_IRQHandler+0x38>
 8004006:	0592      	lsls	r2, r2, #22
 8004008:	f57f abee 	bpl.w	80037e8 <HAL_I2C_EV_IRQHandler+0x38>
 800400c:	8d62      	ldrh	r2, [r4, #42]	; 0x2a
 800400e:	b292      	uxth	r2, r2
 8004010:	2a00      	cmp	r2, #0
 8004012:	f43f abe9 	beq.w	80037e8 <HAL_I2C_EV_IRQHandler+0x38>
 8004016:	691a      	ldr	r2, [r3, #16]
 8004018:	6a63      	ldr	r3, [r4, #36]	; 0x24
 800401a:	701a      	strb	r2, [r3, #0]
 800401c:	e64b      	b.n	8003cb6 <HAL_I2C_EV_IRQHandler+0x506>
 800401e:	bf00      	nop
 8004020:	080035a1 	.word	0x080035a1
 8004024:	ffff0000 	.word	0xffff0000

08004028 <HAL_I2C_GetState>:
 8004028:	f890 003d 	ldrb.w	r0, [r0, #61]	; 0x3d
 800402c:	4770      	bx	lr
	...

08004030 <HAL_RCC_OscConfig>:
 8004030:	e92d 41f3 	stmdb	sp!, {r0, r1, r4, r5, r6, r7, r8, lr}
 8004034:	4605      	mov	r5, r0
 8004036:	b338      	cbz	r0, 8004088 <HAL_RCC_OscConfig+0x58>
 8004038:	6803      	ldr	r3, [r0, #0]
 800403a:	07db      	lsls	r3, r3, #31
 800403c:	d410      	bmi.n	8004060 <HAL_RCC_OscConfig+0x30>
 800403e:	682b      	ldr	r3, [r5, #0]
 8004040:	079f      	lsls	r7, r3, #30
 8004042:	d45e      	bmi.n	8004102 <HAL_RCC_OscConfig+0xd2>
 8004044:	682b      	ldr	r3, [r5, #0]
 8004046:	0719      	lsls	r1, r3, #28
 8004048:	f100 8095 	bmi.w	8004176 <HAL_RCC_OscConfig+0x146>
 800404c:	682b      	ldr	r3, [r5, #0]
 800404e:	075a      	lsls	r2, r3, #29
 8004050:	f100 80bf 	bmi.w	80041d2 <HAL_RCC_OscConfig+0x1a2>
 8004054:	69e8      	ldr	r0, [r5, #28]
 8004056:	2800      	cmp	r0, #0
 8004058:	f040 812c 	bne.w	80042b4 <HAL_RCC_OscConfig+0x284>
 800405c:	2000      	movs	r0, #0
 800405e:	e029      	b.n	80040b4 <HAL_RCC_OscConfig+0x84>
 8004060:	4c8f      	ldr	r4, [pc, #572]	; (80042a0 <HAL_RCC_OscConfig+0x270>)
 8004062:	6863      	ldr	r3, [r4, #4]
 8004064:	f003 030c 	and.w	r3, r3, #12
 8004068:	2b04      	cmp	r3, #4
 800406a:	d007      	beq.n	800407c <HAL_RCC_OscConfig+0x4c>
 800406c:	6863      	ldr	r3, [r4, #4]
 800406e:	f003 030c 	and.w	r3, r3, #12
 8004072:	2b08      	cmp	r3, #8
 8004074:	d10a      	bne.n	800408c <HAL_RCC_OscConfig+0x5c>
 8004076:	6863      	ldr	r3, [r4, #4]
 8004078:	03de      	lsls	r6, r3, #15
 800407a:	d507      	bpl.n	800408c <HAL_RCC_OscConfig+0x5c>
 800407c:	6823      	ldr	r3, [r4, #0]
 800407e:	039c      	lsls	r4, r3, #14
 8004080:	d5dd      	bpl.n	800403e <HAL_RCC_OscConfig+0xe>
 8004082:	686b      	ldr	r3, [r5, #4]
 8004084:	2b00      	cmp	r3, #0
 8004086:	d1da      	bne.n	800403e <HAL_RCC_OscConfig+0xe>
 8004088:	2001      	movs	r0, #1
 800408a:	e013      	b.n	80040b4 <HAL_RCC_OscConfig+0x84>
 800408c:	686b      	ldr	r3, [r5, #4]
 800408e:	f5b3 3f80 	cmp.w	r3, #65536	; 0x10000
 8004092:	d112      	bne.n	80040ba <HAL_RCC_OscConfig+0x8a>
 8004094:	6823      	ldr	r3, [r4, #0]
 8004096:	f443 3380 	orr.w	r3, r3, #65536	; 0x10000
 800409a:	6023      	str	r3, [r4, #0]
 800409c:	f7fd fff2 	bl	8002084 <HAL_GetTick>
 80040a0:	4606      	mov	r6, r0
 80040a2:	6823      	ldr	r3, [r4, #0]
 80040a4:	0398      	lsls	r0, r3, #14
 80040a6:	d4ca      	bmi.n	800403e <HAL_RCC_OscConfig+0xe>
 80040a8:	f7fd ffec 	bl	8002084 <HAL_GetTick>
 80040ac:	1b80      	subs	r0, r0, r6
 80040ae:	2864      	cmp	r0, #100	; 0x64
 80040b0:	d9f7      	bls.n	80040a2 <HAL_RCC_OscConfig+0x72>
 80040b2:	2003      	movs	r0, #3
 80040b4:	b002      	add	sp, #8
 80040b6:	e8bd 81f0 	ldmia.w	sp!, {r4, r5, r6, r7, r8, pc}
 80040ba:	b99b      	cbnz	r3, 80040e4 <HAL_RCC_OscConfig+0xb4>
 80040bc:	6823      	ldr	r3, [r4, #0]
 80040be:	f423 3380 	bic.w	r3, r3, #65536	; 0x10000
 80040c2:	6023      	str	r3, [r4, #0]
 80040c4:	6823      	ldr	r3, [r4, #0]
 80040c6:	f423 2380 	bic.w	r3, r3, #262144	; 0x40000
 80040ca:	6023      	str	r3, [r4, #0]
 80040cc:	f7fd ffda 	bl	8002084 <HAL_GetTick>
 80040d0:	4606      	mov	r6, r0
 80040d2:	6823      	ldr	r3, [r4, #0]
 80040d4:	0399      	lsls	r1, r3, #14
 80040d6:	d5b2      	bpl.n	800403e <HAL_RCC_OscConfig+0xe>
 80040d8:	f7fd ffd4 	bl	8002084 <HAL_GetTick>
 80040dc:	1b80      	subs	r0, r0, r6
 80040de:	2864      	cmp	r0, #100	; 0x64
 80040e0:	d9f7      	bls.n	80040d2 <HAL_RCC_OscConfig+0xa2>
 80040e2:	e7e6      	b.n	80040b2 <HAL_RCC_OscConfig+0x82>
 80040e4:	f5b3 2fa0 	cmp.w	r3, #327680	; 0x50000
 80040e8:	6823      	ldr	r3, [r4, #0]
 80040ea:	d103      	bne.n	80040f4 <HAL_RCC_OscConfig+0xc4>
 80040ec:	f443 2380 	orr.w	r3, r3, #262144	; 0x40000
 80040f0:	6023      	str	r3, [r4, #0]
 80040f2:	e7cf      	b.n	8004094 <HAL_RCC_OscConfig+0x64>
 80040f4:	f423 3380 	bic.w	r3, r3, #65536	; 0x10000
 80040f8:	6023      	str	r3, [r4, #0]
 80040fa:	6823      	ldr	r3, [r4, #0]
 80040fc:	f423 2380 	bic.w	r3, r3, #262144	; 0x40000
 8004100:	e7cb      	b.n	800409a <HAL_RCC_OscConfig+0x6a>
 8004102:	4c67      	ldr	r4, [pc, #412]	; (80042a0 <HAL_RCC_OscConfig+0x270>)
 8004104:	6863      	ldr	r3, [r4, #4]
 8004106:	f013 0f0c 	tst.w	r3, #12
 800410a:	d007      	beq.n	800411c <HAL_RCC_OscConfig+0xec>
 800410c:	6863      	ldr	r3, [r4, #4]
 800410e:	f003 030c 	and.w	r3, r3, #12
 8004112:	2b08      	cmp	r3, #8
 8004114:	d110      	bne.n	8004138 <HAL_RCC_OscConfig+0x108>
 8004116:	6863      	ldr	r3, [r4, #4]
 8004118:	03da      	lsls	r2, r3, #15
 800411a:	d40d      	bmi.n	8004138 <HAL_RCC_OscConfig+0x108>
 800411c:	6823      	ldr	r3, [r4, #0]
 800411e:	079b      	lsls	r3, r3, #30
 8004120:	d502      	bpl.n	8004128 <HAL_RCC_OscConfig+0xf8>
 8004122:	692b      	ldr	r3, [r5, #16]
 8004124:	2b01      	cmp	r3, #1
 8004126:	d1af      	bne.n	8004088 <HAL_RCC_OscConfig+0x58>
 8004128:	6823      	ldr	r3, [r4, #0]
 800412a:	696a      	ldr	r2, [r5, #20]
 800412c:	f023 03f8 	bic.w	r3, r3, #248	; 0xf8
 8004130:	ea43 03c2 	orr.w	r3, r3, r2, lsl #3
 8004134:	6023      	str	r3, [r4, #0]
 8004136:	e785      	b.n	8004044 <HAL_RCC_OscConfig+0x14>
 8004138:	692a      	ldr	r2, [r5, #16]
 800413a:	4b5a      	ldr	r3, [pc, #360]	; (80042a4 <HAL_RCC_OscConfig+0x274>)
 800413c:	b16a      	cbz	r2, 800415a <HAL_RCC_OscConfig+0x12a>
 800413e:	2201      	movs	r2, #1
 8004140:	601a      	str	r2, [r3, #0]
 8004142:	f7fd ff9f 	bl	8002084 <HAL_GetTick>
 8004146:	4606      	mov	r6, r0
 8004148:	6823      	ldr	r3, [r4, #0]
 800414a:	079f      	lsls	r7, r3, #30
 800414c:	d4ec      	bmi.n	8004128 <HAL_RCC_OscConfig+0xf8>
 800414e:	f7fd ff99 	bl	8002084 <HAL_GetTick>
 8004152:	1b80      	subs	r0, r0, r6
 8004154:	2802      	cmp	r0, #2
 8004156:	d9f7      	bls.n	8004148 <HAL_RCC_OscConfig+0x118>
 8004158:	e7ab      	b.n	80040b2 <HAL_RCC_OscConfig+0x82>
 800415a:	601a      	str	r2, [r3, #0]
 800415c:	f7fd ff92 	bl	8002084 <HAL_GetTick>
 8004160:	4606      	mov	r6, r0
 8004162:	6823      	ldr	r3, [r4, #0]
 8004164:	0798      	lsls	r0, r3, #30
 8004166:	f57f af6d 	bpl.w	8004044 <HAL_RCC_OscConfig+0x14>
 800416a:	f7fd ff8b 	bl	8002084 <HAL_GetTick>
 800416e:	1b80      	subs	r0, r0, r6
 8004170:	2802      	cmp	r0, #2
 8004172:	d9f6      	bls.n	8004162 <HAL_RCC_OscConfig+0x132>
 8004174:	e79d      	b.n	80040b2 <HAL_RCC_OscConfig+0x82>
 8004176:	69aa      	ldr	r2, [r5, #24]
 8004178:	4e49      	ldr	r6, [pc, #292]	; (80042a0 <HAL_RCC_OscConfig+0x270>)
 800417a:	4b4b      	ldr	r3, [pc, #300]	; (80042a8 <HAL_RCC_OscConfig+0x278>)
 800417c:	b1da      	cbz	r2, 80041b6 <HAL_RCC_OscConfig+0x186>
 800417e:	2201      	movs	r2, #1
 8004180:	601a      	str	r2, [r3, #0]
 8004182:	f7fd ff7f 	bl	8002084 <HAL_GetTick>
 8004186:	4604      	mov	r4, r0
 8004188:	6a73      	ldr	r3, [r6, #36]	; 0x24
 800418a:	079b      	lsls	r3, r3, #30
 800418c:	d50d      	bpl.n	80041aa <HAL_RCC_OscConfig+0x17a>
 800418e:	f44f 52fa 	mov.w	r2, #8000	; 0x1f40
 8004192:	4b46      	ldr	r3, [pc, #280]	; (80042ac <HAL_RCC_OscConfig+0x27c>)
 8004194:	681b      	ldr	r3, [r3, #0]
 8004196:	fbb3 f3f2 	udiv	r3, r3, r2
 800419a:	9301      	str	r3, [sp, #4]
 800419c:	bf00      	nop
 800419e:	9b01      	ldr	r3, [sp, #4]
 80041a0:	1e5a      	subs	r2, r3, #1
 80041a2:	9201      	str	r2, [sp, #4]
 80041a4:	2b00      	cmp	r3, #0
 80041a6:	d1f9      	bne.n	800419c <HAL_RCC_OscConfig+0x16c>
 80041a8:	e750      	b.n	800404c <HAL_RCC_OscConfig+0x1c>
 80041aa:	f7fd ff6b 	bl	8002084 <HAL_GetTick>
 80041ae:	1b00      	subs	r0, r0, r4
 80041b0:	2802      	cmp	r0, #2
 80041b2:	d9e9      	bls.n	8004188 <HAL_RCC_OscConfig+0x158>
 80041b4:	e77d      	b.n	80040b2 <HAL_RCC_OscConfig+0x82>
 80041b6:	601a      	str	r2, [r3, #0]
 80041b8:	f7fd ff64 	bl	8002084 <HAL_GetTick>
 80041bc:	4604      	mov	r4, r0
 80041be:	6a73      	ldr	r3, [r6, #36]	; 0x24
 80041c0:	079f      	lsls	r7, r3, #30
 80041c2:	f57f af43 	bpl.w	800404c <HAL_RCC_OscConfig+0x1c>
 80041c6:	f7fd ff5d 	bl	8002084 <HAL_GetTick>
 80041ca:	1b00      	subs	r0, r0, r4
 80041cc:	2802      	cmp	r0, #2
 80041ce:	d9f6      	bls.n	80041be <HAL_RCC_OscConfig+0x18e>
 80041d0:	e76f      	b.n	80040b2 <HAL_RCC_OscConfig+0x82>
 80041d2:	4c33      	ldr	r4, [pc, #204]	; (80042a0 <HAL_RCC_OscConfig+0x270>)
 80041d4:	69e3      	ldr	r3, [r4, #28]
 80041d6:	00d8      	lsls	r0, r3, #3
 80041d8:	d424      	bmi.n	8004224 <HAL_RCC_OscConfig+0x1f4>
 80041da:	2701      	movs	r7, #1
 80041dc:	69e3      	ldr	r3, [r4, #28]
 80041de:	f043 5380 	orr.w	r3, r3, #268435456	; 0x10000000
 80041e2:	61e3      	str	r3, [r4, #28]
 80041e4:	69e3      	ldr	r3, [r4, #28]
 80041e6:	f003 5380 	and.w	r3, r3, #268435456	; 0x10000000
 80041ea:	9300      	str	r3, [sp, #0]
 80041ec:	9b00      	ldr	r3, [sp, #0]
 80041ee:	4e30      	ldr	r6, [pc, #192]	; (80042b0 <HAL_RCC_OscConfig+0x280>)
 80041f0:	6833      	ldr	r3, [r6, #0]
 80041f2:	05d9      	lsls	r1, r3, #23
 80041f4:	d518      	bpl.n	8004228 <HAL_RCC_OscConfig+0x1f8>
 80041f6:	68eb      	ldr	r3, [r5, #12]
 80041f8:	2b01      	cmp	r3, #1
 80041fa:	d126      	bne.n	800424a <HAL_RCC_OscConfig+0x21a>
 80041fc:	6a23      	ldr	r3, [r4, #32]
 80041fe:	f043 0301 	orr.w	r3, r3, #1
 8004202:	6223      	str	r3, [r4, #32]
 8004204:	f7fd ff3e 	bl	8002084 <HAL_GetTick>
 8004208:	f241 3888 	movw	r8, #5000	; 0x1388
 800420c:	4606      	mov	r6, r0
 800420e:	6a23      	ldr	r3, [r4, #32]
 8004210:	079b      	lsls	r3, r3, #30
 8004212:	d53f      	bpl.n	8004294 <HAL_RCC_OscConfig+0x264>
 8004214:	2f00      	cmp	r7, #0
 8004216:	f43f af1d 	beq.w	8004054 <HAL_RCC_OscConfig+0x24>
 800421a:	69e3      	ldr	r3, [r4, #28]
 800421c:	f023 5380 	bic.w	r3, r3, #268435456	; 0x10000000
 8004220:	61e3      	str	r3, [r4, #28]
 8004222:	e717      	b.n	8004054 <HAL_RCC_OscConfig+0x24>
 8004224:	2700      	movs	r7, #0
 8004226:	e7e2      	b.n	80041ee <HAL_RCC_OscConfig+0x1be>
 8004228:	6833      	ldr	r3, [r6, #0]
 800422a:	f443 7380 	orr.w	r3, r3, #256	; 0x100
 800422e:	6033      	str	r3, [r6, #0]
 8004230:	f7fd ff28 	bl	8002084 <HAL_GetTick>
 8004234:	4680      	mov	r8, r0
 8004236:	6833      	ldr	r3, [r6, #0]
 8004238:	05da      	lsls	r2, r3, #23
 800423a:	d4dc      	bmi.n	80041f6 <HAL_RCC_OscConfig+0x1c6>
 800423c:	f7fd ff22 	bl	8002084 <HAL_GetTick>
 8004240:	eba0 0008 	sub.w	r0, r0, r8
 8004244:	2864      	cmp	r0, #100	; 0x64
 8004246:	d9f6      	bls.n	8004236 <HAL_RCC_OscConfig+0x206>
 8004248:	e733      	b.n	80040b2 <HAL_RCC_OscConfig+0x82>
 800424a:	b9ab      	cbnz	r3, 8004278 <HAL_RCC_OscConfig+0x248>
 800424c:	6a23      	ldr	r3, [r4, #32]
 800424e:	f241 3888 	movw	r8, #5000	; 0x1388
 8004252:	f023 0301 	bic.w	r3, r3, #1
 8004256:	6223      	str	r3, [r4, #32]
 8004258:	6a23      	ldr	r3, [r4, #32]
 800425a:	f023 0304 	bic.w	r3, r3, #4
 800425e:	6223      	str	r3, [r4, #32]
 8004260:	f7fd ff10 	bl	8002084 <HAL_GetTick>
 8004264:	4606      	mov	r6, r0
 8004266:	6a23      	ldr	r3, [r4, #32]
 8004268:	0798      	lsls	r0, r3, #30
 800426a:	d5d3      	bpl.n	8004214 <HAL_RCC_OscConfig+0x1e4>
 800426c:	f7fd ff0a 	bl	8002084 <HAL_GetTick>
 8004270:	1b80      	subs	r0, r0, r6
 8004272:	4540      	cmp	r0, r8
 8004274:	d9f7      	bls.n	8004266 <HAL_RCC_OscConfig+0x236>
 8004276:	e71c      	b.n	80040b2 <HAL_RCC_OscConfig+0x82>
 8004278:	2b05      	cmp	r3, #5
 800427a:	6a23      	ldr	r3, [r4, #32]
 800427c:	d103      	bne.n	8004286 <HAL_RCC_OscConfig+0x256>
 800427e:	f043 0304 	orr.w	r3, r3, #4
 8004282:	6223      	str	r3, [r4, #32]
 8004284:	e7ba      	b.n	80041fc <HAL_RCC_OscConfig+0x1cc>
 8004286:	f023 0301 	bic.w	r3, r3, #1
 800428a:	6223      	str	r3, [r4, #32]
 800428c:	6a23      	ldr	r3, [r4, #32]
 800428e:	f023 0304 	bic.w	r3, r3, #4
 8004292:	e7b6      	b.n	8004202 <HAL_RCC_OscConfig+0x1d2>
 8004294:	f7fd fef6 	bl	8002084 <HAL_GetTick>
 8004298:	1b80      	subs	r0, r0, r6
 800429a:	4540      	cmp	r0, r8
 800429c:	d9b7      	bls.n	800420e <HAL_RCC_OscConfig+0x1de>
 800429e:	e708      	b.n	80040b2 <HAL_RCC_OscConfig+0x82>
 80042a0:	40021000 	.word	0x40021000
 80042a4:	42420000 	.word	0x42420000
 80042a8:	42420480 	.word	0x42420480
 80042ac:	20000078 	.word	0x20000078
 80042b0:	40007000 	.word	0x40007000
 80042b4:	4b2a      	ldr	r3, [pc, #168]	; (8004360 <HAL_RCC_OscConfig+0x330>)
 80042b6:	685a      	ldr	r2, [r3, #4]
 80042b8:	461c      	mov	r4, r3
 80042ba:	f002 020c 	and.w	r2, r2, #12
 80042be:	2a08      	cmp	r2, #8
 80042c0:	d03d      	beq.n	800433e <HAL_RCC_OscConfig+0x30e>
 80042c2:	2300      	movs	r3, #0
 80042c4:	4e27      	ldr	r6, [pc, #156]	; (8004364 <HAL_RCC_OscConfig+0x334>)
 80042c6:	2802      	cmp	r0, #2
 80042c8:	6033      	str	r3, [r6, #0]
 80042ca:	d12b      	bne.n	8004324 <HAL_RCC_OscConfig+0x2f4>
 80042cc:	f7fd feda 	bl	8002084 <HAL_GetTick>
 80042d0:	4607      	mov	r7, r0
 80042d2:	6823      	ldr	r3, [r4, #0]
 80042d4:	0199      	lsls	r1, r3, #6
 80042d6:	d41f      	bmi.n	8004318 <HAL_RCC_OscConfig+0x2e8>
 80042d8:	6a2b      	ldr	r3, [r5, #32]
 80042da:	f5b3 3f80 	cmp.w	r3, #65536	; 0x10000
 80042de:	d105      	bne.n	80042ec <HAL_RCC_OscConfig+0x2bc>
 80042e0:	6862      	ldr	r2, [r4, #4]
 80042e2:	68a9      	ldr	r1, [r5, #8]
 80042e4:	f422 3200 	bic.w	r2, r2, #131072	; 0x20000
 80042e8:	430a      	orrs	r2, r1
 80042ea:	6062      	str	r2, [r4, #4]
 80042ec:	6a69      	ldr	r1, [r5, #36]	; 0x24
 80042ee:	6862      	ldr	r2, [r4, #4]
 80042f0:	430b      	orrs	r3, r1
 80042f2:	f422 1274 	bic.w	r2, r2, #3997696	; 0x3d0000
 80042f6:	4313      	orrs	r3, r2
 80042f8:	6063      	str	r3, [r4, #4]
 80042fa:	2301      	movs	r3, #1
 80042fc:	6033      	str	r3, [r6, #0]
 80042fe:	f7fd fec1 	bl	8002084 <HAL_GetTick>
 8004302:	4605      	mov	r5, r0
 8004304:	6823      	ldr	r3, [r4, #0]
 8004306:	019a      	lsls	r2, r3, #6
 8004308:	f53f aea8 	bmi.w	800405c <HAL_RCC_OscConfig+0x2c>
 800430c:	f7fd feba 	bl	8002084 <HAL_GetTick>
 8004310:	1b40      	subs	r0, r0, r5
 8004312:	2802      	cmp	r0, #2
 8004314:	d9f6      	bls.n	8004304 <HAL_RCC_OscConfig+0x2d4>
 8004316:	e6cc      	b.n	80040b2 <HAL_RCC_OscConfig+0x82>
 8004318:	f7fd feb4 	bl	8002084 <HAL_GetTick>
 800431c:	1bc0      	subs	r0, r0, r7
 800431e:	2802      	cmp	r0, #2
 8004320:	d9d7      	bls.n	80042d2 <HAL_RCC_OscConfig+0x2a2>
 8004322:	e6c6      	b.n	80040b2 <HAL_RCC_OscConfig+0x82>
 8004324:	f7fd feae 	bl	8002084 <HAL_GetTick>
 8004328:	4605      	mov	r5, r0
 800432a:	6823      	ldr	r3, [r4, #0]
 800432c:	019b      	lsls	r3, r3, #6
 800432e:	f57f ae95 	bpl.w	800405c <HAL_RCC_OscConfig+0x2c>
 8004332:	f7fd fea7 	bl	8002084 <HAL_GetTick>
 8004336:	1b40      	subs	r0, r0, r5
 8004338:	2802      	cmp	r0, #2
 800433a:	d9f6      	bls.n	800432a <HAL_RCC_OscConfig+0x2fa>
 800433c:	e6b9      	b.n	80040b2 <HAL_RCC_OscConfig+0x82>
 800433e:	2801      	cmp	r0, #1
 8004340:	f43f aeb8 	beq.w	80040b4 <HAL_RCC_OscConfig+0x84>
 8004344:	685b      	ldr	r3, [r3, #4]
 8004346:	6a2a      	ldr	r2, [r5, #32]
 8004348:	f403 3180 	and.w	r1, r3, #65536	; 0x10000
 800434c:	4291      	cmp	r1, r2
 800434e:	f47f ae9b 	bne.w	8004088 <HAL_RCC_OscConfig+0x58>
 8004352:	6a6a      	ldr	r2, [r5, #36]	; 0x24
 8004354:	f403 1370 	and.w	r3, r3, #3932160	; 0x3c0000
 8004358:	4293      	cmp	r3, r2
 800435a:	f43f ae7f 	beq.w	800405c <HAL_RCC_OscConfig+0x2c>
 800435e:	e693      	b.n	8004088 <HAL_RCC_OscConfig+0x58>
 8004360:	40021000 	.word	0x40021000
 8004364:	42420060 	.word	0x42420060

08004368 <HAL_RCC_GetSysClockFreq>:
 8004368:	b530      	push	{r4, r5, lr}
 800436a:	4b1a      	ldr	r3, [pc, #104]	; (80043d4 <HAL_RCC_GetSysClockFreq+0x6c>)
 800436c:	b087      	sub	sp, #28
 800436e:	ac02      	add	r4, sp, #8
 8004370:	f103 0510 	add.w	r5, r3, #16
 8004374:	4622      	mov	r2, r4
 8004376:	6818      	ldr	r0, [r3, #0]
 8004378:	6859      	ldr	r1, [r3, #4]
 800437a:	3308      	adds	r3, #8
 800437c:	c203      	stmia	r2!, {r0, r1}
 800437e:	42ab      	cmp	r3, r5
 8004380:	4614      	mov	r4, r2
 8004382:	d1f7      	bne.n	8004374 <HAL_RCC_GetSysClockFreq+0xc>
 8004384:	f240 2301 	movw	r3, #513	; 0x201
 8004388:	4913      	ldr	r1, [pc, #76]	; (80043d8 <HAL_RCC_GetSysClockFreq+0x70>)
 800438a:	f8ad 3004 	strh.w	r3, [sp, #4]
 800438e:	684b      	ldr	r3, [r1, #4]
 8004390:	f003 020c 	and.w	r2, r3, #12
 8004394:	2a04      	cmp	r2, #4
 8004396:	d019      	beq.n	80043cc <HAL_RCC_GetSysClockFreq+0x64>
 8004398:	2a08      	cmp	r2, #8
 800439a:	d119      	bne.n	80043d0 <HAL_RCC_GetSysClockFreq+0x68>
 800439c:	f3c3 4283 	ubfx	r2, r3, #18, #4
 80043a0:	a806      	add	r0, sp, #24
 80043a2:	4402      	add	r2, r0
 80043a4:	03db      	lsls	r3, r3, #15
 80043a6:	f812 2c10 	ldrb.w	r2, [r2, #-16]
 80043aa:	d50c      	bpl.n	80043c6 <HAL_RCC_GetSysClockFreq+0x5e>
 80043ac:	684b      	ldr	r3, [r1, #4]
 80043ae:	480b      	ldr	r0, [pc, #44]	; (80043dc <HAL_RCC_GetSysClockFreq+0x74>)
 80043b0:	f3c3 4340 	ubfx	r3, r3, #17, #1
 80043b4:	4350      	muls	r0, r2
 80043b6:	aa06      	add	r2, sp, #24
 80043b8:	4413      	add	r3, r2
 80043ba:	f813 3c14 	ldrb.w	r3, [r3, #-20]
 80043be:	fbb0 f0f3 	udiv	r0, r0, r3
 80043c2:	b007      	add	sp, #28
 80043c4:	bd30      	pop	{r4, r5, pc}
 80043c6:	4806      	ldr	r0, [pc, #24]	; (80043e0 <HAL_RCC_GetSysClockFreq+0x78>)
 80043c8:	4350      	muls	r0, r2
 80043ca:	e7fa      	b.n	80043c2 <HAL_RCC_GetSysClockFreq+0x5a>
 80043cc:	4803      	ldr	r0, [pc, #12]	; (80043dc <HAL_RCC_GetSysClockFreq+0x74>)
 80043ce:	e7f8      	b.n	80043c2 <HAL_RCC_GetSysClockFreq+0x5a>
 80043d0:	4804      	ldr	r0, [pc, #16]	; (80043e4 <HAL_RCC_GetSysClockFreq+0x7c>)
 80043d2:	e7f6      	b.n	80043c2 <HAL_RCC_GetSysClockFreq+0x5a>
 80043d4:	08006f4d 	.word	0x08006f4d
 80043d8:	40021000 	.word	0x40021000
 80043dc:	00f42400 	.word	0x00f42400
 80043e0:	003d0900 	.word	0x003d0900
 80043e4:	007a1200 	.word	0x007a1200

080043e8 <HAL_RCC_ClockConfig>:
 80043e8:	e92d 41f0 	stmdb	sp!, {r4, r5, r6, r7, r8, lr}
 80043ec:	460d      	mov	r5, r1
 80043ee:	4604      	mov	r4, r0
 80043f0:	b910      	cbnz	r0, 80043f8 <HAL_RCC_ClockConfig+0x10>
 80043f2:	2001      	movs	r0, #1
 80043f4:	e8bd 81f0 	ldmia.w	sp!, {r4, r5, r6, r7, r8, pc}
 80043f8:	4a44      	ldr	r2, [pc, #272]	; (800450c <HAL_RCC_ClockConfig+0x124>)
 80043fa:	6813      	ldr	r3, [r2, #0]
 80043fc:	f003 0307 	and.w	r3, r3, #7
 8004400:	428b      	cmp	r3, r1
 8004402:	d328      	bcc.n	8004456 <HAL_RCC_ClockConfig+0x6e>
 8004404:	6821      	ldr	r1, [r4, #0]
 8004406:	078e      	lsls	r6, r1, #30
 8004408:	d430      	bmi.n	800446c <HAL_RCC_ClockConfig+0x84>
 800440a:	07ca      	lsls	r2, r1, #31
 800440c:	d443      	bmi.n	8004496 <HAL_RCC_ClockConfig+0xae>
 800440e:	4a3f      	ldr	r2, [pc, #252]	; (800450c <HAL_RCC_ClockConfig+0x124>)
 8004410:	6813      	ldr	r3, [r2, #0]
 8004412:	f003 0307 	and.w	r3, r3, #7
 8004416:	42ab      	cmp	r3, r5
 8004418:	d865      	bhi.n	80044e6 <HAL_RCC_ClockConfig+0xfe>
 800441a:	6822      	ldr	r2, [r4, #0]
 800441c:	4d3c      	ldr	r5, [pc, #240]	; (8004510 <HAL_RCC_ClockConfig+0x128>)
 800441e:	f012 0f04 	tst.w	r2, #4
 8004422:	d16c      	bne.n	80044fe <HAL_RCC_ClockConfig+0x116>
 8004424:	0713      	lsls	r3, r2, #28
 8004426:	d506      	bpl.n	8004436 <HAL_RCC_ClockConfig+0x4e>
 8004428:	686b      	ldr	r3, [r5, #4]
 800442a:	6922      	ldr	r2, [r4, #16]
 800442c:	f423 5360 	bic.w	r3, r3, #14336	; 0x3800
 8004430:	ea43 03c2 	orr.w	r3, r3, r2, lsl #3
 8004434:	606b      	str	r3, [r5, #4]
 8004436:	f7ff ff97 	bl	8004368 <HAL_RCC_GetSysClockFreq>
 800443a:	686b      	ldr	r3, [r5, #4]
 800443c:	4a35      	ldr	r2, [pc, #212]	; (8004514 <HAL_RCC_ClockConfig+0x12c>)
 800443e:	f3c3 1303 	ubfx	r3, r3, #4, #4
 8004442:	5cd3      	ldrb	r3, [r2, r3]
 8004444:	40d8      	lsrs	r0, r3
 8004446:	4b34      	ldr	r3, [pc, #208]	; (8004518 <HAL_RCC_ClockConfig+0x130>)
 8004448:	6018      	str	r0, [r3, #0]
 800444a:	4b34      	ldr	r3, [pc, #208]	; (800451c <HAL_RCC_ClockConfig+0x134>)
 800444c:	6818      	ldr	r0, [r3, #0]
 800444e:	f7fd fdd7 	bl	8002000 <HAL_InitTick>
 8004452:	2000      	movs	r0, #0
 8004454:	e7ce      	b.n	80043f4 <HAL_RCC_ClockConfig+0xc>
 8004456:	6813      	ldr	r3, [r2, #0]
 8004458:	f023 0307 	bic.w	r3, r3, #7
 800445c:	430b      	orrs	r3, r1
 800445e:	6013      	str	r3, [r2, #0]
 8004460:	6813      	ldr	r3, [r2, #0]
 8004462:	f003 0307 	and.w	r3, r3, #7
 8004466:	428b      	cmp	r3, r1
 8004468:	d1c3      	bne.n	80043f2 <HAL_RCC_ClockConfig+0xa>
 800446a:	e7cb      	b.n	8004404 <HAL_RCC_ClockConfig+0x1c>
 800446c:	4b28      	ldr	r3, [pc, #160]	; (8004510 <HAL_RCC_ClockConfig+0x128>)
 800446e:	f011 0f04 	tst.w	r1, #4
 8004472:	bf1e      	ittt	ne
 8004474:	685a      	ldrne	r2, [r3, #4]
 8004476:	f442 62e0 	orrne.w	r2, r2, #1792	; 0x700
 800447a:	605a      	strne	r2, [r3, #4]
 800447c:	0708      	lsls	r0, r1, #28
 800447e:	bf42      	ittt	mi
 8004480:	685a      	ldrmi	r2, [r3, #4]
 8004482:	f442 5260 	orrmi.w	r2, r2, #14336	; 0x3800
 8004486:	605a      	strmi	r2, [r3, #4]
 8004488:	685a      	ldr	r2, [r3, #4]
 800448a:	68a0      	ldr	r0, [r4, #8]
 800448c:	f022 02f0 	bic.w	r2, r2, #240	; 0xf0
 8004490:	4302      	orrs	r2, r0
 8004492:	605a      	str	r2, [r3, #4]
 8004494:	e7b9      	b.n	800440a <HAL_RCC_ClockConfig+0x22>
 8004496:	6862      	ldr	r2, [r4, #4]
 8004498:	4e1d      	ldr	r6, [pc, #116]	; (8004510 <HAL_RCC_ClockConfig+0x128>)
 800449a:	2a01      	cmp	r2, #1
 800449c:	6833      	ldr	r3, [r6, #0]
 800449e:	d11a      	bne.n	80044d6 <HAL_RCC_ClockConfig+0xee>
 80044a0:	f413 3f00 	tst.w	r3, #131072	; 0x20000
 80044a4:	d0a5      	beq.n	80043f2 <HAL_RCC_ClockConfig+0xa>
 80044a6:	6873      	ldr	r3, [r6, #4]
 80044a8:	f241 3888 	movw	r8, #5000	; 0x1388
 80044ac:	f023 0303 	bic.w	r3, r3, #3
 80044b0:	4313      	orrs	r3, r2
 80044b2:	6073      	str	r3, [r6, #4]
 80044b4:	f7fd fde6 	bl	8002084 <HAL_GetTick>
 80044b8:	4607      	mov	r7, r0
 80044ba:	6873      	ldr	r3, [r6, #4]
 80044bc:	6862      	ldr	r2, [r4, #4]
 80044be:	f003 030c 	and.w	r3, r3, #12
 80044c2:	ebb3 0f82 	cmp.w	r3, r2, lsl #2
 80044c6:	d0a2      	beq.n	800440e <HAL_RCC_ClockConfig+0x26>
 80044c8:	f7fd fddc 	bl	8002084 <HAL_GetTick>
 80044cc:	1bc0      	subs	r0, r0, r7
 80044ce:	4540      	cmp	r0, r8
 80044d0:	d9f3      	bls.n	80044ba <HAL_RCC_ClockConfig+0xd2>
 80044d2:	2003      	movs	r0, #3
 80044d4:	e78e      	b.n	80043f4 <HAL_RCC_ClockConfig+0xc>
 80044d6:	2a02      	cmp	r2, #2
 80044d8:	d102      	bne.n	80044e0 <HAL_RCC_ClockConfig+0xf8>
 80044da:	f013 7f00 	tst.w	r3, #33554432	; 0x2000000
 80044de:	e7e1      	b.n	80044a4 <HAL_RCC_ClockConfig+0xbc>
 80044e0:	f013 0f02 	tst.w	r3, #2
 80044e4:	e7de      	b.n	80044a4 <HAL_RCC_ClockConfig+0xbc>
 80044e6:	6813      	ldr	r3, [r2, #0]
 80044e8:	f023 0307 	bic.w	r3, r3, #7
 80044ec:	432b      	orrs	r3, r5
 80044ee:	6013      	str	r3, [r2, #0]
 80044f0:	6813      	ldr	r3, [r2, #0]
 80044f2:	f003 0307 	and.w	r3, r3, #7
 80044f6:	42ab      	cmp	r3, r5
 80044f8:	f47f af7b 	bne.w	80043f2 <HAL_RCC_ClockConfig+0xa>
 80044fc:	e78d      	b.n	800441a <HAL_RCC_ClockConfig+0x32>
 80044fe:	686b      	ldr	r3, [r5, #4]
 8004500:	68e1      	ldr	r1, [r4, #12]
 8004502:	f423 63e0 	bic.w	r3, r3, #1792	; 0x700
 8004506:	430b      	orrs	r3, r1
 8004508:	606b      	str	r3, [r5, #4]
 800450a:	e78b      	b.n	8004424 <HAL_RCC_ClockConfig+0x3c>
 800450c:	40022000 	.word	0x40022000
 8004510:	40021000 	.word	0x40021000
 8004514:	08006fce 	.word	0x08006fce
 8004518:	20000078 	.word	0x20000078
 800451c:	2000006c 	.word	0x2000006c

08004520 <HAL_RCC_GetPCLK1Freq>:
 8004520:	4b04      	ldr	r3, [pc, #16]	; (8004534 <HAL_RCC_GetPCLK1Freq+0x14>)
 8004522:	4a05      	ldr	r2, [pc, #20]	; (8004538 <HAL_RCC_GetPCLK1Freq+0x18>)
 8004524:	685b      	ldr	r3, [r3, #4]
 8004526:	f3c3 2302 	ubfx	r3, r3, #8, #3
 800452a:	5cd3      	ldrb	r3, [r2, r3]
 800452c:	4a03      	ldr	r2, [pc, #12]	; (800453c <HAL_RCC_GetPCLK1Freq+0x1c>)
 800452e:	6810      	ldr	r0, [r2, #0]
 8004530:	40d8      	lsrs	r0, r3
 8004532:	4770      	bx	lr
 8004534:	40021000 	.word	0x40021000
 8004538:	08006fde 	.word	0x08006fde
 800453c:	20000078 	.word	0x20000078

08004540 <HAL_RCC_GetPCLK2Freq>:
 8004540:	4b04      	ldr	r3, [pc, #16]	; (8004554 <HAL_RCC_GetPCLK2Freq+0x14>)
 8004542:	4a05      	ldr	r2, [pc, #20]	; (8004558 <HAL_RCC_GetPCLK2Freq+0x18>)
 8004544:	685b      	ldr	r3, [r3, #4]
 8004546:	f3c3 23c2 	ubfx	r3, r3, #11, #3
 800454a:	5cd3      	ldrb	r3, [r2, r3]
 800454c:	4a03      	ldr	r2, [pc, #12]	; (800455c <HAL_RCC_GetPCLK2Freq+0x1c>)
 800454e:	6810      	ldr	r0, [r2, #0]
 8004550:	40d8      	lsrs	r0, r3
 8004552:	4770      	bx	lr
 8004554:	40021000 	.word	0x40021000
 8004558:	08006fde 	.word	0x08006fde
 800455c:	20000078 	.word	0x20000078

08004560 <HAL_RCCEx_PeriphCLKConfig>:
 8004560:	6803      	ldr	r3, [r0, #0]
 8004562:	e92d 41f3 	stmdb	sp!, {r0, r1, r4, r5, r6, r7, r8, lr}
 8004566:	07d9      	lsls	r1, r3, #31
 8004568:	4605      	mov	r5, r0
 800456a:	d520      	bpl.n	80045ae <HAL_RCCEx_PeriphCLKConfig+0x4e>
 800456c:	4c35      	ldr	r4, [pc, #212]	; (8004644 <HAL_RCCEx_PeriphCLKConfig+0xe4>)
 800456e:	69e3      	ldr	r3, [r4, #28]
 8004570:	00da      	lsls	r2, r3, #3
 8004572:	d432      	bmi.n	80045da <HAL_RCCEx_PeriphCLKConfig+0x7a>
 8004574:	2701      	movs	r7, #1
 8004576:	69e3      	ldr	r3, [r4, #28]
 8004578:	f043 5380 	orr.w	r3, r3, #268435456	; 0x10000000
 800457c:	61e3      	str	r3, [r4, #28]
 800457e:	69e3      	ldr	r3, [r4, #28]
 8004580:	f003 5380 	and.w	r3, r3, #268435456	; 0x10000000
 8004584:	9301      	str	r3, [sp, #4]
 8004586:	9b01      	ldr	r3, [sp, #4]
 8004588:	4e2f      	ldr	r6, [pc, #188]	; (8004648 <HAL_RCCEx_PeriphCLKConfig+0xe8>)
 800458a:	6833      	ldr	r3, [r6, #0]
 800458c:	05db      	lsls	r3, r3, #23
 800458e:	d526      	bpl.n	80045de <HAL_RCCEx_PeriphCLKConfig+0x7e>
 8004590:	6a23      	ldr	r3, [r4, #32]
 8004592:	f413 7340 	ands.w	r3, r3, #768	; 0x300
 8004596:	d136      	bne.n	8004606 <HAL_RCCEx_PeriphCLKConfig+0xa6>
 8004598:	6a23      	ldr	r3, [r4, #32]
 800459a:	686a      	ldr	r2, [r5, #4]
 800459c:	f423 7340 	bic.w	r3, r3, #768	; 0x300
 80045a0:	4313      	orrs	r3, r2
 80045a2:	6223      	str	r3, [r4, #32]
 80045a4:	b11f      	cbz	r7, 80045ae <HAL_RCCEx_PeriphCLKConfig+0x4e>
 80045a6:	69e3      	ldr	r3, [r4, #28]
 80045a8:	f023 5380 	bic.w	r3, r3, #268435456	; 0x10000000
 80045ac:	61e3      	str	r3, [r4, #28]
 80045ae:	6828      	ldr	r0, [r5, #0]
 80045b0:	0783      	lsls	r3, r0, #30
 80045b2:	d506      	bpl.n	80045c2 <HAL_RCCEx_PeriphCLKConfig+0x62>
 80045b4:	4923      	ldr	r1, [pc, #140]	; (8004644 <HAL_RCCEx_PeriphCLKConfig+0xe4>)
 80045b6:	68ab      	ldr	r3, [r5, #8]
 80045b8:	684a      	ldr	r2, [r1, #4]
 80045ba:	f422 4240 	bic.w	r2, r2, #49152	; 0xc000
 80045be:	431a      	orrs	r2, r3
 80045c0:	604a      	str	r2, [r1, #4]
 80045c2:	f010 0010 	ands.w	r0, r0, #16
 80045c6:	d01b      	beq.n	8004600 <HAL_RCCEx_PeriphCLKConfig+0xa0>
 80045c8:	4a1e      	ldr	r2, [pc, #120]	; (8004644 <HAL_RCCEx_PeriphCLKConfig+0xe4>)
 80045ca:	68e9      	ldr	r1, [r5, #12]
 80045cc:	6853      	ldr	r3, [r2, #4]
 80045ce:	2000      	movs	r0, #0
 80045d0:	f423 0380 	bic.w	r3, r3, #4194304	; 0x400000
 80045d4:	430b      	orrs	r3, r1
 80045d6:	6053      	str	r3, [r2, #4]
 80045d8:	e012      	b.n	8004600 <HAL_RCCEx_PeriphCLKConfig+0xa0>
 80045da:	2700      	movs	r7, #0
 80045dc:	e7d4      	b.n	8004588 <HAL_RCCEx_PeriphCLKConfig+0x28>
 80045de:	6833      	ldr	r3, [r6, #0]
 80045e0:	f443 7380 	orr.w	r3, r3, #256	; 0x100
 80045e4:	6033      	str	r3, [r6, #0]
 80045e6:	f7fd fd4d 	bl	8002084 <HAL_GetTick>
 80045ea:	4680      	mov	r8, r0
 80045ec:	6833      	ldr	r3, [r6, #0]
 80045ee:	05d8      	lsls	r0, r3, #23
 80045f0:	d4ce      	bmi.n	8004590 <HAL_RCCEx_PeriphCLKConfig+0x30>
 80045f2:	f7fd fd47 	bl	8002084 <HAL_GetTick>
 80045f6:	eba0 0008 	sub.w	r0, r0, r8
 80045fa:	2864      	cmp	r0, #100	; 0x64
 80045fc:	d9f6      	bls.n	80045ec <HAL_RCCEx_PeriphCLKConfig+0x8c>
 80045fe:	2003      	movs	r0, #3
 8004600:	b002      	add	sp, #8
 8004602:	e8bd 81f0 	ldmia.w	sp!, {r4, r5, r6, r7, r8, pc}
 8004606:	686a      	ldr	r2, [r5, #4]
 8004608:	f402 7240 	and.w	r2, r2, #768	; 0x300
 800460c:	429a      	cmp	r2, r3
 800460e:	d0c3      	beq.n	8004598 <HAL_RCCEx_PeriphCLKConfig+0x38>
 8004610:	2001      	movs	r0, #1
 8004612:	4a0e      	ldr	r2, [pc, #56]	; (800464c <HAL_RCCEx_PeriphCLKConfig+0xec>)
 8004614:	6a23      	ldr	r3, [r4, #32]
 8004616:	6010      	str	r0, [r2, #0]
 8004618:	2000      	movs	r0, #0
 800461a:	f423 7140 	bic.w	r1, r3, #768	; 0x300
 800461e:	6010      	str	r0, [r2, #0]
 8004620:	6221      	str	r1, [r4, #32]
 8004622:	07d9      	lsls	r1, r3, #31
 8004624:	d5b8      	bpl.n	8004598 <HAL_RCCEx_PeriphCLKConfig+0x38>
 8004626:	f7fd fd2d 	bl	8002084 <HAL_GetTick>
 800462a:	f241 3888 	movw	r8, #5000	; 0x1388
 800462e:	4606      	mov	r6, r0
 8004630:	6a23      	ldr	r3, [r4, #32]
 8004632:	079a      	lsls	r2, r3, #30
 8004634:	d4b0      	bmi.n	8004598 <HAL_RCCEx_PeriphCLKConfig+0x38>
 8004636:	f7fd fd25 	bl	8002084 <HAL_GetTick>
 800463a:	1b80      	subs	r0, r0, r6
 800463c:	4540      	cmp	r0, r8
 800463e:	d9f7      	bls.n	8004630 <HAL_RCCEx_PeriphCLKConfig+0xd0>
 8004640:	e7dd      	b.n	80045fe <HAL_RCCEx_PeriphCLKConfig+0x9e>
 8004642:	bf00      	nop
 8004644:	40021000 	.word	0x40021000
 8004648:	40007000 	.word	0x40007000
 800464c:	42420440 	.word	0x42420440

08004650 <HAL_RCCEx_GetPeriphCLKFreq>:
 8004650:	4602      	mov	r2, r0
 8004652:	b570      	push	{r4, r5, r6, lr}
 8004654:	4b33      	ldr	r3, [pc, #204]	; (8004724 <HAL_RCCEx_GetPeriphCLKFreq+0xd4>)
 8004656:	b086      	sub	sp, #24
 8004658:	ad02      	add	r5, sp, #8
 800465a:	f103 0610 	add.w	r6, r3, #16
 800465e:	462c      	mov	r4, r5
 8004660:	6818      	ldr	r0, [r3, #0]
 8004662:	6859      	ldr	r1, [r3, #4]
 8004664:	3308      	adds	r3, #8
 8004666:	c403      	stmia	r4!, {r0, r1}
 8004668:	42b3      	cmp	r3, r6
 800466a:	4625      	mov	r5, r4
 800466c:	d1f7      	bne.n	800465e <HAL_RCCEx_GetPeriphCLKFreq+0xe>
 800466e:	f240 2301 	movw	r3, #513	; 0x201
 8004672:	2a02      	cmp	r2, #2
 8004674:	f8ad 3004 	strh.w	r3, [sp, #4]
 8004678:	d048      	beq.n	800470c <HAL_RCCEx_GetPeriphCLKFreq+0xbc>
 800467a:	2a10      	cmp	r2, #16
 800467c:	d003      	beq.n	8004686 <HAL_RCCEx_GetPeriphCLKFreq+0x36>
 800467e:	2a01      	cmp	r2, #1
 8004680:	d026      	beq.n	80046d0 <HAL_RCCEx_GetPeriphCLKFreq+0x80>
 8004682:	2000      	movs	r0, #0
 8004684:	e038      	b.n	80046f8 <HAL_RCCEx_GetPeriphCLKFreq+0xa8>
 8004686:	4b28      	ldr	r3, [pc, #160]	; (8004728 <HAL_RCCEx_GetPeriphCLKFreq+0xd8>)
 8004688:	6859      	ldr	r1, [r3, #4]
 800468a:	6818      	ldr	r0, [r3, #0]
 800468c:	f010 7080 	ands.w	r0, r0, #16777216	; 0x1000000
 8004690:	d032      	beq.n	80046f8 <HAL_RCCEx_GetPeriphCLKFreq+0xa8>
 8004692:	f3c1 4283 	ubfx	r2, r1, #18, #4
 8004696:	a806      	add	r0, sp, #24
 8004698:	4402      	add	r2, r0
 800469a:	f812 0c10 	ldrb.w	r0, [r2, #-16]
 800469e:	03ca      	lsls	r2, r1, #15
 80046a0:	bf41      	itttt	mi
 80046a2:	685a      	ldrmi	r2, [r3, #4]
 80046a4:	a906      	addmi	r1, sp, #24
 80046a6:	f3c2 4240 	ubfxmi	r2, r2, #17, #1
 80046aa:	1852      	addmi	r2, r2, r1
 80046ac:	bf44      	itt	mi
 80046ae:	f812 1c14 	ldrbmi.w	r1, [r2, #-20]
 80046b2:	4a1e      	ldrmi	r2, [pc, #120]	; (800472c <HAL_RCCEx_GetPeriphCLKFreq+0xdc>)
 80046b4:	685b      	ldr	r3, [r3, #4]
 80046b6:	bf4c      	ite	mi
 80046b8:	fbb2 f2f1 	udivmi	r2, r2, r1
 80046bc:	4a1c      	ldrpl	r2, [pc, #112]	; (8004730 <HAL_RCCEx_GetPeriphCLKFreq+0xe0>)
 80046be:	025b      	lsls	r3, r3, #9
 80046c0:	fb02 f000 	mul.w	r0, r2, r0
 80046c4:	d418      	bmi.n	80046f8 <HAL_RCCEx_GetPeriphCLKFreq+0xa8>
 80046c6:	2303      	movs	r3, #3
 80046c8:	0040      	lsls	r0, r0, #1
 80046ca:	fbb0 f0f3 	udiv	r0, r0, r3
 80046ce:	e013      	b.n	80046f8 <HAL_RCCEx_GetPeriphCLKFreq+0xa8>
 80046d0:	f240 3102 	movw	r1, #770	; 0x302
 80046d4:	4a14      	ldr	r2, [pc, #80]	; (8004728 <HAL_RCCEx_GetPeriphCLKFreq+0xd8>)
 80046d6:	6a13      	ldr	r3, [r2, #32]
 80046d8:	4019      	ands	r1, r3
 80046da:	f5b1 7f81 	cmp.w	r1, #258	; 0x102
 80046de:	d01e      	beq.n	800471e <HAL_RCCEx_GetPeriphCLKFreq+0xce>
 80046e0:	f403 7340 	and.w	r3, r3, #768	; 0x300
 80046e4:	f5b3 7f00 	cmp.w	r3, #512	; 0x200
 80046e8:	d108      	bne.n	80046fc <HAL_RCCEx_GetPeriphCLKFreq+0xac>
 80046ea:	f649 4340 	movw	r3, #40000	; 0x9c40
 80046ee:	6a50      	ldr	r0, [r2, #36]	; 0x24
 80046f0:	f010 0002 	ands.w	r0, r0, #2
 80046f4:	bf18      	it	ne
 80046f6:	4618      	movne	r0, r3
 80046f8:	b006      	add	sp, #24
 80046fa:	bd70      	pop	{r4, r5, r6, pc}
 80046fc:	f5b3 7f40 	cmp.w	r3, #768	; 0x300
 8004700:	d1bf      	bne.n	8004682 <HAL_RCCEx_GetPeriphCLKFreq+0x32>
 8004702:	6810      	ldr	r0, [r2, #0]
 8004704:	4b0b      	ldr	r3, [pc, #44]	; (8004734 <HAL_RCCEx_GetPeriphCLKFreq+0xe4>)
 8004706:	f410 3000 	ands.w	r0, r0, #131072	; 0x20000
 800470a:	e7f3      	b.n	80046f4 <HAL_RCCEx_GetPeriphCLKFreq+0xa4>
 800470c:	f7ff ff18 	bl	8004540 <HAL_RCC_GetPCLK2Freq>
 8004710:	4b05      	ldr	r3, [pc, #20]	; (8004728 <HAL_RCCEx_GetPeriphCLKFreq+0xd8>)
 8004712:	685b      	ldr	r3, [r3, #4]
 8004714:	f3c3 3381 	ubfx	r3, r3, #14, #2
 8004718:	3301      	adds	r3, #1
 800471a:	005b      	lsls	r3, r3, #1
 800471c:	e7d5      	b.n	80046ca <HAL_RCCEx_GetPeriphCLKFreq+0x7a>
 800471e:	f44f 4000 	mov.w	r0, #32768	; 0x8000
 8004722:	e7e9      	b.n	80046f8 <HAL_RCCEx_GetPeriphCLKFreq+0xa8>
 8004724:	08006f4d 	.word	0x08006f4d
 8004728:	40021000 	.word	0x40021000
 800472c:	00f42400 	.word	0x00f42400
 8004730:	003d0900 	.word	0x003d0900
 8004734:	0001e848 	.word	0x0001e848

08004738 <TIM_OC1_SetConfig>:
 8004738:	6a03      	ldr	r3, [r0, #32]
 800473a:	b570      	push	{r4, r5, r6, lr}
 800473c:	f023 0301 	bic.w	r3, r3, #1
 8004740:	6203      	str	r3, [r0, #32]
 8004742:	6a03      	ldr	r3, [r0, #32]
 8004744:	6844      	ldr	r4, [r0, #4]
 8004746:	6982      	ldr	r2, [r0, #24]
 8004748:	680d      	ldr	r5, [r1, #0]
 800474a:	f022 0273 	bic.w	r2, r2, #115	; 0x73
 800474e:	432a      	orrs	r2, r5
 8004750:	688d      	ldr	r5, [r1, #8]
 8004752:	f023 0302 	bic.w	r3, r3, #2
 8004756:	432b      	orrs	r3, r5
 8004758:	4d0a      	ldr	r5, [pc, #40]	; (8004784 <TIM_OC1_SetConfig+0x4c>)
 800475a:	42a8      	cmp	r0, r5
 800475c:	d10b      	bne.n	8004776 <TIM_OC1_SetConfig+0x3e>
 800475e:	68cd      	ldr	r5, [r1, #12]
 8004760:	f023 0308 	bic.w	r3, r3, #8
 8004764:	432b      	orrs	r3, r5
 8004766:	f424 7440 	bic.w	r4, r4, #768	; 0x300
 800476a:	e9d1 5605 	ldrd	r5, r6, [r1, #20]
 800476e:	4335      	orrs	r5, r6
 8004770:	f023 0304 	bic.w	r3, r3, #4
 8004774:	432c      	orrs	r4, r5
 8004776:	6044      	str	r4, [r0, #4]
 8004778:	6182      	str	r2, [r0, #24]
 800477a:	684a      	ldr	r2, [r1, #4]
 800477c:	6342      	str	r2, [r0, #52]	; 0x34
 800477e:	6203      	str	r3, [r0, #32]
 8004780:	bd70      	pop	{r4, r5, r6, pc}
 8004782:	bf00      	nop
 8004784:	40012c00 	.word	0x40012c00

08004788 <TIM_OC3_SetConfig>:
 8004788:	6a03      	ldr	r3, [r0, #32]
 800478a:	b570      	push	{r4, r5, r6, lr}
 800478c:	f423 7380 	bic.w	r3, r3, #256	; 0x100
 8004790:	6203      	str	r3, [r0, #32]
 8004792:	6a03      	ldr	r3, [r0, #32]
 8004794:	6844      	ldr	r4, [r0, #4]
 8004796:	69c2      	ldr	r2, [r0, #28]
 8004798:	680d      	ldr	r5, [r1, #0]
 800479a:	f022 0273 	bic.w	r2, r2, #115	; 0x73
 800479e:	432a      	orrs	r2, r5
 80047a0:	688d      	ldr	r5, [r1, #8]
 80047a2:	f423 7300 	bic.w	r3, r3, #512	; 0x200
 80047a6:	ea43 2305 	orr.w	r3, r3, r5, lsl #8
 80047aa:	4d0b      	ldr	r5, [pc, #44]	; (80047d8 <TIM_OC3_SetConfig+0x50>)
 80047ac:	42a8      	cmp	r0, r5
 80047ae:	d10d      	bne.n	80047cc <TIM_OC3_SetConfig+0x44>
 80047b0:	68cd      	ldr	r5, [r1, #12]
 80047b2:	f423 6300 	bic.w	r3, r3, #2048	; 0x800
 80047b6:	ea43 2305 	orr.w	r3, r3, r5, lsl #8
 80047ba:	f424 5440 	bic.w	r4, r4, #12288	; 0x3000
 80047be:	e9d1 5605 	ldrd	r5, r6, [r1, #20]
 80047c2:	4335      	orrs	r5, r6
 80047c4:	f423 6380 	bic.w	r3, r3, #1024	; 0x400
 80047c8:	ea44 1405 	orr.w	r4, r4, r5, lsl #4
 80047cc:	6044      	str	r4, [r0, #4]
 80047ce:	61c2      	str	r2, [r0, #28]
 80047d0:	684a      	ldr	r2, [r1, #4]
 80047d2:	63c2      	str	r2, [r0, #60]	; 0x3c
 80047d4:	6203      	str	r3, [r0, #32]
 80047d6:	bd70      	pop	{r4, r5, r6, pc}
 80047d8:	40012c00 	.word	0x40012c00

080047dc <TIM_OC4_SetConfig>:
 80047dc:	6a03      	ldr	r3, [r0, #32]
 80047de:	b530      	push	{r4, r5, lr}
 80047e0:	f423 5380 	bic.w	r3, r3, #4096	; 0x1000
 80047e4:	6203      	str	r3, [r0, #32]
 80047e6:	6a03      	ldr	r3, [r0, #32]
 80047e8:	6844      	ldr	r4, [r0, #4]
 80047ea:	69c2      	ldr	r2, [r0, #28]
 80047ec:	680d      	ldr	r5, [r1, #0]
 80047ee:	f422 42e6 	bic.w	r2, r2, #29440	; 0x7300
 80047f2:	ea42 2205 	orr.w	r2, r2, r5, lsl #8
 80047f6:	688d      	ldr	r5, [r1, #8]
 80047f8:	f423 5300 	bic.w	r3, r3, #8192	; 0x2000
 80047fc:	ea43 3305 	orr.w	r3, r3, r5, lsl #12
 8004800:	4d06      	ldr	r5, [pc, #24]	; (800481c <TIM_OC4_SetConfig+0x40>)
 8004802:	42a8      	cmp	r0, r5
 8004804:	bf02      	ittt	eq
 8004806:	694d      	ldreq	r5, [r1, #20]
 8004808:	f424 4480 	biceq.w	r4, r4, #16384	; 0x4000
 800480c:	ea44 1485 	orreq.w	r4, r4, r5, lsl #6
 8004810:	6044      	str	r4, [r0, #4]
 8004812:	61c2      	str	r2, [r0, #28]
 8004814:	684a      	ldr	r2, [r1, #4]
 8004816:	6402      	str	r2, [r0, #64]	; 0x40
 8004818:	6203      	str	r3, [r0, #32]
 800481a:	bd30      	pop	{r4, r5, pc}
 800481c:	40012c00 	.word	0x40012c00

08004820 <HAL_TIM_Base_Start>:
 8004820:	f890 303d 	ldrb.w	r3, [r0, #61]	; 0x3d
 8004824:	2b01      	cmp	r3, #1
 8004826:	d11c      	bne.n	8004862 <HAL_TIM_Base_Start+0x42>
 8004828:	2302      	movs	r3, #2
 800482a:	4a0f      	ldr	r2, [pc, #60]	; (8004868 <HAL_TIM_Base_Start+0x48>)
 800482c:	f880 303d 	strb.w	r3, [r0, #61]	; 0x3d
 8004830:	6803      	ldr	r3, [r0, #0]
 8004832:	4293      	cmp	r3, r2
 8004834:	d00a      	beq.n	800484c <HAL_TIM_Base_Start+0x2c>
 8004836:	f1b3 4f80 	cmp.w	r3, #1073741824	; 0x40000000
 800483a:	d007      	beq.n	800484c <HAL_TIM_Base_Start+0x2c>
 800483c:	f5a2 3294 	sub.w	r2, r2, #75776	; 0x12800
 8004840:	4293      	cmp	r3, r2
 8004842:	d003      	beq.n	800484c <HAL_TIM_Base_Start+0x2c>
 8004844:	f502 6280 	add.w	r2, r2, #1024	; 0x400
 8004848:	4293      	cmp	r3, r2
 800484a:	d104      	bne.n	8004856 <HAL_TIM_Base_Start+0x36>
 800484c:	689a      	ldr	r2, [r3, #8]
 800484e:	f002 0207 	and.w	r2, r2, #7
 8004852:	2a06      	cmp	r2, #6
 8004854:	d003      	beq.n	800485e <HAL_TIM_Base_Start+0x3e>
 8004856:	681a      	ldr	r2, [r3, #0]
 8004858:	f042 0201 	orr.w	r2, r2, #1
 800485c:	601a      	str	r2, [r3, #0]
 800485e:	2000      	movs	r0, #0
 8004860:	4770      	bx	lr
 8004862:	2001      	movs	r0, #1
 8004864:	4770      	bx	lr
 8004866:	bf00      	nop
 8004868:	40012c00 	.word	0x40012c00

0800486c <HAL_TIM_Base_Stop>:
 800486c:	f241 1211 	movw	r2, #4369	; 0x1111
 8004870:	6803      	ldr	r3, [r0, #0]
 8004872:	6a19      	ldr	r1, [r3, #32]
 8004874:	4211      	tst	r1, r2
 8004876:	d108      	bne.n	800488a <HAL_TIM_Base_Stop+0x1e>
 8004878:	f240 4244 	movw	r2, #1092	; 0x444
 800487c:	6a19      	ldr	r1, [r3, #32]
 800487e:	4211      	tst	r1, r2
 8004880:	bf02      	ittt	eq
 8004882:	681a      	ldreq	r2, [r3, #0]
 8004884:	f022 0201 	biceq.w	r2, r2, #1
 8004888:	601a      	streq	r2, [r3, #0]
 800488a:	2301      	movs	r3, #1
 800488c:	f880 303d 	strb.w	r3, [r0, #61]	; 0x3d
 8004890:	2000      	movs	r0, #0
 8004892:	4770      	bx	lr

08004894 <TIM_Base_SetConfig>:
 8004894:	4a1a      	ldr	r2, [pc, #104]	; (8004900 <TIM_Base_SetConfig+0x6c>)
 8004896:	6803      	ldr	r3, [r0, #0]
 8004898:	4290      	cmp	r0, r2
 800489a:	d00a      	beq.n	80048b2 <TIM_Base_SetConfig+0x1e>
 800489c:	f1b0 4f80 	cmp.w	r0, #1073741824	; 0x40000000
 80048a0:	d007      	beq.n	80048b2 <TIM_Base_SetConfig+0x1e>
 80048a2:	f5a2 3294 	sub.w	r2, r2, #75776	; 0x12800
 80048a6:	4290      	cmp	r0, r2
 80048a8:	d003      	beq.n	80048b2 <TIM_Base_SetConfig+0x1e>
 80048aa:	f502 6280 	add.w	r2, r2, #1024	; 0x400
 80048ae:	4290      	cmp	r0, r2
 80048b0:	d115      	bne.n	80048de <TIM_Base_SetConfig+0x4a>
 80048b2:	684a      	ldr	r2, [r1, #4]
 80048b4:	f023 0370 	bic.w	r3, r3, #112	; 0x70
 80048b8:	4313      	orrs	r3, r2
 80048ba:	4a11      	ldr	r2, [pc, #68]	; (8004900 <TIM_Base_SetConfig+0x6c>)
 80048bc:	4290      	cmp	r0, r2
 80048be:	d00a      	beq.n	80048d6 <TIM_Base_SetConfig+0x42>
 80048c0:	f1b0 4f80 	cmp.w	r0, #1073741824	; 0x40000000
 80048c4:	d007      	beq.n	80048d6 <TIM_Base_SetConfig+0x42>
 80048c6:	f5a2 3294 	sub.w	r2, r2, #75776	; 0x12800
 80048ca:	4290      	cmp	r0, r2
 80048cc:	d003      	beq.n	80048d6 <TIM_Base_SetConfig+0x42>
 80048ce:	f502 6280 	add.w	r2, r2, #1024	; 0x400
 80048d2:	4290      	cmp	r0, r2
 80048d4:	d103      	bne.n	80048de <TIM_Base_SetConfig+0x4a>
 80048d6:	68ca      	ldr	r2, [r1, #12]
 80048d8:	f423 7340 	bic.w	r3, r3, #768	; 0x300
 80048dc:	4313      	orrs	r3, r2
 80048de:	694a      	ldr	r2, [r1, #20]
 80048e0:	f023 0380 	bic.w	r3, r3, #128	; 0x80
 80048e4:	4313      	orrs	r3, r2
 80048e6:	6003      	str	r3, [r0, #0]
 80048e8:	688b      	ldr	r3, [r1, #8]
 80048ea:	62c3      	str	r3, [r0, #44]	; 0x2c
 80048ec:	680b      	ldr	r3, [r1, #0]
 80048ee:	6283      	str	r3, [r0, #40]	; 0x28
 80048f0:	4b03      	ldr	r3, [pc, #12]	; (8004900 <TIM_Base_SetConfig+0x6c>)
 80048f2:	4298      	cmp	r0, r3
 80048f4:	bf04      	itt	eq
 80048f6:	690b      	ldreq	r3, [r1, #16]
 80048f8:	6303      	streq	r3, [r0, #48]	; 0x30
 80048fa:	2301      	movs	r3, #1
 80048fc:	6143      	str	r3, [r0, #20]
 80048fe:	4770      	bx	lr
 8004900:	40012c00 	.word	0x40012c00

08004904 <HAL_TIM_Base_Init>:
 8004904:	b510      	push	{r4, lr}
 8004906:	4604      	mov	r4, r0
 8004908:	b330      	cbz	r0, 8004958 <HAL_TIM_Base_Init+0x54>
 800490a:	f890 303d 	ldrb.w	r3, [r0, #61]	; 0x3d
 800490e:	f003 02ff 	and.w	r2, r3, #255	; 0xff
 8004912:	b91b      	cbnz	r3, 800491c <HAL_TIM_Base_Init+0x18>
 8004914:	f880 203c 	strb.w	r2, [r0, #60]	; 0x3c
 8004918:	f001 f8d0 	bl	8005abc <HAL_TIM_Base_MspInit>
 800491c:	2302      	movs	r3, #2
 800491e:	6820      	ldr	r0, [r4, #0]
 8004920:	f884 303d 	strb.w	r3, [r4, #61]	; 0x3d
 8004924:	1d21      	adds	r1, r4, #4
 8004926:	f7ff ffb5 	bl	8004894 <TIM_Base_SetConfig>
 800492a:	2301      	movs	r3, #1
 800492c:	2000      	movs	r0, #0
 800492e:	f884 3046 	strb.w	r3, [r4, #70]	; 0x46
 8004932:	f884 303e 	strb.w	r3, [r4, #62]	; 0x3e
 8004936:	f884 303f 	strb.w	r3, [r4, #63]	; 0x3f
 800493a:	f884 3040 	strb.w	r3, [r4, #64]	; 0x40
 800493e:	f884 3041 	strb.w	r3, [r4, #65]	; 0x41
 8004942:	f884 3042 	strb.w	r3, [r4, #66]	; 0x42
 8004946:	f884 3043 	strb.w	r3, [r4, #67]	; 0x43
 800494a:	f884 3044 	strb.w	r3, [r4, #68]	; 0x44
 800494e:	f884 3045 	strb.w	r3, [r4, #69]	; 0x45
 8004952:	f884 303d 	strb.w	r3, [r4, #61]	; 0x3d
 8004956:	bd10      	pop	{r4, pc}
 8004958:	2001      	movs	r0, #1
 800495a:	e7fc      	b.n	8004956 <HAL_TIM_Base_Init+0x52>

0800495c <HAL_TIM_PWM_Init>:
 800495c:	b510      	push	{r4, lr}
 800495e:	4604      	mov	r4, r0
 8004960:	b330      	cbz	r0, 80049b0 <HAL_TIM_PWM_Init+0x54>
 8004962:	f890 303d 	ldrb.w	r3, [r0, #61]	; 0x3d
 8004966:	f003 02ff 	and.w	r2, r3, #255	; 0xff
 800496a:	b91b      	cbnz	r3, 8004974 <HAL_TIM_PWM_Init+0x18>
 800496c:	f880 203c 	strb.w	r2, [r0, #60]	; 0x3c
 8004970:	f001 f890 	bl	8005a94 <HAL_TIM_PWM_MspInit>
 8004974:	2302      	movs	r3, #2
 8004976:	6820      	ldr	r0, [r4, #0]
 8004978:	f884 303d 	strb.w	r3, [r4, #61]	; 0x3d
 800497c:	1d21      	adds	r1, r4, #4
 800497e:	f7ff ff89 	bl	8004894 <TIM_Base_SetConfig>
 8004982:	2301      	movs	r3, #1
 8004984:	2000      	movs	r0, #0
 8004986:	f884 3046 	strb.w	r3, [r4, #70]	; 0x46
 800498a:	f884 303e 	strb.w	r3, [r4, #62]	; 0x3e
 800498e:	f884 303f 	strb.w	r3, [r4, #63]	; 0x3f
 8004992:	f884 3040 	strb.w	r3, [r4, #64]	; 0x40
 8004996:	f884 3041 	strb.w	r3, [r4, #65]	; 0x41
 800499a:	f884 3042 	strb.w	r3, [r4, #66]	; 0x42
 800499e:	f884 3043 	strb.w	r3, [r4, #67]	; 0x43
 80049a2:	f884 3044 	strb.w	r3, [r4, #68]	; 0x44
 80049a6:	f884 3045 	strb.w	r3, [r4, #69]	; 0x45
 80049aa:	f884 303d 	strb.w	r3, [r4, #61]	; 0x3d
 80049ae:	bd10      	pop	{r4, pc}
 80049b0:	2001      	movs	r0, #1
 80049b2:	e7fc      	b.n	80049ae <HAL_TIM_PWM_Init+0x52>

080049b4 <TIM_OC2_SetConfig>:
 80049b4:	6a03      	ldr	r3, [r0, #32]
 80049b6:	b570      	push	{r4, r5, r6, lr}
 80049b8:	f023 0310 	bic.w	r3, r3, #16
 80049bc:	6203      	str	r3, [r0, #32]
 80049be:	6a03      	ldr	r3, [r0, #32]
 80049c0:	6844      	ldr	r4, [r0, #4]
 80049c2:	6982      	ldr	r2, [r0, #24]
 80049c4:	680d      	ldr	r5, [r1, #0]
 80049c6:	f422 42e6 	bic.w	r2, r2, #29440	; 0x7300
 80049ca:	ea42 2205 	orr.w	r2, r2, r5, lsl #8
 80049ce:	688d      	ldr	r5, [r1, #8]
 80049d0:	f023 0320 	bic.w	r3, r3, #32
 80049d4:	ea43 1305 	orr.w	r3, r3, r5, lsl #4
 80049d8:	4d0b      	ldr	r5, [pc, #44]	; (8004a08 <TIM_OC2_SetConfig+0x54>)
 80049da:	42a8      	cmp	r0, r5
 80049dc:	d10d      	bne.n	80049fa <TIM_OC2_SetConfig+0x46>
 80049de:	68cd      	ldr	r5, [r1, #12]
 80049e0:	f023 0380 	bic.w	r3, r3, #128	; 0x80
 80049e4:	ea43 1305 	orr.w	r3, r3, r5, lsl #4
 80049e8:	f424 6440 	bic.w	r4, r4, #3072	; 0xc00
 80049ec:	e9d1 5605 	ldrd	r5, r6, [r1, #20]
 80049f0:	4335      	orrs	r5, r6
 80049f2:	f023 0340 	bic.w	r3, r3, #64	; 0x40
 80049f6:	ea44 0485 	orr.w	r4, r4, r5, lsl #2
 80049fa:	6044      	str	r4, [r0, #4]
 80049fc:	6182      	str	r2, [r0, #24]
 80049fe:	684a      	ldr	r2, [r1, #4]
 8004a00:	6382      	str	r2, [r0, #56]	; 0x38
 8004a02:	6203      	str	r3, [r0, #32]
 8004a04:	bd70      	pop	{r4, r5, r6, pc}
 8004a06:	bf00      	nop
 8004a08:	40012c00 	.word	0x40012c00

08004a0c <HAL_TIM_PWM_ConfigChannel>:
 8004a0c:	b538      	push	{r3, r4, r5, lr}
 8004a0e:	f890 303c 	ldrb.w	r3, [r0, #60]	; 0x3c
 8004a12:	4604      	mov	r4, r0
 8004a14:	2b01      	cmp	r3, #1
 8004a16:	d052      	beq.n	8004abe <HAL_TIM_PWM_ConfigChannel+0xb2>
 8004a18:	2301      	movs	r3, #1
 8004a1a:	2a08      	cmp	r2, #8
 8004a1c:	f880 303c 	strb.w	r3, [r0, #60]	; 0x3c
 8004a20:	d03c      	beq.n	8004a9c <HAL_TIM_PWM_ConfigChannel+0x90>
 8004a22:	d806      	bhi.n	8004a32 <HAL_TIM_PWM_ConfigChannel+0x26>
 8004a24:	b1c2      	cbz	r2, 8004a58 <HAL_TIM_PWM_ConfigChannel+0x4c>
 8004a26:	2a04      	cmp	r2, #4
 8004a28:	d027      	beq.n	8004a7a <HAL_TIM_PWM_ConfigChannel+0x6e>
 8004a2a:	2000      	movs	r0, #0
 8004a2c:	f884 003c 	strb.w	r0, [r4, #60]	; 0x3c
 8004a30:	bd38      	pop	{r3, r4, r5, pc}
 8004a32:	2a0c      	cmp	r2, #12
 8004a34:	d1f9      	bne.n	8004a2a <HAL_TIM_PWM_ConfigChannel+0x1e>
 8004a36:	6800      	ldr	r0, [r0, #0]
 8004a38:	f7ff fed0 	bl	80047dc <TIM_OC4_SetConfig>
 8004a3c:	6823      	ldr	r3, [r4, #0]
 8004a3e:	6909      	ldr	r1, [r1, #16]
 8004a40:	69da      	ldr	r2, [r3, #28]
 8004a42:	f442 6200 	orr.w	r2, r2, #2048	; 0x800
 8004a46:	61da      	str	r2, [r3, #28]
 8004a48:	69da      	ldr	r2, [r3, #28]
 8004a4a:	f422 6280 	bic.w	r2, r2, #1024	; 0x400
 8004a4e:	61da      	str	r2, [r3, #28]
 8004a50:	69da      	ldr	r2, [r3, #28]
 8004a52:	ea42 2201 	orr.w	r2, r2, r1, lsl #8
 8004a56:	e030      	b.n	8004aba <HAL_TIM_PWM_ConfigChannel+0xae>
 8004a58:	6800      	ldr	r0, [r0, #0]
 8004a5a:	f7ff fe6d 	bl	8004738 <TIM_OC1_SetConfig>
 8004a5e:	6823      	ldr	r3, [r4, #0]
 8004a60:	6909      	ldr	r1, [r1, #16]
 8004a62:	699a      	ldr	r2, [r3, #24]
 8004a64:	f042 0208 	orr.w	r2, r2, #8
 8004a68:	619a      	str	r2, [r3, #24]
 8004a6a:	699a      	ldr	r2, [r3, #24]
 8004a6c:	f022 0204 	bic.w	r2, r2, #4
 8004a70:	619a      	str	r2, [r3, #24]
 8004a72:	699a      	ldr	r2, [r3, #24]
 8004a74:	430a      	orrs	r2, r1
 8004a76:	619a      	str	r2, [r3, #24]
 8004a78:	e7d7      	b.n	8004a2a <HAL_TIM_PWM_ConfigChannel+0x1e>
 8004a7a:	6800      	ldr	r0, [r0, #0]
 8004a7c:	f7ff ff9a 	bl	80049b4 <TIM_OC2_SetConfig>
 8004a80:	6823      	ldr	r3, [r4, #0]
 8004a82:	6909      	ldr	r1, [r1, #16]
 8004a84:	699a      	ldr	r2, [r3, #24]
 8004a86:	f442 6200 	orr.w	r2, r2, #2048	; 0x800
 8004a8a:	619a      	str	r2, [r3, #24]
 8004a8c:	699a      	ldr	r2, [r3, #24]
 8004a8e:	f422 6280 	bic.w	r2, r2, #1024	; 0x400
 8004a92:	619a      	str	r2, [r3, #24]
 8004a94:	699a      	ldr	r2, [r3, #24]
 8004a96:	ea42 2201 	orr.w	r2, r2, r1, lsl #8
 8004a9a:	e7ec      	b.n	8004a76 <HAL_TIM_PWM_ConfigChannel+0x6a>
 8004a9c:	6800      	ldr	r0, [r0, #0]
 8004a9e:	f7ff fe73 	bl	8004788 <TIM_OC3_SetConfig>
 8004aa2:	6823      	ldr	r3, [r4, #0]
 8004aa4:	6909      	ldr	r1, [r1, #16]
 8004aa6:	69da      	ldr	r2, [r3, #28]
 8004aa8:	f042 0208 	orr.w	r2, r2, #8
 8004aac:	61da      	str	r2, [r3, #28]
 8004aae:	69da      	ldr	r2, [r3, #28]
 8004ab0:	f022 0204 	bic.w	r2, r2, #4
 8004ab4:	61da      	str	r2, [r3, #28]
 8004ab6:	69da      	ldr	r2, [r3, #28]
 8004ab8:	430a      	orrs	r2, r1
 8004aba:	61da      	str	r2, [r3, #28]
 8004abc:	e7b5      	b.n	8004a2a <HAL_TIM_PWM_ConfigChannel+0x1e>
 8004abe:	2002      	movs	r0, #2
 8004ac0:	e7b6      	b.n	8004a30 <HAL_TIM_PWM_ConfigChannel+0x24>

08004ac2 <TIM_ETR_SetConfig>:
 8004ac2:	b510      	push	{r4, lr}
 8004ac4:	6884      	ldr	r4, [r0, #8]
 8004ac6:	430a      	orrs	r2, r1
 8004ac8:	f424 447f 	bic.w	r4, r4, #65280	; 0xff00
 8004acc:	ea42 2203 	orr.w	r2, r2, r3, lsl #8
 8004ad0:	4322      	orrs	r2, r4
 8004ad2:	6082      	str	r2, [r0, #8]
 8004ad4:	bd10      	pop	{r4, pc}

08004ad6 <HAL_TIM_ConfigClockSource>:
 8004ad6:	b570      	push	{r4, r5, r6, lr}
 8004ad8:	f890 303c 	ldrb.w	r3, [r0, #60]	; 0x3c
 8004adc:	4604      	mov	r4, r0
 8004ade:	2b01      	cmp	r3, #1
 8004ae0:	f04f 0002 	mov.w	r0, #2
 8004ae4:	d027      	beq.n	8004b36 <HAL_TIM_ConfigClockSource+0x60>
 8004ae6:	2301      	movs	r3, #1
 8004ae8:	f884 003d 	strb.w	r0, [r4, #61]	; 0x3d
 8004aec:	6820      	ldr	r0, [r4, #0]
 8004aee:	f884 303c 	strb.w	r3, [r4, #60]	; 0x3c
 8004af2:	6883      	ldr	r3, [r0, #8]
 8004af4:	f423 437f 	bic.w	r3, r3, #65280	; 0xff00
 8004af8:	f023 0377 	bic.w	r3, r3, #119	; 0x77
 8004afc:	6083      	str	r3, [r0, #8]
 8004afe:	680b      	ldr	r3, [r1, #0]
 8004b00:	2b60      	cmp	r3, #96	; 0x60
 8004b02:	d04d      	beq.n	8004ba0 <HAL_TIM_ConfigClockSource+0xca>
 8004b04:	d832      	bhi.n	8004b6c <HAL_TIM_ConfigClockSource+0x96>
 8004b06:	2b40      	cmp	r3, #64	; 0x40
 8004b08:	d062      	beq.n	8004bd0 <HAL_TIM_ConfigClockSource+0xfa>
 8004b0a:	d815      	bhi.n	8004b38 <HAL_TIM_ConfigClockSource+0x62>
 8004b0c:	2b20      	cmp	r3, #32
 8004b0e:	d003      	beq.n	8004b18 <HAL_TIM_ConfigClockSource+0x42>
 8004b10:	d809      	bhi.n	8004b26 <HAL_TIM_ConfigClockSource+0x50>
 8004b12:	f033 0210 	bics.w	r2, r3, #16
 8004b16:	d108      	bne.n	8004b2a <HAL_TIM_ConfigClockSource+0x54>
 8004b18:	6882      	ldr	r2, [r0, #8]
 8004b1a:	f022 0270 	bic.w	r2, r2, #112	; 0x70
 8004b1e:	4313      	orrs	r3, r2
 8004b20:	f043 0307 	orr.w	r3, r3, #7
 8004b24:	e020      	b.n	8004b68 <HAL_TIM_ConfigClockSource+0x92>
 8004b26:	2b30      	cmp	r3, #48	; 0x30
 8004b28:	d0f6      	beq.n	8004b18 <HAL_TIM_ConfigClockSource+0x42>
 8004b2a:	2301      	movs	r3, #1
 8004b2c:	2000      	movs	r0, #0
 8004b2e:	f884 303d 	strb.w	r3, [r4, #61]	; 0x3d
 8004b32:	f884 003c 	strb.w	r0, [r4, #60]	; 0x3c
 8004b36:	bd70      	pop	{r4, r5, r6, pc}
 8004b38:	2b50      	cmp	r3, #80	; 0x50
 8004b3a:	d1f6      	bne.n	8004b2a <HAL_TIM_ConfigClockSource+0x54>
 8004b3c:	684a      	ldr	r2, [r1, #4]
 8004b3e:	68ce      	ldr	r6, [r1, #12]
 8004b40:	6a01      	ldr	r1, [r0, #32]
 8004b42:	6a05      	ldr	r5, [r0, #32]
 8004b44:	f021 010a 	bic.w	r1, r1, #10
 8004b48:	f025 0501 	bic.w	r5, r5, #1
 8004b4c:	6205      	str	r5, [r0, #32]
 8004b4e:	6983      	ldr	r3, [r0, #24]
 8004b50:	430a      	orrs	r2, r1
 8004b52:	f023 03f0 	bic.w	r3, r3, #240	; 0xf0
 8004b56:	ea43 1306 	orr.w	r3, r3, r6, lsl #4
 8004b5a:	6183      	str	r3, [r0, #24]
 8004b5c:	6202      	str	r2, [r0, #32]
 8004b5e:	6883      	ldr	r3, [r0, #8]
 8004b60:	f023 0370 	bic.w	r3, r3, #112	; 0x70
 8004b64:	f043 0357 	orr.w	r3, r3, #87	; 0x57
 8004b68:	6083      	str	r3, [r0, #8]
 8004b6a:	e7de      	b.n	8004b2a <HAL_TIM_ConfigClockSource+0x54>
 8004b6c:	2b70      	cmp	r3, #112	; 0x70
 8004b6e:	d00c      	beq.n	8004b8a <HAL_TIM_ConfigClockSource+0xb4>
 8004b70:	f5b3 5f00 	cmp.w	r3, #8192	; 0x2000
 8004b74:	d1d9      	bne.n	8004b2a <HAL_TIM_ConfigClockSource+0x54>
 8004b76:	68cb      	ldr	r3, [r1, #12]
 8004b78:	e9d1 2101 	ldrd	r2, r1, [r1, #4]
 8004b7c:	f7ff ffa1 	bl	8004ac2 <TIM_ETR_SetConfig>
 8004b80:	6822      	ldr	r2, [r4, #0]
 8004b82:	6893      	ldr	r3, [r2, #8]
 8004b84:	f443 4380 	orr.w	r3, r3, #16384	; 0x4000
 8004b88:	e008      	b.n	8004b9c <HAL_TIM_ConfigClockSource+0xc6>
 8004b8a:	68cb      	ldr	r3, [r1, #12]
 8004b8c:	e9d1 2101 	ldrd	r2, r1, [r1, #4]
 8004b90:	f7ff ff97 	bl	8004ac2 <TIM_ETR_SetConfig>
 8004b94:	6822      	ldr	r2, [r4, #0]
 8004b96:	6893      	ldr	r3, [r2, #8]
 8004b98:	f043 0377 	orr.w	r3, r3, #119	; 0x77
 8004b9c:	6093      	str	r3, [r2, #8]
 8004b9e:	e7c4      	b.n	8004b2a <HAL_TIM_ConfigClockSource+0x54>
 8004ba0:	684d      	ldr	r5, [r1, #4]
 8004ba2:	68ce      	ldr	r6, [r1, #12]
 8004ba4:	6a01      	ldr	r1, [r0, #32]
 8004ba6:	f021 0110 	bic.w	r1, r1, #16
 8004baa:	6201      	str	r1, [r0, #32]
 8004bac:	6982      	ldr	r2, [r0, #24]
 8004bae:	6a03      	ldr	r3, [r0, #32]
 8004bb0:	f422 4270 	bic.w	r2, r2, #61440	; 0xf000
 8004bb4:	f023 03a0 	bic.w	r3, r3, #160	; 0xa0
 8004bb8:	ea43 1305 	orr.w	r3, r3, r5, lsl #4
 8004bbc:	ea42 3206 	orr.w	r2, r2, r6, lsl #12
 8004bc0:	6182      	str	r2, [r0, #24]
 8004bc2:	6203      	str	r3, [r0, #32]
 8004bc4:	6883      	ldr	r3, [r0, #8]
 8004bc6:	f023 0370 	bic.w	r3, r3, #112	; 0x70
 8004bca:	f043 0367 	orr.w	r3, r3, #103	; 0x67
 8004bce:	e7cb      	b.n	8004b68 <HAL_TIM_ConfigClockSource+0x92>
 8004bd0:	684a      	ldr	r2, [r1, #4]
 8004bd2:	68ce      	ldr	r6, [r1, #12]
 8004bd4:	6a01      	ldr	r1, [r0, #32]
 8004bd6:	6a05      	ldr	r5, [r0, #32]
 8004bd8:	f021 010a 	bic.w	r1, r1, #10
 8004bdc:	f025 0501 	bic.w	r5, r5, #1
 8004be0:	6205      	str	r5, [r0, #32]
 8004be2:	6983      	ldr	r3, [r0, #24]
 8004be4:	430a      	orrs	r2, r1
 8004be6:	f023 03f0 	bic.w	r3, r3, #240	; 0xf0
 8004bea:	ea43 1306 	orr.w	r3, r3, r6, lsl #4
 8004bee:	6183      	str	r3, [r0, #24]
 8004bf0:	6202      	str	r2, [r0, #32]
 8004bf2:	6883      	ldr	r3, [r0, #8]
 8004bf4:	f023 0370 	bic.w	r3, r3, #112	; 0x70
 8004bf8:	f043 0347 	orr.w	r3, r3, #71	; 0x47
 8004bfc:	e7b4      	b.n	8004b68 <HAL_TIM_ConfigClockSource+0x92>

08004bfe <TIM_CCxChannelCmd>:
 8004bfe:	b510      	push	{r4, lr}
 8004c00:	2401      	movs	r4, #1
 8004c02:	6a03      	ldr	r3, [r0, #32]
 8004c04:	f001 011f 	and.w	r1, r1, #31
 8004c08:	408c      	lsls	r4, r1
 8004c0a:	ea23 0304 	bic.w	r3, r3, r4
 8004c0e:	6203      	str	r3, [r0, #32]
 8004c10:	6a03      	ldr	r3, [r0, #32]
 8004c12:	408a      	lsls	r2, r1
 8004c14:	431a      	orrs	r2, r3
 8004c16:	6202      	str	r2, [r0, #32]
 8004c18:	bd10      	pop	{r4, pc}
	...

08004c1c <HAL_TIM_OC_Start>:
 8004c1c:	b510      	push	{r4, lr}
 8004c1e:	4604      	mov	r4, r0
 8004c20:	b929      	cbnz	r1, 8004c2e <HAL_TIM_OC_Start+0x12>
 8004c22:	f890 303e 	ldrb.w	r3, [r0, #62]	; 0x3e
 8004c26:	2b01      	cmp	r3, #1
 8004c28:	d01d      	beq.n	8004c66 <HAL_TIM_OC_Start+0x4a>
 8004c2a:	2001      	movs	r0, #1
 8004c2c:	bd10      	pop	{r4, pc}
 8004c2e:	2904      	cmp	r1, #4
 8004c30:	d107      	bne.n	8004c42 <HAL_TIM_OC_Start+0x26>
 8004c32:	f890 303f 	ldrb.w	r3, [r0, #63]	; 0x3f
 8004c36:	2b01      	cmp	r3, #1
 8004c38:	d1f7      	bne.n	8004c2a <HAL_TIM_OC_Start+0xe>
 8004c3a:	2302      	movs	r3, #2
 8004c3c:	f880 303f 	strb.w	r3, [r0, #63]	; 0x3f
 8004c40:	e014      	b.n	8004c6c <HAL_TIM_OC_Start+0x50>
 8004c42:	2908      	cmp	r1, #8
 8004c44:	d107      	bne.n	8004c56 <HAL_TIM_OC_Start+0x3a>
 8004c46:	f890 3040 	ldrb.w	r3, [r0, #64]	; 0x40
 8004c4a:	2b01      	cmp	r3, #1
 8004c4c:	d1ed      	bne.n	8004c2a <HAL_TIM_OC_Start+0xe>
 8004c4e:	2302      	movs	r3, #2
 8004c50:	f880 3040 	strb.w	r3, [r0, #64]	; 0x40
 8004c54:	e00a      	b.n	8004c6c <HAL_TIM_OC_Start+0x50>
 8004c56:	f890 3041 	ldrb.w	r3, [r0, #65]	; 0x41
 8004c5a:	2b01      	cmp	r3, #1
 8004c5c:	d1e5      	bne.n	8004c2a <HAL_TIM_OC_Start+0xe>
 8004c5e:	2302      	movs	r3, #2
 8004c60:	f880 3041 	strb.w	r3, [r0, #65]	; 0x41
 8004c64:	e002      	b.n	8004c6c <HAL_TIM_OC_Start+0x50>
 8004c66:	2302      	movs	r3, #2
 8004c68:	f880 303e 	strb.w	r3, [r0, #62]	; 0x3e
 8004c6c:	2201      	movs	r2, #1
 8004c6e:	6820      	ldr	r0, [r4, #0]
 8004c70:	f7ff ffc5 	bl	8004bfe <TIM_CCxChannelCmd>
 8004c74:	6823      	ldr	r3, [r4, #0]
 8004c76:	4a0e      	ldr	r2, [pc, #56]	; (8004cb0 <HAL_TIM_OC_Start+0x94>)
 8004c78:	4293      	cmp	r3, r2
 8004c7a:	d10a      	bne.n	8004c92 <HAL_TIM_OC_Start+0x76>
 8004c7c:	6c5a      	ldr	r2, [r3, #68]	; 0x44
 8004c7e:	f442 4200 	orr.w	r2, r2, #32768	; 0x8000
 8004c82:	645a      	str	r2, [r3, #68]	; 0x44
 8004c84:	689a      	ldr	r2, [r3, #8]
 8004c86:	f002 0207 	and.w	r2, r2, #7
 8004c8a:	2a06      	cmp	r2, #6
 8004c8c:	d10b      	bne.n	8004ca6 <HAL_TIM_OC_Start+0x8a>
 8004c8e:	2000      	movs	r0, #0
 8004c90:	e7cc      	b.n	8004c2c <HAL_TIM_OC_Start+0x10>
 8004c92:	f1b3 4f80 	cmp.w	r3, #1073741824	; 0x40000000
 8004c96:	d0f5      	beq.n	8004c84 <HAL_TIM_OC_Start+0x68>
 8004c98:	4a06      	ldr	r2, [pc, #24]	; (8004cb4 <HAL_TIM_OC_Start+0x98>)
 8004c9a:	4293      	cmp	r3, r2
 8004c9c:	d0f2      	beq.n	8004c84 <HAL_TIM_OC_Start+0x68>
 8004c9e:	f502 6280 	add.w	r2, r2, #1024	; 0x400
 8004ca2:	4293      	cmp	r3, r2
 8004ca4:	d0ee      	beq.n	8004c84 <HAL_TIM_OC_Start+0x68>
 8004ca6:	681a      	ldr	r2, [r3, #0]
 8004ca8:	f042 0201 	orr.w	r2, r2, #1
 8004cac:	601a      	str	r2, [r3, #0]
 8004cae:	e7ee      	b.n	8004c8e <HAL_TIM_OC_Start+0x72>
 8004cb0:	40012c00 	.word	0x40012c00
 8004cb4:	40000400 	.word	0x40000400

08004cb8 <HAL_TIM_PWM_Start>:
 8004cb8:	f7ff bfb0 	b.w	8004c1c <HAL_TIM_OC_Start>

08004cbc <HAL_TIM_OC_Stop>:
 8004cbc:	b538      	push	{r3, r4, r5, lr}
 8004cbe:	4604      	mov	r4, r0
 8004cc0:	2200      	movs	r2, #0
 8004cc2:	6800      	ldr	r0, [r0, #0]
 8004cc4:	460d      	mov	r5, r1
 8004cc6:	f7ff ff9a 	bl	8004bfe <TIM_CCxChannelCmd>
 8004cca:	6823      	ldr	r3, [r4, #0]
 8004ccc:	4a18      	ldr	r2, [pc, #96]	; (8004d30 <HAL_TIM_OC_Stop+0x74>)
 8004cce:	4293      	cmp	r3, r2
 8004cd0:	d10d      	bne.n	8004cee <HAL_TIM_OC_Stop+0x32>
 8004cd2:	f241 1211 	movw	r2, #4369	; 0x1111
 8004cd6:	6a19      	ldr	r1, [r3, #32]
 8004cd8:	4211      	tst	r1, r2
 8004cda:	d108      	bne.n	8004cee <HAL_TIM_OC_Stop+0x32>
 8004cdc:	f240 4244 	movw	r2, #1092	; 0x444
 8004ce0:	6a19      	ldr	r1, [r3, #32]
 8004ce2:	4211      	tst	r1, r2
 8004ce4:	bf02      	ittt	eq
 8004ce6:	6c5a      	ldreq	r2, [r3, #68]	; 0x44
 8004ce8:	f422 4200 	biceq.w	r2, r2, #32768	; 0x8000
 8004cec:	645a      	streq	r2, [r3, #68]	; 0x44
 8004cee:	f241 1211 	movw	r2, #4369	; 0x1111
 8004cf2:	6a19      	ldr	r1, [r3, #32]
 8004cf4:	4211      	tst	r1, r2
 8004cf6:	d108      	bne.n	8004d0a <HAL_TIM_OC_Stop+0x4e>
 8004cf8:	f240 4244 	movw	r2, #1092	; 0x444
 8004cfc:	6a19      	ldr	r1, [r3, #32]
 8004cfe:	4211      	tst	r1, r2
 8004d00:	bf02      	ittt	eq
 8004d02:	681a      	ldreq	r2, [r3, #0]
 8004d04:	f022 0201 	biceq.w	r2, r2, #1
 8004d08:	601a      	streq	r2, [r3, #0]
 8004d0a:	2301      	movs	r3, #1
 8004d0c:	b91d      	cbnz	r5, 8004d16 <HAL_TIM_OC_Stop+0x5a>
 8004d0e:	f884 303e 	strb.w	r3, [r4, #62]	; 0x3e
 8004d12:	2000      	movs	r0, #0
 8004d14:	bd38      	pop	{r3, r4, r5, pc}
 8004d16:	2d04      	cmp	r5, #4
 8004d18:	d102      	bne.n	8004d20 <HAL_TIM_OC_Stop+0x64>
 8004d1a:	f884 303f 	strb.w	r3, [r4, #63]	; 0x3f
 8004d1e:	e7f8      	b.n	8004d12 <HAL_TIM_OC_Stop+0x56>
 8004d20:	2d08      	cmp	r5, #8
 8004d22:	bf0c      	ite	eq
 8004d24:	f884 3040 	strbeq.w	r3, [r4, #64]	; 0x40
 8004d28:	f884 3041 	strbne.w	r3, [r4, #65]	; 0x41
 8004d2c:	e7f1      	b.n	8004d12 <HAL_TIM_OC_Stop+0x56>
 8004d2e:	bf00      	nop
 8004d30:	40012c00 	.word	0x40012c00

08004d34 <HAL_TIM_PWM_Stop>:
 8004d34:	f7ff bfc2 	b.w	8004cbc <HAL_TIM_OC_Stop>

08004d38 <TIM_CCxNChannelCmd>:
 8004d38:	b510      	push	{r4, lr}
 8004d3a:	2404      	movs	r4, #4
 8004d3c:	6a03      	ldr	r3, [r0, #32]
 8004d3e:	f001 011f 	and.w	r1, r1, #31
 8004d42:	408c      	lsls	r4, r1
 8004d44:	ea23 0304 	bic.w	r3, r3, r4
 8004d48:	6203      	str	r3, [r0, #32]
 8004d4a:	6a03      	ldr	r3, [r0, #32]
 8004d4c:	408a      	lsls	r2, r1
 8004d4e:	431a      	orrs	r2, r3
 8004d50:	6202      	str	r2, [r0, #32]
 8004d52:	bd10      	pop	{r4, pc}

08004d54 <HAL_TIMEx_OCN_Start>:
 8004d54:	b510      	push	{r4, lr}
 8004d56:	4604      	mov	r4, r0
 8004d58:	b929      	cbnz	r1, 8004d66 <HAL_TIMEx_OCN_Start+0x12>
 8004d5a:	f890 3042 	ldrb.w	r3, [r0, #66]	; 0x42
 8004d5e:	2b01      	cmp	r3, #1
 8004d60:	d01d      	beq.n	8004d9e <HAL_TIMEx_OCN_Start+0x4a>
 8004d62:	2001      	movs	r0, #1
 8004d64:	bd10      	pop	{r4, pc}
 8004d66:	2904      	cmp	r1, #4
 8004d68:	d107      	bne.n	8004d7a <HAL_TIMEx_OCN_Start+0x26>
 8004d6a:	f890 3043 	ldrb.w	r3, [r0, #67]	; 0x43
 8004d6e:	2b01      	cmp	r3, #1
 8004d70:	d1f7      	bne.n	8004d62 <HAL_TIMEx_OCN_Start+0xe>
 8004d72:	2302      	movs	r3, #2
 8004d74:	f880 3043 	strb.w	r3, [r0, #67]	; 0x43
 8004d78:	e014      	b.n	8004da4 <HAL_TIMEx_OCN_Start+0x50>
 8004d7a:	2908      	cmp	r1, #8
 8004d7c:	d107      	bne.n	8004d8e <HAL_TIMEx_OCN_Start+0x3a>
 8004d7e:	f890 3044 	ldrb.w	r3, [r0, #68]	; 0x44
 8004d82:	2b01      	cmp	r3, #1
 8004d84:	d1ed      	bne.n	8004d62 <HAL_TIMEx_OCN_Start+0xe>
 8004d86:	2302      	movs	r3, #2
 8004d88:	f880 3044 	strb.w	r3, [r0, #68]	; 0x44
 8004d8c:	e00a      	b.n	8004da4 <HAL_TIMEx_OCN_Start+0x50>
 8004d8e:	f890 3045 	ldrb.w	r3, [r0, #69]	; 0x45
 8004d92:	2b01      	cmp	r3, #1
 8004d94:	d1e5      	bne.n	8004d62 <HAL_TIMEx_OCN_Start+0xe>
 8004d96:	2302      	movs	r3, #2
 8004d98:	f880 3045 	strb.w	r3, [r0, #69]	; 0x45
 8004d9c:	e002      	b.n	8004da4 <HAL_TIMEx_OCN_Start+0x50>
 8004d9e:	2302      	movs	r3, #2
 8004da0:	f880 3042 	strb.w	r3, [r0, #66]	; 0x42
 8004da4:	2204      	movs	r2, #4
 8004da6:	6820      	ldr	r0, [r4, #0]
 8004da8:	f7ff ffc6 	bl	8004d38 <TIM_CCxNChannelCmd>
 8004dac:	6823      	ldr	r3, [r4, #0]
 8004dae:	6c5a      	ldr	r2, [r3, #68]	; 0x44
 8004db0:	f442 4200 	orr.w	r2, r2, #32768	; 0x8000
 8004db4:	645a      	str	r2, [r3, #68]	; 0x44
 8004db6:	4a0c      	ldr	r2, [pc, #48]	; (8004de8 <HAL_TIMEx_OCN_Start+0x94>)
 8004db8:	4293      	cmp	r3, r2
 8004dba:	d00a      	beq.n	8004dd2 <HAL_TIMEx_OCN_Start+0x7e>
 8004dbc:	f1b3 4f80 	cmp.w	r3, #1073741824	; 0x40000000
 8004dc0:	d007      	beq.n	8004dd2 <HAL_TIMEx_OCN_Start+0x7e>
 8004dc2:	f5a2 3294 	sub.w	r2, r2, #75776	; 0x12800
 8004dc6:	4293      	cmp	r3, r2
 8004dc8:	d003      	beq.n	8004dd2 <HAL_TIMEx_OCN_Start+0x7e>
 8004dca:	f502 6280 	add.w	r2, r2, #1024	; 0x400
 8004dce:	4293      	cmp	r3, r2
 8004dd0:	d104      	bne.n	8004ddc <HAL_TIMEx_OCN_Start+0x88>
 8004dd2:	689a      	ldr	r2, [r3, #8]
 8004dd4:	f002 0207 	and.w	r2, r2, #7
 8004dd8:	2a06      	cmp	r2, #6
 8004dda:	d003      	beq.n	8004de4 <HAL_TIMEx_OCN_Start+0x90>
 8004ddc:	681a      	ldr	r2, [r3, #0]
 8004dde:	f042 0201 	orr.w	r2, r2, #1
 8004de2:	601a      	str	r2, [r3, #0]
 8004de4:	2000      	movs	r0, #0
 8004de6:	e7bd      	b.n	8004d64 <HAL_TIMEx_OCN_Start+0x10>
 8004de8:	40012c00 	.word	0x40012c00

08004dec <HAL_TIMEx_OCN_Stop>:
 8004dec:	b538      	push	{r3, r4, r5, lr}
 8004dee:	4604      	mov	r4, r0
 8004df0:	2200      	movs	r2, #0
 8004df2:	6800      	ldr	r0, [r0, #0]
 8004df4:	460d      	mov	r5, r1
 8004df6:	f7ff ff9f 	bl	8004d38 <TIM_CCxNChannelCmd>
 8004dfa:	f241 1211 	movw	r2, #4369	; 0x1111
 8004dfe:	6823      	ldr	r3, [r4, #0]
 8004e00:	6a19      	ldr	r1, [r3, #32]
 8004e02:	4211      	tst	r1, r2
 8004e04:	d108      	bne.n	8004e18 <HAL_TIMEx_OCN_Stop+0x2c>
 8004e06:	f240 4244 	movw	r2, #1092	; 0x444
 8004e0a:	6a19      	ldr	r1, [r3, #32]
 8004e0c:	4211      	tst	r1, r2
 8004e0e:	bf02      	ittt	eq
 8004e10:	6c5a      	ldreq	r2, [r3, #68]	; 0x44
 8004e12:	f422 4200 	biceq.w	r2, r2, #32768	; 0x8000
 8004e16:	645a      	streq	r2, [r3, #68]	; 0x44
 8004e18:	f241 1211 	movw	r2, #4369	; 0x1111
 8004e1c:	6a19      	ldr	r1, [r3, #32]
 8004e1e:	4211      	tst	r1, r2
 8004e20:	d108      	bne.n	8004e34 <HAL_TIMEx_OCN_Stop+0x48>
 8004e22:	f240 4244 	movw	r2, #1092	; 0x444
 8004e26:	6a19      	ldr	r1, [r3, #32]
 8004e28:	4211      	tst	r1, r2
 8004e2a:	bf02      	ittt	eq
 8004e2c:	681a      	ldreq	r2, [r3, #0]
 8004e2e:	f022 0201 	biceq.w	r2, r2, #1
 8004e32:	601a      	streq	r2, [r3, #0]
 8004e34:	2301      	movs	r3, #1
 8004e36:	b91d      	cbnz	r5, 8004e40 <HAL_TIMEx_OCN_Stop+0x54>
 8004e38:	f884 3042 	strb.w	r3, [r4, #66]	; 0x42
 8004e3c:	2000      	movs	r0, #0
 8004e3e:	bd38      	pop	{r3, r4, r5, pc}
 8004e40:	2d04      	cmp	r5, #4
 8004e42:	d102      	bne.n	8004e4a <HAL_TIMEx_OCN_Stop+0x5e>
 8004e44:	f884 3043 	strb.w	r3, [r4, #67]	; 0x43
 8004e48:	e7f8      	b.n	8004e3c <HAL_TIMEx_OCN_Stop+0x50>
 8004e4a:	2d08      	cmp	r5, #8
 8004e4c:	bf0c      	ite	eq
 8004e4e:	f884 3044 	strbeq.w	r3, [r4, #68]	; 0x44
 8004e52:	f884 3045 	strbne.w	r3, [r4, #69]	; 0x45
 8004e56:	e7f1      	b.n	8004e3c <HAL_TIMEx_OCN_Stop+0x50>

08004e58 <HAL_TIMEx_PWMN_Start>:
 8004e58:	f7ff bf7c 	b.w	8004d54 <HAL_TIMEx_OCN_Start>

08004e5c <HAL_TIMEx_PWMN_Stop>:
 8004e5c:	f7ff bfc6 	b.w	8004dec <HAL_TIMEx_OCN_Stop>

08004e60 <HAL_TIMEx_MasterConfigSynchronization>:
 8004e60:	b530      	push	{r4, r5, lr}
 8004e62:	f890 303c 	ldrb.w	r3, [r0, #60]	; 0x3c
 8004e66:	4602      	mov	r2, r0
 8004e68:	2b01      	cmp	r3, #1
 8004e6a:	f04f 0002 	mov.w	r0, #2
 8004e6e:	d022      	beq.n	8004eb6 <HAL_TIMEx_MasterConfigSynchronization+0x56>
 8004e70:	6813      	ldr	r3, [r2, #0]
 8004e72:	f882 003d 	strb.w	r0, [r2, #61]	; 0x3d
 8004e76:	685c      	ldr	r4, [r3, #4]
 8004e78:	680d      	ldr	r5, [r1, #0]
 8004e7a:	f024 0470 	bic.w	r4, r4, #112	; 0x70
 8004e7e:	432c      	orrs	r4, r5
 8004e80:	6898      	ldr	r0, [r3, #8]
 8004e82:	605c      	str	r4, [r3, #4]
 8004e84:	4c0c      	ldr	r4, [pc, #48]	; (8004eb8 <HAL_TIMEx_MasterConfigSynchronization+0x58>)
 8004e86:	42a3      	cmp	r3, r4
 8004e88:	d00a      	beq.n	8004ea0 <HAL_TIMEx_MasterConfigSynchronization+0x40>
 8004e8a:	f1b3 4f80 	cmp.w	r3, #1073741824	; 0x40000000
 8004e8e:	d007      	beq.n	8004ea0 <HAL_TIMEx_MasterConfigSynchronization+0x40>
 8004e90:	f5a4 3494 	sub.w	r4, r4, #75776	; 0x12800
 8004e94:	42a3      	cmp	r3, r4
 8004e96:	d003      	beq.n	8004ea0 <HAL_TIMEx_MasterConfigSynchronization+0x40>
 8004e98:	f504 6480 	add.w	r4, r4, #1024	; 0x400
 8004e9c:	42a3      	cmp	r3, r4
 8004e9e:	d104      	bne.n	8004eaa <HAL_TIMEx_MasterConfigSynchronization+0x4a>
 8004ea0:	6849      	ldr	r1, [r1, #4]
 8004ea2:	f020 0080 	bic.w	r0, r0, #128	; 0x80
 8004ea6:	4301      	orrs	r1, r0
 8004ea8:	6099      	str	r1, [r3, #8]
 8004eaa:	2301      	movs	r3, #1
 8004eac:	2000      	movs	r0, #0
 8004eae:	f882 303d 	strb.w	r3, [r2, #61]	; 0x3d
 8004eb2:	f882 003c 	strb.w	r0, [r2, #60]	; 0x3c
 8004eb6:	bd30      	pop	{r4, r5, pc}
 8004eb8:	40012c00 	.word	0x40012c00

08004ebc <HAL_TIMEx_ConfigBreakDeadTime>:
 8004ebc:	f890 303c 	ldrb.w	r3, [r0, #60]	; 0x3c
 8004ec0:	2b01      	cmp	r3, #1
 8004ec2:	d01f      	beq.n	8004f04 <HAL_TIMEx_ConfigBreakDeadTime+0x48>
 8004ec4:	68cb      	ldr	r3, [r1, #12]
 8004ec6:	688a      	ldr	r2, [r1, #8]
 8004ec8:	f423 7340 	bic.w	r3, r3, #768	; 0x300
 8004ecc:	4313      	orrs	r3, r2
 8004ece:	684a      	ldr	r2, [r1, #4]
 8004ed0:	f423 6380 	bic.w	r3, r3, #1024	; 0x400
 8004ed4:	4313      	orrs	r3, r2
 8004ed6:	680a      	ldr	r2, [r1, #0]
 8004ed8:	f423 6300 	bic.w	r3, r3, #2048	; 0x800
 8004edc:	4313      	orrs	r3, r2
 8004ede:	690a      	ldr	r2, [r1, #16]
 8004ee0:	f423 5380 	bic.w	r3, r3, #4096	; 0x1000
 8004ee4:	4313      	orrs	r3, r2
 8004ee6:	694a      	ldr	r2, [r1, #20]
 8004ee8:	f423 5300 	bic.w	r3, r3, #8192	; 0x2000
 8004eec:	4313      	orrs	r3, r2
 8004eee:	69ca      	ldr	r2, [r1, #28]
 8004ef0:	f423 4380 	bic.w	r3, r3, #16384	; 0x4000
 8004ef4:	4313      	orrs	r3, r2
 8004ef6:	6802      	ldr	r2, [r0, #0]
 8004ef8:	6453      	str	r3, [r2, #68]	; 0x44
 8004efa:	2300      	movs	r3, #0
 8004efc:	f880 303c 	strb.w	r3, [r0, #60]	; 0x3c
 8004f00:	4618      	mov	r0, r3
 8004f02:	4770      	bx	lr
 8004f04:	2002      	movs	r0, #2
 8004f06:	4770      	bx	lr

08004f08 <MX_ADC1_Init>:
 8004f08:	481e      	ldr	r0, [pc, #120]	; (8004f84 <MX_ADC1_Init+0x7c>)
 8004f0a:	4b1f      	ldr	r3, [pc, #124]	; (8004f88 <MX_ADC1_Init+0x80>)
 8004f0c:	b530      	push	{r4, r5, lr}
 8004f0e:	6003      	str	r3, [r0, #0]
 8004f10:	f44f 7380 	mov.w	r3, #256	; 0x100
 8004f14:	6083      	str	r3, [r0, #8]
 8004f16:	f44f 2300 	mov.w	r3, #524288	; 0x80000
 8004f1a:	2400      	movs	r4, #0
 8004f1c:	61c3      	str	r3, [r0, #28]
 8004f1e:	2303      	movs	r3, #3
 8004f20:	b085      	sub	sp, #20
 8004f22:	e9cd 4401 	strd	r4, r4, [sp, #4]
 8004f26:	9403      	str	r4, [sp, #12]
 8004f28:	7304      	strb	r4, [r0, #12]
 8004f2a:	7504      	strb	r4, [r0, #20]
 8004f2c:	6044      	str	r4, [r0, #4]
 8004f2e:	6103      	str	r3, [r0, #16]
 8004f30:	f7fd fae0 	bl	80024f4 <HAL_ADC_Init>
 8004f34:	b108      	cbz	r0, 8004f3a <MX_ADC1_Init+0x32>
 8004f36:	f000 fc83 	bl	8005840 <Error_Handler>
 8004f3a:	2501      	movs	r5, #1
 8004f3c:	9401      	str	r4, [sp, #4]
 8004f3e:	2402      	movs	r4, #2
 8004f40:	4810      	ldr	r0, [pc, #64]	; (8004f84 <MX_ADC1_Init+0x7c>)
 8004f42:	a901      	add	r1, sp, #4
 8004f44:	e9cd 5402 	strd	r5, r4, [sp, #8]
 8004f48:	f7fd f966 	bl	8002218 <HAL_ADC_ConfigChannel>
 8004f4c:	b108      	cbz	r0, 8004f52 <MX_ADC1_Init+0x4a>
 8004f4e:	f000 fc77 	bl	8005840 <Error_Handler>
 8004f52:	480c      	ldr	r0, [pc, #48]	; (8004f84 <MX_ADC1_Init+0x7c>)
 8004f54:	a901      	add	r1, sp, #4
 8004f56:	e9cd 5401 	strd	r5, r4, [sp, #4]
 8004f5a:	f7fd f95d 	bl	8002218 <HAL_ADC_ConfigChannel>
 8004f5e:	b108      	cbz	r0, 8004f64 <MX_ADC1_Init+0x5c>
 8004f60:	f000 fc6e 	bl	8005840 <Error_Handler>
 8004f64:	2303      	movs	r3, #3
 8004f66:	2210      	movs	r2, #16
 8004f68:	e9cd 2301 	strd	r2, r3, [sp, #4]
 8004f6c:	2307      	movs	r3, #7
 8004f6e:	4805      	ldr	r0, [pc, #20]	; (8004f84 <MX_ADC1_Init+0x7c>)
 8004f70:	a901      	add	r1, sp, #4
 8004f72:	9303      	str	r3, [sp, #12]
 8004f74:	f7fd f950 	bl	8002218 <HAL_ADC_ConfigChannel>
 8004f78:	b108      	cbz	r0, 8004f7e <MX_ADC1_Init+0x76>
 8004f7a:	f000 fc61 	bl	8005840 <Error_Handler>
 8004f7e:	b005      	add	sp, #20
 8004f80:	bd30      	pop	{r4, r5, pc}
 8004f82:	bf00      	nop
 8004f84:	20000384 	.word	0x20000384
 8004f88:	40012400 	.word	0x40012400

08004f8c <HAL_ADC_MspInit>:
 8004f8c:	b530      	push	{r4, r5, lr}
 8004f8e:	4605      	mov	r5, r0
 8004f90:	b087      	sub	sp, #28
 8004f92:	2210      	movs	r2, #16
 8004f94:	2100      	movs	r1, #0
 8004f96:	a802      	add	r0, sp, #8
 8004f98:	f000 feae 	bl	8005cf8 <memset>
 8004f9c:	682a      	ldr	r2, [r5, #0]
 8004f9e:	4b21      	ldr	r3, [pc, #132]	; (8005024 <HAL_ADC_MspInit+0x98>)
 8004fa0:	429a      	cmp	r2, r3
 8004fa2:	d13d      	bne.n	8005020 <HAL_ADC_MspInit+0x94>
 8004fa4:	f503 436c 	add.w	r3, r3, #60416	; 0xec00
 8004fa8:	699a      	ldr	r2, [r3, #24]
 8004faa:	481f      	ldr	r0, [pc, #124]	; (8005028 <HAL_ADC_MspInit+0x9c>)
 8004fac:	f442 7200 	orr.w	r2, r2, #512	; 0x200
 8004fb0:	619a      	str	r2, [r3, #24]
 8004fb2:	699a      	ldr	r2, [r3, #24]
 8004fb4:	a902      	add	r1, sp, #8
 8004fb6:	f402 7200 	and.w	r2, r2, #512	; 0x200
 8004fba:	9200      	str	r2, [sp, #0]
 8004fbc:	9a00      	ldr	r2, [sp, #0]
 8004fbe:	699a      	ldr	r2, [r3, #24]
 8004fc0:	4c1a      	ldr	r4, [pc, #104]	; (800502c <HAL_ADC_MspInit+0xa0>)
 8004fc2:	f042 0204 	orr.w	r2, r2, #4
 8004fc6:	619a      	str	r2, [r3, #24]
 8004fc8:	699b      	ldr	r3, [r3, #24]
 8004fca:	f003 0304 	and.w	r3, r3, #4
 8004fce:	9301      	str	r3, [sp, #4]
 8004fd0:	9b01      	ldr	r3, [sp, #4]
 8004fd2:	2303      	movs	r3, #3
 8004fd4:	e9cd 3302 	strd	r3, r3, [sp, #8]
 8004fd8:	f7fd fd2a 	bl	8002a30 <HAL_GPIO_Init>
 8004fdc:	2300      	movs	r3, #0
 8004fde:	4a14      	ldr	r2, [pc, #80]	; (8005030 <HAL_ADC_MspInit+0xa4>)
 8004fe0:	2180      	movs	r1, #128	; 0x80
 8004fe2:	e9c4 2300 	strd	r2, r3, [r4]
 8004fe6:	60a3      	str	r3, [r4, #8]
 8004fe8:	f44f 7380 	mov.w	r3, #256	; 0x100
 8004fec:	f44f 6080 	mov.w	r0, #1024	; 0x400
 8004ff0:	e9c4 1303 	strd	r1, r3, [r4, #12]
 8004ff4:	2320      	movs	r3, #32
 8004ff6:	e9c4 0305 	strd	r0, r3, [r4, #20]
 8004ffa:	f44f 5300 	mov.w	r3, #8192	; 0x2000
 8004ffe:	4620      	mov	r0, r4
 8005000:	61e3      	str	r3, [r4, #28]
 8005002:	f7fd fbcf 	bl	80027a4 <HAL_DMA_Init>
 8005006:	b108      	cbz	r0, 800500c <HAL_ADC_MspInit+0x80>
 8005008:	f000 fc1a 	bl	8005840 <Error_Handler>
 800500c:	2012      	movs	r0, #18
 800500e:	622c      	str	r4, [r5, #32]
 8005010:	2200      	movs	r2, #0
 8005012:	2101      	movs	r1, #1
 8005014:	6265      	str	r5, [r4, #36]	; 0x24
 8005016:	f7fd fb6f 	bl	80026f8 <HAL_NVIC_SetPriority>
 800501a:	2012      	movs	r0, #18
 800501c:	f7fd fb9e 	bl	800275c <HAL_NVIC_EnableIRQ>
 8005020:	b007      	add	sp, #28
 8005022:	bd30      	pop	{r4, r5, pc}
 8005024:	40012400 	.word	0x40012400
 8005028:	40010800 	.word	0x40010800
 800502c:	200003b4 	.word	0x200003b4
 8005030:	40020008 	.word	0x40020008

08005034 <MX_DMA_Init>:
 8005034:	4b0e      	ldr	r3, [pc, #56]	; (8005070 <MX_DMA_Init+0x3c>)
 8005036:	b507      	push	{r0, r1, r2, lr}
 8005038:	695a      	ldr	r2, [r3, #20]
 800503a:	2101      	movs	r1, #1
 800503c:	f042 0201 	orr.w	r2, r2, #1
 8005040:	615a      	str	r2, [r3, #20]
 8005042:	695b      	ldr	r3, [r3, #20]
 8005044:	2200      	movs	r2, #0
 8005046:	f003 0301 	and.w	r3, r3, #1
 800504a:	9301      	str	r3, [sp, #4]
 800504c:	200b      	movs	r0, #11
 800504e:	9b01      	ldr	r3, [sp, #4]
 8005050:	f7fd fb52 	bl	80026f8 <HAL_NVIC_SetPriority>
 8005054:	200b      	movs	r0, #11
 8005056:	f7fd fb81 	bl	800275c <HAL_NVIC_EnableIRQ>
 800505a:	2200      	movs	r2, #0
 800505c:	2010      	movs	r0, #16
 800505e:	4611      	mov	r1, r2
 8005060:	f7fd fb4a 	bl	80026f8 <HAL_NVIC_SetPriority>
 8005064:	2010      	movs	r0, #16
 8005066:	b003      	add	sp, #12
 8005068:	f85d eb04 	ldr.w	lr, [sp], #4
 800506c:	f7fd bb76 	b.w	800275c <HAL_NVIC_EnableIRQ>
 8005070:	40021000 	.word	0x40021000

08005074 <MX_GPIO_Init>:
 8005074:	2210      	movs	r2, #16
 8005076:	b5f0      	push	{r4, r5, r6, r7, lr}
 8005078:	b089      	sub	sp, #36	; 0x24
 800507a:	eb0d 0002 	add.w	r0, sp, r2
 800507e:	2100      	movs	r1, #0
 8005080:	f000 fe3a 	bl	8005cf8 <memset>
 8005084:	4b25      	ldr	r3, [pc, #148]	; (800511c <MX_GPIO_Init+0xa8>)
 8005086:	4f26      	ldr	r7, [pc, #152]	; (8005120 <MX_GPIO_Init+0xac>)
 8005088:	699a      	ldr	r2, [r3, #24]
 800508a:	4c26      	ldr	r4, [pc, #152]	; (8005124 <MX_GPIO_Init+0xb0>)
 800508c:	f042 0210 	orr.w	r2, r2, #16
 8005090:	619a      	str	r2, [r3, #24]
 8005092:	699a      	ldr	r2, [r3, #24]
 8005094:	4638      	mov	r0, r7
 8005096:	f002 0210 	and.w	r2, r2, #16
 800509a:	9201      	str	r2, [sp, #4]
 800509c:	9a01      	ldr	r2, [sp, #4]
 800509e:	699a      	ldr	r2, [r3, #24]
 80050a0:	f44f 5100 	mov.w	r1, #8192	; 0x2000
 80050a4:	f042 0204 	orr.w	r2, r2, #4
 80050a8:	619a      	str	r2, [r3, #24]
 80050aa:	699a      	ldr	r2, [r3, #24]
 80050ac:	2601      	movs	r6, #1
 80050ae:	f002 0204 	and.w	r2, r2, #4
 80050b2:	9202      	str	r2, [sp, #8]
 80050b4:	9a02      	ldr	r2, [sp, #8]
 80050b6:	699a      	ldr	r2, [r3, #24]
 80050b8:	2500      	movs	r5, #0
 80050ba:	f042 0208 	orr.w	r2, r2, #8
 80050be:	619a      	str	r2, [r3, #24]
 80050c0:	699b      	ldr	r3, [r3, #24]
 80050c2:	2200      	movs	r2, #0
 80050c4:	f003 0308 	and.w	r3, r3, #8
 80050c8:	9303      	str	r3, [sp, #12]
 80050ca:	9b03      	ldr	r3, [sp, #12]
 80050cc:	f7fd fd8c 	bl	8002be8 <HAL_GPIO_WritePin>
 80050d0:	2200      	movs	r2, #0
 80050d2:	4620      	mov	r0, r4
 80050d4:	f44f 7148 	mov.w	r1, #800	; 0x320
 80050d8:	f7fd fd86 	bl	8002be8 <HAL_GPIO_WritePin>
 80050dc:	f44f 5300 	mov.w	r3, #8192	; 0x2000
 80050e0:	e9cd 3604 	strd	r3, r6, [sp, #16]
 80050e4:	2302      	movs	r3, #2
 80050e6:	4638      	mov	r0, r7
 80050e8:	a904      	add	r1, sp, #16
 80050ea:	e9cd 5306 	strd	r5, r3, [sp, #24]
 80050ee:	f7fd fc9f 	bl	8002a30 <HAL_GPIO_Init>
 80050f2:	231c      	movs	r3, #28
 80050f4:	4620      	mov	r0, r4
 80050f6:	a904      	add	r1, sp, #16
 80050f8:	e9cd 3504 	strd	r3, r5, [sp, #16]
 80050fc:	9606      	str	r6, [sp, #24]
 80050fe:	f7fd fc97 	bl	8002a30 <HAL_GPIO_Init>
 8005102:	f44f 7348 	mov.w	r3, #800	; 0x320
 8005106:	e9cd 3604 	strd	r3, r6, [sp, #16]
 800510a:	2303      	movs	r3, #3
 800510c:	4620      	mov	r0, r4
 800510e:	a904      	add	r1, sp, #16
 8005110:	9506      	str	r5, [sp, #24]
 8005112:	9307      	str	r3, [sp, #28]
 8005114:	f7fd fc8c 	bl	8002a30 <HAL_GPIO_Init>
 8005118:	b009      	add	sp, #36	; 0x24
 800511a:	bdf0      	pop	{r4, r5, r6, r7, pc}
 800511c:	40021000 	.word	0x40021000
 8005120:	40011000 	.word	0x40011000
 8005124:	40010800 	.word	0x40010800

08005128 <MX_I2C1_Init>:
 8005128:	b508      	push	{r3, lr}
 800512a:	480b      	ldr	r0, [pc, #44]	; (8005158 <MX_I2C1_Init+0x30>)
 800512c:	4a0b      	ldr	r2, [pc, #44]	; (800515c <MX_I2C1_Init+0x34>)
 800512e:	4b0c      	ldr	r3, [pc, #48]	; (8005160 <MX_I2C1_Init+0x38>)
 8005130:	e9c0 2300 	strd	r2, r3, [r0]
 8005134:	2300      	movs	r3, #0
 8005136:	f44f 4280 	mov.w	r2, #16384	; 0x4000
 800513a:	e9c0 3302 	strd	r3, r3, [r0, #8]
 800513e:	e9c0 2304 	strd	r2, r3, [r0, #16]
 8005142:	e9c0 3306 	strd	r3, r3, [r0, #24]
 8005146:	6203      	str	r3, [r0, #32]
 8005148:	f7fd fe86 	bl	8002e58 <HAL_I2C_Init>
 800514c:	b118      	cbz	r0, 8005156 <MX_I2C1_Init+0x2e>
 800514e:	e8bd 4008 	ldmia.w	sp!, {r3, lr}
 8005152:	f000 bb75 	b.w	8005840 <Error_Handler>
 8005156:	bd08      	pop	{r3, pc}
 8005158:	2000043c 	.word	0x2000043c
 800515c:	40005400 	.word	0x40005400
 8005160:	00061a80 	.word	0x00061a80

08005164 <HAL_I2C_MspInit>:
 8005164:	b570      	push	{r4, r5, r6, lr}
 8005166:	2610      	movs	r6, #16
 8005168:	4605      	mov	r5, r0
 800516a:	b086      	sub	sp, #24
 800516c:	4632      	mov	r2, r6
 800516e:	2100      	movs	r1, #0
 8005170:	a802      	add	r0, sp, #8
 8005172:	f000 fdc1 	bl	8005cf8 <memset>
 8005176:	682a      	ldr	r2, [r5, #0]
 8005178:	4b1f      	ldr	r3, [pc, #124]	; (80051f8 <HAL_I2C_MspInit+0x94>)
 800517a:	429a      	cmp	r2, r3
 800517c:	d13a      	bne.n	80051f4 <HAL_I2C_MspInit+0x90>
 800517e:	4c1f      	ldr	r4, [pc, #124]	; (80051fc <HAL_I2C_MspInit+0x98>)
 8005180:	22c0      	movs	r2, #192	; 0xc0
 8005182:	69a3      	ldr	r3, [r4, #24]
 8005184:	481e      	ldr	r0, [pc, #120]	; (8005200 <HAL_I2C_MspInit+0x9c>)
 8005186:	f043 0308 	orr.w	r3, r3, #8
 800518a:	61a3      	str	r3, [r4, #24]
 800518c:	69a3      	ldr	r3, [r4, #24]
 800518e:	a902      	add	r1, sp, #8
 8005190:	f003 0308 	and.w	r3, r3, #8
 8005194:	9300      	str	r3, [sp, #0]
 8005196:	9b00      	ldr	r3, [sp, #0]
 8005198:	2312      	movs	r3, #18
 800519a:	e9cd 2302 	strd	r2, r3, [sp, #8]
 800519e:	2303      	movs	r3, #3
 80051a0:	9305      	str	r3, [sp, #20]
 80051a2:	f7fd fc45 	bl	8002a30 <HAL_GPIO_Init>
 80051a6:	69e3      	ldr	r3, [r4, #28]
 80051a8:	2280      	movs	r2, #128	; 0x80
 80051aa:	f443 1300 	orr.w	r3, r3, #2097152	; 0x200000
 80051ae:	61e3      	str	r3, [r4, #28]
 80051b0:	69e3      	ldr	r3, [r4, #28]
 80051b2:	4c14      	ldr	r4, [pc, #80]	; (8005204 <HAL_I2C_MspInit+0xa0>)
 80051b4:	f403 1300 	and.w	r3, r3, #2097152	; 0x200000
 80051b8:	9301      	str	r3, [sp, #4]
 80051ba:	9b01      	ldr	r3, [sp, #4]
 80051bc:	4b12      	ldr	r3, [pc, #72]	; (8005208 <HAL_I2C_MspInit+0xa4>)
 80051be:	4620      	mov	r0, r4
 80051c0:	e9c4 3600 	strd	r3, r6, [r4]
 80051c4:	2300      	movs	r3, #0
 80051c6:	e9c4 3202 	strd	r3, r2, [r4, #8]
 80051ca:	e9c4 3304 	strd	r3, r3, [r4, #16]
 80051ce:	61a3      	str	r3, [r4, #24]
 80051d0:	f44f 5380 	mov.w	r3, #4096	; 0x1000
 80051d4:	61e3      	str	r3, [r4, #28]
 80051d6:	f7fd fae5 	bl	80027a4 <HAL_DMA_Init>
 80051da:	b108      	cbz	r0, 80051e0 <HAL_I2C_MspInit+0x7c>
 80051dc:	f000 fb30 	bl	8005840 <Error_Handler>
 80051e0:	201f      	movs	r0, #31
 80051e2:	2200      	movs	r2, #0
 80051e4:	2101      	movs	r1, #1
 80051e6:	636c      	str	r4, [r5, #52]	; 0x34
 80051e8:	6265      	str	r5, [r4, #36]	; 0x24
 80051ea:	f7fd fa85 	bl	80026f8 <HAL_NVIC_SetPriority>
 80051ee:	201f      	movs	r0, #31
 80051f0:	f7fd fab4 	bl	800275c <HAL_NVIC_EnableIRQ>
 80051f4:	b006      	add	sp, #24
 80051f6:	bd70      	pop	{r4, r5, r6, pc}
 80051f8:	40005400 	.word	0x40005400
 80051fc:	40021000 	.word	0x40021000
 8005200:	40010c00 	.word	0x40010c00
 8005204:	200003f8 	.word	0x200003f8
 8005208:	4002006c 	.word	0x4002006c

0800520c <StopWaitingDueToPushBtnRelease>:
 800520c:	b507      	push	{r0, r1, r2, lr}
 800520e:	2200      	movs	r2, #0
 8005210:	f10d 0007 	add.w	r0, sp, #7
 8005214:	4611      	mov	r1, r2
 8005216:	f7fc fa2b 	bl	8001670 <bbb_GetBtnStates>
 800521a:	f89d 0007 	ldrb.w	r0, [sp, #7]
 800521e:	fab0 f080 	clz	r0, r0
 8005222:	0940      	lsrs	r0, r0, #5
 8005224:	b003      	add	sp, #12
 8005226:	f85d fb04 	ldr.w	pc, [sp], #4

0800522a <StopWaitingDueToPullBtnRelease>:
 800522a:	b507      	push	{r0, r1, r2, lr}
 800522c:	2200      	movs	r2, #0
 800522e:	f10d 0107 	add.w	r1, sp, #7
 8005232:	4610      	mov	r0, r2
 8005234:	f7fc fa1c 	bl	8001670 <bbb_GetBtnStates>
 8005238:	f89d 0007 	ldrb.w	r0, [sp, #7]
 800523c:	fab0 f080 	clz	r0, r0
 8005240:	0940      	lsrs	r0, r0, #5
 8005242:	b003      	add	sp, #12
 8005244:	f85d fb04 	ldr.w	pc, [sp], #4

08005248 <StopWaitingDueToAnyBtnPressed>:
 8005248:	b507      	push	{r0, r1, r2, lr}
 800524a:	f10d 0005 	add.w	r0, sp, #5
 800524e:	f10d 0207 	add.w	r2, sp, #7
 8005252:	f10d 0106 	add.w	r1, sp, #6
 8005256:	f7fc fa0b 	bl	8001670 <bbb_GetBtnStates>
 800525a:	f89d 2006 	ldrb.w	r2, [sp, #6]
 800525e:	f89d 3005 	ldrb.w	r3, [sp, #5]
 8005262:	4313      	orrs	r3, r2
 8005264:	f89d 2007 	ldrb.w	r2, [sp, #7]
 8005268:	4313      	orrs	r3, r2
 800526a:	bf14      	ite	ne
 800526c:	2001      	movne	r0, #1
 800526e:	2000      	moveq	r0, #0
 8005270:	b003      	add	sp, #12
 8005272:	f85d fb04 	ldr.w	pc, [sp], #4

08005276 <__io_putchar>:
 8005276:	f04f 4360 	mov.w	r3, #3758096384	; 0xe0000000
 800527a:	f8d3 2e80 	ldr.w	r2, [r3, #3712]	; 0xe80
 800527e:	07d1      	lsls	r1, r2, #31
 8005280:	d507      	bpl.n	8005292 <__io_putchar+0x1c>
 8005282:	f8d3 2e00 	ldr.w	r2, [r3, #3584]	; 0xe00
 8005286:	07d2      	lsls	r2, r2, #31
 8005288:	d503      	bpl.n	8005292 <__io_putchar+0x1c>
 800528a:	681a      	ldr	r2, [r3, #0]
 800528c:	b112      	cbz	r2, 8005294 <__io_putchar+0x1e>
 800528e:	b2c2      	uxtb	r2, r0
 8005290:	701a      	strb	r2, [r3, #0]
 8005292:	4770      	bx	lr
 8005294:	bf00      	nop
 8005296:	e7f8      	b.n	800528a <__io_putchar+0x14>

08005298 <ReadFromEprom>:
 8005298:	b510      	push	{r4, lr}
 800529a:	4907      	ldr	r1, [pc, #28]	; (80052b8 <ReadFromEprom+0x20>)
 800529c:	f241 1011 	movw	r0, #4369	; 0x1111
 80052a0:	f7fc f8a2 	bl	80013e8 <EE_Read>
 80052a4:	4c05      	ldr	r4, [pc, #20]	; (80052bc <ReadFromEprom+0x24>)
 80052a6:	4906      	ldr	r1, [pc, #24]	; (80052c0 <ReadFromEprom+0x28>)
 80052a8:	8020      	strh	r0, [r4, #0]
 80052aa:	f242 2022 	movw	r0, #8738	; 0x2222
 80052ae:	f7fc f89b 	bl	80013e8 <EE_Read>
 80052b2:	8020      	strh	r0, [r4, #0]
 80052b4:	bd10      	pop	{r4, pc}
 80052b6:	bf00      	nop
 80052b8:	20000074 	.word	0x20000074
 80052bc:	200004a2 	.word	0x200004a2
 80052c0:	20000072 	.word	0x20000072

080052c4 <RestoreFromEprom>:
 80052c4:	b508      	push	{r3, lr}
 80052c6:	f7fc f81d 	bl	8001304 <EE_Init>
 80052ca:	f7ff ffe5 	bl	8005298 <ReadFromEprom>
 80052ce:	f64f 72ff 	movw	r2, #65535	; 0xffff
 80052d2:	4b0c      	ldr	r3, [pc, #48]	; (8005304 <RestoreFromEprom+0x40>)
 80052d4:	8819      	ldrh	r1, [r3, #0]
 80052d6:	4291      	cmp	r1, r2
 80052d8:	d105      	bne.n	80052e6 <RestoreFromEprom+0x22>
 80052da:	2102      	movs	r1, #2
 80052dc:	f241 1011 	movw	r0, #4369	; 0x1111
 80052e0:	8019      	strh	r1, [r3, #0]
 80052e2:	f7fc f925 	bl	8001530 <EE_Write>
 80052e6:	f64f 72ff 	movw	r2, #65535	; 0xffff
 80052ea:	4b07      	ldr	r3, [pc, #28]	; (8005308 <RestoreFromEprom+0x44>)
 80052ec:	8819      	ldrh	r1, [r3, #0]
 80052ee:	4291      	cmp	r1, r2
 80052f0:	d107      	bne.n	8005302 <RestoreFromEprom+0x3e>
 80052f2:	2102      	movs	r1, #2
 80052f4:	f242 2022 	movw	r0, #8738	; 0x2222
 80052f8:	8019      	strh	r1, [r3, #0]
 80052fa:	e8bd 4008 	ldmia.w	sp!, {r3, lr}
 80052fe:	f7fc b917 	b.w	8001530 <EE_Write>
 8005302:	bd08      	pop	{r3, pc}
 8005304:	20000074 	.word	0x20000074
 8005308:	20000072 	.word	0x20000072

0800530c <InitTimers>:
 800530c:	f44f 727a 	mov.w	r2, #1000	; 0x3e8
 8005310:	4b0a      	ldr	r3, [pc, #40]	; (800533c <InitTimers+0x30>)
 8005312:	801a      	strh	r2, [r3, #0]
 8005314:	805a      	strh	r2, [r3, #2]
 8005316:	791a      	ldrb	r2, [r3, #4]
 8005318:	f042 0240 	orr.w	r2, r2, #64	; 0x40
 800531c:	711a      	strb	r2, [r3, #4]
 800531e:	2296      	movs	r2, #150	; 0x96
 8005320:	80da      	strh	r2, [r3, #6]
 8005322:	811a      	strh	r2, [r3, #8]
 8005324:	7a9a      	ldrb	r2, [r3, #10]
 8005326:	f042 0240 	orr.w	r2, r2, #64	; 0x40
 800532a:	729a      	strb	r2, [r3, #10]
 800532c:	2228      	movs	r2, #40	; 0x28
 800532e:	819a      	strh	r2, [r3, #12]
 8005330:	81da      	strh	r2, [r3, #14]
 8005332:	7c1a      	ldrb	r2, [r3, #16]
 8005334:	f042 0240 	orr.w	r2, r2, #64	; 0x40
 8005338:	741a      	strb	r2, [r3, #16]
 800533a:	4770      	bx	lr
 800533c:	20000490 	.word	0x20000490

08005340 <TimerAction>:
 8005340:	4914      	ldr	r1, [pc, #80]	; (8005394 <TimerAction+0x54>)
 8005342:	b5f0      	push	{r4, r5, r6, r7, lr}
 8005344:	2200      	movs	r2, #0
 8005346:	2506      	movs	r5, #6
 8005348:	460e      	mov	r6, r1
 800534a:	fb05 f002 	mul.w	r0, r5, r2
 800534e:	5a0b      	ldrh	r3, [r1, r0]
 8005350:	180c      	adds	r4, r1, r0
 8005352:	b29b      	uxth	r3, r3
 8005354:	b1cb      	cbz	r3, 800538a <TimerAction+0x4a>
 8005356:	8863      	ldrh	r3, [r4, #2]
 8005358:	3b01      	subs	r3, #1
 800535a:	b29b      	uxth	r3, r3
 800535c:	8063      	strh	r3, [r4, #2]
 800535e:	b9a3      	cbnz	r3, 800538a <TimerAction+0x4a>
 8005360:	7923      	ldrb	r3, [r4, #4]
 8005362:	f3c3 1780 	ubfx	r7, r3, #6, #1
 8005366:	065b      	lsls	r3, r3, #25
 8005368:	bf49      	itett	mi
 800536a:	5a0b      	ldrhmi	r3, [r1, r0]
 800536c:	520f      	strhpl	r7, [r1, r0]
 800536e:	b29b      	uxthmi	r3, r3
 8005370:	8063      	strhmi	r3, [r4, #2]
 8005372:	fb05 6302 	mla	r3, r5, r2, r6
 8005376:	7918      	ldrb	r0, [r3, #4]
 8005378:	f040 0080 	orr.w	r0, r0, #128	; 0x80
 800537c:	7118      	strb	r0, [r3, #4]
 800537e:	791c      	ldrb	r4, [r3, #4]
 8005380:	7918      	ldrb	r0, [r3, #4]
 8005382:	3401      	adds	r4, #1
 8005384:	f364 0005 	bfi	r0, r4, #0, #6
 8005388:	7118      	strb	r0, [r3, #4]
 800538a:	3201      	adds	r2, #1
 800538c:	2a03      	cmp	r2, #3
 800538e:	d1dc      	bne.n	800534a <TimerAction+0xa>
 8005390:	bdf0      	pop	{r4, r5, r6, r7, pc}
 8005392:	bf00      	nop
 8005394:	20000490 	.word	0x20000490

08005398 <HAL_I2C_MemTxCpltCallback>:
 8005398:	2201      	movs	r2, #1
 800539a:	4b01      	ldr	r3, [pc, #4]	; (80053a0 <HAL_I2C_MemTxCpltCallback+0x8>)
 800539c:	701a      	strb	r2, [r3, #0]
 800539e:	4770      	bx	lr
 80053a0:	20000070 	.word	0x20000070

080053a4 <HAL_I2C_ErrorCallback>:
 80053a4:	6c03      	ldr	r3, [r0, #64]	; 0x40
 80053a6:	4770      	bx	lr

080053a8 <SystemClock_Config>:
 80053a8:	b530      	push	{r4, r5, lr}
 80053aa:	b095      	sub	sp, #84	; 0x54
 80053ac:	2218      	movs	r2, #24
 80053ae:	2100      	movs	r1, #0
 80053b0:	a80b      	add	r0, sp, #44	; 0x2c
 80053b2:	f000 fca1 	bl	8005cf8 <memset>
 80053b6:	2214      	movs	r2, #20
 80053b8:	2510      	movs	r5, #16
 80053ba:	eb0d 0002 	add.w	r0, sp, r2
 80053be:	2100      	movs	r1, #0
 80053c0:	f000 fc9a 	bl	8005cf8 <memset>
 80053c4:	462a      	mov	r2, r5
 80053c6:	2100      	movs	r1, #0
 80053c8:	a801      	add	r0, sp, #4
 80053ca:	f000 fc95 	bl	8005cf8 <memset>
 80053ce:	2301      	movs	r3, #1
 80053d0:	2402      	movs	r4, #2
 80053d2:	e9cd 350e 	strd	r3, r5, [sp, #56]	; 0x38
 80053d6:	2500      	movs	r5, #0
 80053d8:	f44f 1360 	mov.w	r3, #3670016	; 0x380000
 80053dc:	a80a      	add	r0, sp, #40	; 0x28
 80053de:	e9cd 5312 	strd	r5, r3, [sp, #72]	; 0x48
 80053e2:	940a      	str	r4, [sp, #40]	; 0x28
 80053e4:	9411      	str	r4, [sp, #68]	; 0x44
 80053e6:	f7fe fe23 	bl	8004030 <HAL_RCC_OscConfig>
 80053ea:	230f      	movs	r3, #15
 80053ec:	e9cd 3405 	strd	r3, r4, [sp, #20]
 80053f0:	f44f 6380 	mov.w	r3, #1024	; 0x400
 80053f4:	4621      	mov	r1, r4
 80053f6:	a805      	add	r0, sp, #20
 80053f8:	e9cd 3508 	strd	r3, r5, [sp, #32]
 80053fc:	9507      	str	r5, [sp, #28]
 80053fe:	f7fe fff3 	bl	80043e8 <HAL_RCC_ClockConfig>
 8005402:	f44f 4300 	mov.w	r3, #32768	; 0x8000
 8005406:	a801      	add	r0, sp, #4
 8005408:	9401      	str	r4, [sp, #4]
 800540a:	9303      	str	r3, [sp, #12]
 800540c:	f7ff f8a8 	bl	8004560 <HAL_RCCEx_PeriphCLKConfig>
 8005410:	b015      	add	sp, #84	; 0x54
 8005412:	bd30      	pop	{r4, r5, pc}

08005414 <main>:
 8005414:	e92d 4ff7 	stmdb	sp!, {r0, r1, r2, r4, r5, r6, r7, r8, r9, sl, fp, lr}
 8005418:	f7fc fe16 	bl	8002048 <HAL_Init>
 800541c:	f7ff ffc4 	bl	80053a8 <SystemClock_Config>
 8005420:	f7ff fe28 	bl	8005074 <MX_GPIO_Init>
 8005424:	f7ff fe06 	bl	8005034 <MX_DMA_Init>
 8005428:	f7ff fd6e 	bl	8004f08 <MX_ADC1_Init>
 800542c:	f7ff fe7c 	bl	8005128 <MX_I2C1_Init>
 8005430:	f000 fb88 	bl	8005b44 <MX_TIM1_Init>
 8005434:	2201      	movs	r2, #1
 8005436:	f44f 5100 	mov.w	r1, #8192	; 0x2000
 800543a:	489f      	ldr	r0, [pc, #636]	; (80056b8 <main+0x2a4>)
 800543c:	f7fd fbd4 	bl	8002be8 <HAL_GPIO_WritePin>
 8005440:	f000 fabc 	bl	80059bc <m_MX_TIM3_Init>
 8005444:	f7ff ff62 	bl	800530c <InitTimers>
 8005448:	f7fc fb98 	bl	8001b7c <meas_Init>
 800544c:	f7fc f88a 	bl	8001564 <bbb_Init>
 8005450:	f7fc fd38 	bl	8001ec4 <SSD1306_Init>
 8005454:	f7ff ff36 	bl	80052c4 <RestoreFromEprom>
 8005458:	f7fc f9ee 	bl	8001838 <disp_DrawInitScreen>
 800545c:	4897      	ldr	r0, [pc, #604]	; (80056bc <main+0x2a8>)
 800545e:	f000 fa91 	bl	8005984 <PWMPulse>
 8005462:	f7fc fbff 	bl	8001c64 <mo_SetSpeed>
 8005466:	20c8      	movs	r0, #200	; 0xc8
 8005468:	f7fc fe12 	bl	8002090 <HAL_Delay>
 800546c:	2364      	movs	r3, #100	; 0x64
 800546e:	2203      	movs	r2, #3
 8005470:	2102      	movs	r1, #2
 8005472:	2001      	movs	r0, #1
 8005474:	9300      	str	r3, [sp, #0]
 8005476:	2304      	movs	r3, #4
 8005478:	f7fc f974 	bl	8001764 <bbb_Melody4>
 800547c:	f44f 7061 	mov.w	r0, #900	; 0x384
 8005480:	f7fc f92a 	bl	80016d8 <bbb_WaitSync>
 8005484:	2400      	movs	r4, #0
 8005486:	2500      	movs	r5, #0
 8005488:	4e8d      	ldr	r6, [pc, #564]	; (80056c0 <main+0x2ac>)
 800548a:	f44f 7100 	mov.w	r1, #512	; 0x200
 800548e:	488d      	ldr	r0, [pc, #564]	; (80056c4 <main+0x2b0>)
 8005490:	f7fd fbaf 	bl	8002bf2 <HAL_GPIO_TogglePin>
 8005494:	7ab3      	ldrb	r3, [r6, #10]
 8005496:	09db      	lsrs	r3, r3, #7
 8005498:	d008      	beq.n	80054ac <main+0x98>
 800549a:	7ab3      	ldrb	r3, [r6, #10]
 800549c:	f44f 5100 	mov.w	r1, #8192	; 0x2000
 80054a0:	f36f 13c7 	bfc	r3, #7, #1
 80054a4:	4884      	ldr	r0, [pc, #528]	; (80056b8 <main+0x2a4>)
 80054a6:	72b3      	strb	r3, [r6, #10]
 80054a8:	f7fd fba3 	bl	8002bf2 <HAL_GPIO_TogglePin>
 80054ac:	7c33      	ldrb	r3, [r6, #16]
 80054ae:	09db      	lsrs	r3, r3, #7
 80054b0:	d008      	beq.n	80054c4 <main+0xb0>
 80054b2:	7c33      	ldrb	r3, [r6, #16]
 80054b4:	f44f 7100 	mov.w	r1, #512	; 0x200
 80054b8:	f36f 13c7 	bfc	r3, #7, #1
 80054bc:	4881      	ldr	r0, [pc, #516]	; (80056c4 <main+0x2b0>)
 80054be:	7433      	strb	r3, [r6, #16]
 80054c0:	f7fd fb97 	bl	8002bf2 <HAL_GPIO_TogglePin>
 80054c4:	4b80      	ldr	r3, [pc, #512]	; (80056c8 <main+0x2b4>)
 80054c6:	f9b3 3000 	ldrsh.w	r3, [r3]
 80054ca:	b923      	cbnz	r3, 80054d6 <main+0xc2>
 80054cc:	2203      	movs	r2, #3
 80054ce:	497f      	ldr	r1, [pc, #508]	; (80056cc <main+0x2b8>)
 80054d0:	487f      	ldr	r0, [pc, #508]	; (80056d0 <main+0x2bc>)
 80054d2:	f7fc ff5b 	bl	800238c <HAL_ADC_Start_DMA>
 80054d6:	f8df a248 	ldr.w	sl, [pc, #584]	; 8005720 <main+0x30c>
 80054da:	4e7e      	ldr	r6, [pc, #504]	; (80056d4 <main+0x2c0>)
 80054dc:	f89a 0000 	ldrb.w	r0, [sl]
 80054e0:	2809      	cmp	r0, #9
 80054e2:	d944      	bls.n	800556e <main+0x15a>
 80054e4:	f7fb fb42 	bl	8000b6c <__aeabi_i2f>
 80054e8:	f8df 9238 	ldr.w	r9, [pc, #568]	; 8005724 <main+0x310>
 80054ec:	4601      	mov	r1, r0
 80054ee:	4607      	mov	r7, r0
 80054f0:	f8d9 0000 	ldr.w	r0, [r9]
 80054f4:	f7fb fc42 	bl	8000d7c <__aeabi_fdiv>
 80054f8:	f8df 822c 	ldr.w	r8, [pc, #556]	; 8005728 <main+0x314>
 80054fc:	4b76      	ldr	r3, [pc, #472]	; (80056d8 <main+0x2c4>)
 80054fe:	4639      	mov	r1, r7
 8005500:	6018      	str	r0, [r3, #0]
 8005502:	f8d8 0000 	ldr.w	r0, [r8]
 8005506:	f7fb fc39 	bl	8000d7c <__aeabi_fdiv>
 800550a:	4b74      	ldr	r3, [pc, #464]	; (80056dc <main+0x2c8>)
 800550c:	f8c9 4000 	str.w	r4, [r9]
 8005510:	6018      	str	r0, [r3, #0]
 8005512:	2300      	movs	r3, #0
 8005514:	f88a 3000 	strb.w	r3, [sl]
 8005518:	2301      	movs	r3, #1
 800551a:	f8c8 4000 	str.w	r4, [r8]
 800551e:	7033      	strb	r3, [r6, #0]
 8005520:	4b6f      	ldr	r3, [pc, #444]	; (80056e0 <main+0x2cc>)
 8005522:	781a      	ldrb	r2, [r3, #0]
 8005524:	b332      	cbz	r2, 8005574 <main+0x160>
 8005526:	2700      	movs	r7, #0
 8005528:	2201      	movs	r2, #1
 800552a:	f44f 7180 	mov.w	r1, #256	; 0x100
 800552e:	4865      	ldr	r0, [pc, #404]	; (80056c4 <main+0x2b0>)
 8005530:	701f      	strb	r7, [r3, #0]
 8005532:	f7fd fb59 	bl	8002be8 <HAL_GPIO_WritePin>
 8005536:	4b6b      	ldr	r3, [pc, #428]	; (80056e4 <main+0x2d0>)
 8005538:	4a6b      	ldr	r2, [pc, #428]	; (80056e8 <main+0x2d4>)
 800553a:	8819      	ldrh	r1, [r3, #0]
 800553c:	4b6b      	ldr	r3, [pc, #428]	; (80056ec <main+0x2d8>)
 800553e:	f852 2021 	ldr.w	r2, [r2, r1, lsl #2]
 8005542:	8818      	ldrh	r0, [r3, #0]
 8005544:	4b65      	ldr	r3, [pc, #404]	; (80056dc <main+0x2c8>)
 8005546:	496a      	ldr	r1, [pc, #424]	; (80056f0 <main+0x2dc>)
 8005548:	681b      	ldr	r3, [r3, #0]
 800554a:	f851 1020 	ldr.w	r1, [r1, r0, lsl #2]
 800554e:	9301      	str	r3, [sp, #4]
 8005550:	4868      	ldr	r0, [pc, #416]	; (80056f4 <main+0x2e0>)
 8005552:	4b61      	ldr	r3, [pc, #388]	; (80056d8 <main+0x2c4>)
 8005554:	9400      	str	r4, [sp, #0]
 8005556:	681b      	ldr	r3, [r3, #0]
 8005558:	7800      	ldrb	r0, [r0, #0]
 800555a:	f7fc fa93 	bl	8001a84 <disp_DrawScreen>
 800555e:	463a      	mov	r2, r7
 8005560:	f44f 7180 	mov.w	r1, #256	; 0x100
 8005564:	4857      	ldr	r0, [pc, #348]	; (80056c4 <main+0x2b0>)
 8005566:	f7fd fb3f 	bl	8002be8 <HAL_GPIO_WritePin>
 800556a:	7037      	strb	r7, [r6, #0]
 800556c:	e002      	b.n	8005574 <main+0x160>
 800556e:	7833      	ldrb	r3, [r6, #0]
 8005570:	2b00      	cmp	r3, #0
 8005572:	d1d5      	bne.n	8005520 <main+0x10c>
 8005574:	f7fb fff8 	bl	8001568 <bbb_Update>
 8005578:	2800      	cmp	r0, #0
 800557a:	d06a      	beq.n	8005652 <main+0x23e>
 800557c:	f7fc f8a0 	bl	80016c0 <bbb_GetPushBtnState>
 8005580:	4f5d      	ldr	r7, [pc, #372]	; (80056f8 <main+0x2e4>)
 8005582:	f8df 8170 	ldr.w	r8, [pc, #368]	; 80056f4 <main+0x2e0>
 8005586:	6038      	str	r0, [r7, #0]
 8005588:	f7fc f89e 	bl	80016c8 <bbb_GetPullBtnState>
 800558c:	4b5b      	ldr	r3, [pc, #364]	; (80056fc <main+0x2e8>)
 800558e:	6018      	str	r0, [r3, #0]
 8005590:	f7fc f89e 	bl	80016d0 <bbb_GetCfgBtnState>
 8005594:	4b5a      	ldr	r3, [pc, #360]	; (8005700 <main+0x2ec>)
 8005596:	6018      	str	r0, [r3, #0]
 8005598:	f898 3000 	ldrb.w	r3, [r8]
 800559c:	2b00      	cmp	r3, #0
 800559e:	f040 80c5 	bne.w	800572c <main+0x318>
 80055a2:	683b      	ldr	r3, [r7, #0]
 80055a4:	f993 301c 	ldrsb.w	r3, [r3, #28]
 80055a8:	2b01      	cmp	r3, #1
 80055aa:	d160      	bne.n	800566e <main+0x25a>
 80055ac:	4620      	mov	r0, r4
 80055ae:	f000 f9e9 	bl	8005984 <PWMPulse>
 80055b2:	f7fc fb57 	bl	8001c64 <mo_SetSpeed>
 80055b6:	200a      	movs	r0, #10
 80055b8:	f7fc f88e 	bl	80016d8 <bbb_WaitSync>
 80055bc:	4851      	ldr	r0, [pc, #324]	; (8005704 <main+0x2f0>)
 80055be:	f000 f9e1 	bl	8005984 <PWMPulse>
 80055c2:	f7fc fb4f 	bl	8001c64 <mo_SetSpeed>
 80055c6:	4b47      	ldr	r3, [pc, #284]	; (80056e4 <main+0x2d0>)
 80055c8:	494f      	ldr	r1, [pc, #316]	; (8005708 <main+0x2f4>)
 80055ca:	881a      	ldrh	r2, [r3, #0]
 80055cc:	4b4f      	ldr	r3, [pc, #316]	; (800570c <main+0x2f8>)
 80055ce:	f833 0012 	ldrh.w	r0, [r3, r2, lsl #1]
 80055d2:	f7fc f88b 	bl	80016ec <bbb_WaitSyncCond>
 80055d6:	4b45      	ldr	r3, [pc, #276]	; (80056ec <main+0x2d8>)
 80055d8:	881a      	ldrh	r2, [r3, #0]
 80055da:	4b4d      	ldr	r3, [pc, #308]	; (8005710 <main+0x2fc>)
 80055dc:	f833 0012 	ldrh.w	r0, [r3, r2, lsl #1]
 80055e0:	f7fb fac0 	bl	8000b64 <__aeabi_ui2f>
 80055e4:	f000 f9ce 	bl	8005984 <PWMPulse>
 80055e8:	f7fc fb3c 	bl	8001c64 <mo_SetSpeed>
 80055ec:	4b43      	ldr	r3, [pc, #268]	; (80056fc <main+0x2e8>)
 80055ee:	681b      	ldr	r3, [r3, #0]
 80055f0:	f993 301c 	ldrsb.w	r3, [r3, #28]
 80055f4:	2b01      	cmp	r3, #1
 80055f6:	d155      	bne.n	80056a4 <main+0x290>
 80055f8:	4846      	ldr	r0, [pc, #280]	; (8005714 <main+0x300>)
 80055fa:	f000 f9c3 	bl	8005984 <PWMPulse>
 80055fe:	f7fc fb31 	bl	8001c64 <mo_SetSpeed>
 8005602:	f64f 70ff 	movw	r0, #65535	; 0xffff
 8005606:	4944      	ldr	r1, [pc, #272]	; (8005718 <main+0x304>)
 8005608:	f7fc f870 	bl	80016ec <bbb_WaitSyncCond>
 800560c:	4b3c      	ldr	r3, [pc, #240]	; (8005700 <main+0x2ec>)
 800560e:	681b      	ldr	r3, [r3, #0]
 8005610:	f993 301c 	ldrsb.w	r3, [r3, #28]
 8005614:	2b02      	cmp	r3, #2
 8005616:	d11c      	bne.n	8005652 <main+0x23e>
 8005618:	2164      	movs	r1, #100	; 0x64
 800561a:	2001      	movs	r0, #1
 800561c:	f7fc f876 	bl	800170c <bbb_Beep>
 8005620:	f898 3000 	ldrb.w	r3, [r8]
 8005624:	4620      	mov	r0, r4
 8005626:	3301      	adds	r3, #1
 8005628:	b2db      	uxtb	r3, r3
 800562a:	2b02      	cmp	r3, #2
 800562c:	bf88      	it	hi
 800562e:	2300      	movhi	r3, #0
 8005630:	f888 3000 	strb.w	r3, [r8]
 8005634:	f000 f9a6 	bl	8005984 <PWMPulse>
 8005638:	f7fc fb14 	bl	8001c64 <mo_SetSpeed>
 800563c:	f7fc fd22 	bl	8002084 <HAL_GetTick>
 8005640:	2301      	movs	r3, #1
 8005642:	f500 65fa 	add.w	r5, r0, #2000	; 0x7d0
 8005646:	4620      	mov	r0, r4
 8005648:	7033      	strb	r3, [r6, #0]
 800564a:	f000 f99b 	bl	8005984 <PWMPulse>
 800564e:	f7fc fb09 	bl	8001c64 <mo_SetSpeed>
 8005652:	2d00      	cmp	r5, #0
 8005654:	f43f af18 	beq.w	8005488 <main+0x74>
 8005658:	f7fc fd14 	bl	8002084 <HAL_GetTick>
 800565c:	42a8      	cmp	r0, r5
 800565e:	f67f af13 	bls.w	8005488 <main+0x74>
 8005662:	2200      	movs	r2, #0
 8005664:	4b23      	ldr	r3, [pc, #140]	; (80056f4 <main+0x2e0>)
 8005666:	701a      	strb	r2, [r3, #0]
 8005668:	2301      	movs	r3, #1
 800566a:	7033      	strb	r3, [r6, #0]
 800566c:	e70b      	b.n	8005486 <main+0x72>
 800566e:	2b02      	cmp	r3, #2
 8005670:	d001      	beq.n	8005676 <main+0x262>
 8005672:	2b05      	cmp	r3, #5
 8005674:	d1ba      	bne.n	80055ec <main+0x1d8>
 8005676:	4620      	mov	r0, r4
 8005678:	f000 f984 	bl	8005984 <PWMPulse>
 800567c:	f7fc faf2 	bl	8001c64 <mo_SetSpeed>
 8005680:	200a      	movs	r0, #10
 8005682:	f7fc f829 	bl	80016d8 <bbb_WaitSync>
 8005686:	4823      	ldr	r0, [pc, #140]	; (8005714 <main+0x300>)
 8005688:	f000 f97c 	bl	8005984 <PWMPulse>
 800568c:	f7fc faea 	bl	8001c64 <mo_SetSpeed>
 8005690:	4b14      	ldr	r3, [pc, #80]	; (80056e4 <main+0x2d0>)
 8005692:	4922      	ldr	r1, [pc, #136]	; (800571c <main+0x308>)
 8005694:	881a      	ldrh	r2, [r3, #0]
 8005696:	4b1d      	ldr	r3, [pc, #116]	; (800570c <main+0x2f8>)
 8005698:	f833 0012 	ldrh.w	r0, [r3, r2, lsl #1]
 800569c:	f7fc f826 	bl	80016ec <bbb_WaitSyncCond>
 80056a0:	4620      	mov	r0, r4
 80056a2:	e79f      	b.n	80055e4 <main+0x1d0>
 80056a4:	2b02      	cmp	r3, #2
 80056a6:	d001      	beq.n	80056ac <main+0x298>
 80056a8:	2b05      	cmp	r3, #5
 80056aa:	d1af      	bne.n	800560c <main+0x1f8>
 80056ac:	4620      	mov	r0, r4
 80056ae:	f000 f969 	bl	8005984 <PWMPulse>
 80056b2:	f7fc fad7 	bl	8001c64 <mo_SetSpeed>
 80056b6:	e7a9      	b.n	800560c <main+0x1f8>
 80056b8:	40011000 	.word	0x40011000
 80056bc:	41eccccd 	.word	0x41eccccd
 80056c0:	20000490 	.word	0x20000490
 80056c4:	40010800 	.word	0x40010800
 80056c8:	2000037c 	.word	0x2000037c
 80056cc:	20000370 	.word	0x20000370
 80056d0:	20000384 	.word	0x20000384
 80056d4:	20000071 	.word	0x20000071
 80056d8:	2000036c 	.word	0x2000036c
 80056dc:	20000368 	.word	0x20000368
 80056e0:	20000070 	.word	0x20000070
 80056e4:	20000072 	.word	0x20000072
 80056e8:	08006f90 	.word	0x08006f90
 80056ec:	20000074 	.word	0x20000074
 80056f0:	08006fb0 	.word	0x08006fb0
 80056f4:	20000310 	.word	0x20000310
 80056f8:	200004b0 	.word	0x200004b0
 80056fc:	200004ac 	.word	0x200004ac
 8005700:	200004a4 	.word	0x200004a4
 8005704:	42c7cccd 	.word	0x42c7cccd
 8005708:	0800520d 	.word	0x0800520d
 800570c:	08006fa4 	.word	0x08006fa4
 8005710:	08006fc4 	.word	0x08006fc4
 8005714:	c2c7cccd 	.word	0xc2c7cccd
 8005718:	0800522b 	.word	0x0800522b
 800571c:	08005249 	.word	0x08005249
 8005720:	20000108 	.word	0x20000108
 8005724:	20000104 	.word	0x20000104
 8005728:	20000100 	.word	0x20000100
 800572c:	683b      	ldr	r3, [r7, #0]
 800572e:	f8df b104 	ldr.w	fp, [pc, #260]	; 8005834 <main+0x420>
 8005732:	f993 301c 	ldrsb.w	r3, [r3, #28]
 8005736:	4f3d      	ldr	r7, [pc, #244]	; (800582c <main+0x418>)
 8005738:	2b02      	cmp	r3, #2
 800573a:	f8df 90fc 	ldr.w	r9, [pc, #252]	; 8005838 <main+0x424>
 800573e:	f8df a0fc 	ldr.w	sl, [pc, #252]	; 800583c <main+0x428>
 8005742:	d118      	bne.n	8005776 <main+0x362>
 8005744:	2164      	movs	r1, #100	; 0x64
 8005746:	2001      	movs	r0, #1
 8005748:	f7fb ffe0 	bl	800170c <bbb_Beep>
 800574c:	f898 2000 	ldrb.w	r2, [r8]
 8005750:	2a02      	cmp	r2, #2
 8005752:	d155      	bne.n	8005800 <main+0x3ec>
 8005754:	883a      	ldrh	r2, [r7, #0]
 8005756:	3201      	adds	r2, #1
 8005758:	803a      	strh	r2, [r7, #0]
 800575a:	2201      	movs	r2, #1
 800575c:	f889 2000 	strb.w	r2, [r9]
 8005760:	f7fc fc90 	bl	8002084 <HAL_GetTick>
 8005764:	2201      	movs	r2, #1
 8005766:	f500 65fa 	add.w	r5, r0, #2000	; 0x7d0
 800576a:	4620      	mov	r0, r4
 800576c:	7032      	strb	r2, [r6, #0]
 800576e:	f000 f909 	bl	8005984 <PWMPulse>
 8005772:	f7fc fa77 	bl	8001c64 <mo_SetSpeed>
 8005776:	4b2e      	ldr	r3, [pc, #184]	; (8005830 <main+0x41c>)
 8005778:	681a      	ldr	r2, [r3, #0]
 800577a:	f992 201c 	ldrsb.w	r2, [r2, #28]
 800577e:	2a02      	cmp	r2, #2
 8005780:	d118      	bne.n	80057b4 <main+0x3a0>
 8005782:	2164      	movs	r1, #100	; 0x64
 8005784:	2001      	movs	r0, #1
 8005786:	f7fb ffc1 	bl	800170c <bbb_Beep>
 800578a:	f898 2000 	ldrb.w	r2, [r8]
 800578e:	2a02      	cmp	r2, #2
 8005790:	d140      	bne.n	8005814 <main+0x400>
 8005792:	883a      	ldrh	r2, [r7, #0]
 8005794:	3a01      	subs	r2, #1
 8005796:	803a      	strh	r2, [r7, #0]
 8005798:	2201      	movs	r2, #1
 800579a:	f889 2000 	strb.w	r2, [r9]
 800579e:	f7fc fc71 	bl	8002084 <HAL_GetTick>
 80057a2:	2201      	movs	r2, #1
 80057a4:	f500 65fa 	add.w	r5, r0, #2000	; 0x7d0
 80057a8:	4620      	mov	r0, r4
 80057aa:	7032      	strb	r2, [r6, #0]
 80057ac:	f000 f8ea 	bl	8005984 <PWMPulse>
 80057b0:	f7fc fa58 	bl	8001c64 <mo_SetSpeed>
 80057b4:	883a      	ldrh	r2, [r7, #0]
 80057b6:	2a04      	cmp	r2, #4
 80057b8:	bf84      	itt	hi
 80057ba:	2204      	movhi	r2, #4
 80057bc:	803a      	strhhi	r2, [r7, #0]
 80057be:	f8bb 2000 	ldrh.w	r2, [fp]
 80057c2:	2a04      	cmp	r2, #4
 80057c4:	bf84      	itt	hi
 80057c6:	2204      	movhi	r2, #4
 80057c8:	f8ab 2000 	strhhi.w	r2, [fp]
 80057cc:	f89a 2000 	ldrb.w	r2, [sl]
 80057d0:	b142      	cbz	r2, 80057e4 <main+0x3d0>
 80057d2:	2200      	movs	r2, #0
 80057d4:	f241 1011 	movw	r0, #4369	; 0x1111
 80057d8:	f8bb 1000 	ldrh.w	r1, [fp]
 80057dc:	f88a 2000 	strb.w	r2, [sl]
 80057e0:	f7fb fea6 	bl	8001530 <EE_Write>
 80057e4:	f899 3000 	ldrb.w	r3, [r9]
 80057e8:	2b00      	cmp	r3, #0
 80057ea:	f43f af0f 	beq.w	800560c <main+0x1f8>
 80057ee:	2300      	movs	r3, #0
 80057f0:	8839      	ldrh	r1, [r7, #0]
 80057f2:	f242 2022 	movw	r0, #8738	; 0x2222
 80057f6:	f889 3000 	strb.w	r3, [r9]
 80057fa:	f7fb fe99 	bl	8001530 <EE_Write>
 80057fe:	e705      	b.n	800560c <main+0x1f8>
 8005800:	2a01      	cmp	r2, #1
 8005802:	bf01      	itttt	eq
 8005804:	f8bb 1000 	ldrheq.w	r1, [fp]
 8005808:	f88a 2000 	strbeq.w	r2, [sl]
 800580c:	3101      	addeq	r1, #1
 800580e:	f8ab 1000 	strheq.w	r1, [fp]
 8005812:	e7a5      	b.n	8005760 <main+0x34c>
 8005814:	2a01      	cmp	r2, #1
 8005816:	bf01      	itttt	eq
 8005818:	f8bb 1000 	ldrheq.w	r1, [fp]
 800581c:	f88a 2000 	strbeq.w	r2, [sl]
 8005820:	f101 31ff 	addeq.w	r1, r1, #4294967295
 8005824:	f8ab 1000 	strheq.w	r1, [fp]
 8005828:	e7b9      	b.n	800579e <main+0x38a>
 800582a:	bf00      	nop
 800582c:	20000072 	.word	0x20000072
 8005830:	200004ac 	.word	0x200004ac
 8005834:	20000074 	.word	0x20000074
 8005838:	20000311 	.word	0x20000311
 800583c:	20000312 	.word	0x20000312

08005840 <Error_Handler>:
 8005840:	4770      	bx	lr
	...

08005844 <HAL_MspInit>:
 8005844:	4b0e      	ldr	r3, [pc, #56]	; (8005880 <HAL_MspInit+0x3c>)
 8005846:	b082      	sub	sp, #8
 8005848:	699a      	ldr	r2, [r3, #24]
 800584a:	f042 0201 	orr.w	r2, r2, #1
 800584e:	619a      	str	r2, [r3, #24]
 8005850:	699a      	ldr	r2, [r3, #24]
 8005852:	f002 0201 	and.w	r2, r2, #1
 8005856:	9200      	str	r2, [sp, #0]
 8005858:	9a00      	ldr	r2, [sp, #0]
 800585a:	69da      	ldr	r2, [r3, #28]
 800585c:	f042 5280 	orr.w	r2, r2, #268435456	; 0x10000000
 8005860:	61da      	str	r2, [r3, #28]
 8005862:	69db      	ldr	r3, [r3, #28]
 8005864:	4a07      	ldr	r2, [pc, #28]	; (8005884 <HAL_MspInit+0x40>)
 8005866:	f003 5380 	and.w	r3, r3, #268435456	; 0x10000000
 800586a:	9301      	str	r3, [sp, #4]
 800586c:	9b01      	ldr	r3, [sp, #4]
 800586e:	6853      	ldr	r3, [r2, #4]
 8005870:	f023 63e0 	bic.w	r3, r3, #117440512	; 0x7000000
 8005874:	f043 7300 	orr.w	r3, r3, #33554432	; 0x2000000
 8005878:	6053      	str	r3, [r2, #4]
 800587a:	b002      	add	sp, #8
 800587c:	4770      	bx	lr
 800587e:	bf00      	nop
 8005880:	40021000 	.word	0x40021000
 8005884:	40010000 	.word	0x40010000

08005888 <NMI_Handler>:
 8005888:	4770      	bx	lr

0800588a <HardFault_Handler>:
 800588a:	e7fe      	b.n	800588a <HardFault_Handler>

0800588c <MemManage_Handler>:
 800588c:	e7fe      	b.n	800588c <MemManage_Handler>

0800588e <BusFault_Handler>:
 800588e:	e7fe      	b.n	800588e <BusFault_Handler>

08005890 <UsageFault_Handler>:
 8005890:	e7fe      	b.n	8005890 <UsageFault_Handler>

08005892 <SVC_Handler>:
 8005892:	4770      	bx	lr

08005894 <DebugMon_Handler>:
 8005894:	4770      	bx	lr

08005896 <PendSV_Handler>:
 8005896:	4770      	bx	lr

08005898 <SysTick_Handler>:
 8005898:	b508      	push	{r3, lr}
 800589a:	f7ff fd51 	bl	8005340 <TimerAction>
 800589e:	e8bd 4008 	ldmia.w	sp!, {r3, lr}
 80058a2:	f7fc bbe3 	b.w	800206c <HAL_IncTick>
	...

080058a8 <DMA1_Channel1_IRQHandler>:
 80058a8:	4801      	ldr	r0, [pc, #4]	; (80058b0 <DMA1_Channel1_IRQHandler+0x8>)
 80058aa:	f7fd b82b 	b.w	8002904 <HAL_DMA_IRQHandler>
 80058ae:	bf00      	nop
 80058b0:	200003b4 	.word	0x200003b4

080058b4 <DMA1_Channel6_IRQHandler>:
 80058b4:	4801      	ldr	r0, [pc, #4]	; (80058bc <DMA1_Channel6_IRQHandler+0x8>)
 80058b6:	f7fd b825 	b.w	8002904 <HAL_DMA_IRQHandler>
 80058ba:	bf00      	nop
 80058bc:	200003f8 	.word	0x200003f8

080058c0 <ADC1_2_IRQHandler>:
 80058c0:	4801      	ldr	r0, [pc, #4]	; (80058c8 <ADC1_2_IRQHandler+0x8>)
 80058c2:	f7fc bc25 	b.w	8002110 <HAL_ADC_IRQHandler>
 80058c6:	bf00      	nop
 80058c8:	20000384 	.word	0x20000384

080058cc <I2C1_EV_IRQHandler>:
 80058cc:	4801      	ldr	r0, [pc, #4]	; (80058d4 <I2C1_EV_IRQHandler+0x8>)
 80058ce:	f7fd bf6f 	b.w	80037b0 <HAL_I2C_EV_IRQHandler>
 80058d2:	bf00      	nop
 80058d4:	2000043c 	.word	0x2000043c

080058d8 <_read>:
 80058d8:	b570      	push	{r4, r5, r6, lr}
 80058da:	460e      	mov	r6, r1
 80058dc:	4614      	mov	r4, r2
 80058de:	2500      	movs	r5, #0
 80058e0:	42a5      	cmp	r5, r4
 80058e2:	db01      	blt.n	80058e8 <_read+0x10>
 80058e4:	4620      	mov	r0, r4
 80058e6:	bd70      	pop	{r4, r5, r6, pc}
 80058e8:	f3af 8000 	nop.w
 80058ec:	5570      	strb	r0, [r6, r5]
 80058ee:	3501      	adds	r5, #1
 80058f0:	e7f6      	b.n	80058e0 <_read+0x8>

080058f2 <_write>:
 80058f2:	b570      	push	{r4, r5, r6, lr}
 80058f4:	460e      	mov	r6, r1
 80058f6:	4614      	mov	r4, r2
 80058f8:	2500      	movs	r5, #0
 80058fa:	42a5      	cmp	r5, r4
 80058fc:	db01      	blt.n	8005902 <_write+0x10>
 80058fe:	4620      	mov	r0, r4
 8005900:	bd70      	pop	{r4, r5, r6, pc}
 8005902:	5d70      	ldrb	r0, [r6, r5]
 8005904:	f7ff fcb7 	bl	8005276 <__io_putchar>
 8005908:	3501      	adds	r5, #1
 800590a:	e7f6      	b.n	80058fa <_write+0x8>

0800590c <_close>:
 800590c:	f04f 30ff 	mov.w	r0, #4294967295
 8005910:	4770      	bx	lr

08005912 <_fstat>:
 8005912:	f44f 5300 	mov.w	r3, #8192	; 0x2000
 8005916:	2000      	movs	r0, #0
 8005918:	604b      	str	r3, [r1, #4]
 800591a:	4770      	bx	lr

0800591c <_isatty>:
 800591c:	2001      	movs	r0, #1
 800591e:	4770      	bx	lr

08005920 <_lseek>:
 8005920:	2000      	movs	r0, #0
 8005922:	4770      	bx	lr

08005924 <_sbrk>:
 8005924:	4b0b      	ldr	r3, [pc, #44]	; (8005954 <_sbrk+0x30>)
 8005926:	4602      	mov	r2, r0
 8005928:	6819      	ldr	r1, [r3, #0]
 800592a:	b510      	push	{r4, lr}
 800592c:	b909      	cbnz	r1, 8005932 <_sbrk+0xe>
 800592e:	490a      	ldr	r1, [pc, #40]	; (8005958 <_sbrk+0x34>)
 8005930:	6019      	str	r1, [r3, #0]
 8005932:	6818      	ldr	r0, [r3, #0]
 8005934:	4909      	ldr	r1, [pc, #36]	; (800595c <_sbrk+0x38>)
 8005936:	4c0a      	ldr	r4, [pc, #40]	; (8005960 <_sbrk+0x3c>)
 8005938:	4402      	add	r2, r0
 800593a:	1b09      	subs	r1, r1, r4
 800593c:	428a      	cmp	r2, r1
 800593e:	d906      	bls.n	800594e <_sbrk+0x2a>
 8005940:	f000 f996 	bl	8005c70 <__errno>
 8005944:	230c      	movs	r3, #12
 8005946:	6003      	str	r3, [r0, #0]
 8005948:	f04f 30ff 	mov.w	r0, #4294967295
 800594c:	bd10      	pop	{r4, pc}
 800594e:	601a      	str	r2, [r3, #0]
 8005950:	e7fc      	b.n	800594c <_sbrk+0x28>
 8005952:	bf00      	nop
 8005954:	20000314 	.word	0x20000314
 8005958:	20000558 	.word	0x20000558
 800595c:	20005000 	.word	0x20005000
 8005960:	00000400 	.word	0x00000400

08005964 <SystemInit>:
 8005964:	4770      	bx	lr
	...

08005968 <APB2TIM>:
 8005968:	b508      	push	{r3, lr}
 800596a:	f7fe fde9 	bl	8004540 <HAL_RCC_GetPCLK2Freq>
 800596e:	4b04      	ldr	r3, [pc, #16]	; (8005980 <APB2TIM+0x18>)
 8005970:	685b      	ldr	r3, [r3, #4]
 8005972:	08db      	lsrs	r3, r3, #3
 8005974:	f413 6fe0 	tst.w	r3, #1792	; 0x700
 8005978:	bf18      	it	ne
 800597a:	0040      	lslne	r0, r0, #1
 800597c:	bd08      	pop	{r3, pc}
 800597e:	bf00      	nop
 8005980:	40021000 	.word	0x40021000

08005984 <PWMPulse>:
 8005984:	b510      	push	{r4, lr}
 8005986:	490b      	ldr	r1, [pc, #44]	; (80059b4 <PWMPulse+0x30>)
 8005988:	4604      	mov	r4, r0
 800598a:	f7fb faff 	bl	8000f8c <__aeabi_fcmpgt>
 800598e:	b970      	cbnz	r0, 80059ae <PWMPulse+0x2a>
 8005990:	4620      	mov	r0, r4
 8005992:	4909      	ldr	r1, [pc, #36]	; (80059b8 <PWMPulse+0x34>)
 8005994:	f7fb fadc 	bl	8000f50 <__aeabi_fcmplt>
 8005998:	b100      	cbz	r0, 800599c <PWMPulse+0x18>
 800599a:	4c07      	ldr	r4, [pc, #28]	; (80059b8 <PWMPulse+0x34>)
 800599c:	f04f 4182 	mov.w	r1, #1090519040	; 0x41000000
 80059a0:	4620      	mov	r0, r4
 80059a2:	f7fb f937 	bl	8000c14 <__aeabi_fmul>
 80059a6:	f7fb fafb 	bl	8000fa0 <__aeabi_f2iz>
 80059aa:	b200      	sxth	r0, r0
 80059ac:	bd10      	pop	{r4, pc}
 80059ae:	4c01      	ldr	r4, [pc, #4]	; (80059b4 <PWMPulse+0x30>)
 80059b0:	e7f4      	b.n	800599c <PWMPulse+0x18>
 80059b2:	bf00      	nop
 80059b4:	42c80000 	.word	0x42c80000
 80059b8:	c2c80000 	.word	0xc2c80000

080059bc <m_MX_TIM3_Init>:
 80059bc:	b530      	push	{r4, r5, lr}
 80059be:	b08f      	sub	sp, #60	; 0x3c
 80059c0:	f7ff ffd2 	bl	8005968 <APB2TIM>
 80059c4:	4c2f      	ldr	r4, [pc, #188]	; (8005a84 <m_MX_TIM3_Init+0xc8>)
 80059c6:	2500      	movs	r5, #0
 80059c8:	fbb0 f4f4 	udiv	r4, r0, r4
 80059cc:	221c      	movs	r2, #28
 80059ce:	3c01      	subs	r4, #1
 80059d0:	2c80      	cmp	r4, #128	; 0x80
 80059d2:	4629      	mov	r1, r5
 80059d4:	eb0d 0002 	add.w	r0, sp, r2
 80059d8:	bf28      	it	cs
 80059da:	2480      	movcs	r4, #128	; 0x80
 80059dc:	e9cd 5501 	strd	r5, r5, [sp, #4]
 80059e0:	f000 f98a 	bl	8005cf8 <memset>
 80059e4:	4828      	ldr	r0, [pc, #160]	; (8005a88 <m_MX_TIM3_Init+0xcc>)
 80059e6:	4b29      	ldr	r3, [pc, #164]	; (8005a8c <m_MX_TIM3_Init+0xd0>)
 80059e8:	2c01      	cmp	r4, #1
 80059ea:	6003      	str	r3, [r0, #0]
 80059ec:	f44f 7348 	mov.w	r3, #800	; 0x320
 80059f0:	bf38      	it	cc
 80059f2:	2401      	movcc	r4, #1
 80059f4:	e9c0 3503 	strd	r3, r5, [r0, #12]
 80059f8:	2380      	movs	r3, #128	; 0x80
 80059fa:	e9c0 4501 	strd	r4, r5, [r0, #4]
 80059fe:	6183      	str	r3, [r0, #24]
 8005a00:	f7fe ffac 	bl	800495c <HAL_TIM_PWM_Init>
 8005a04:	b108      	cbz	r0, 8005a0a <m_MX_TIM3_Init+0x4e>
 8005a06:	f7ff ff1b 	bl	8005840 <Error_Handler>
 8005a0a:	2330      	movs	r3, #48	; 0x30
 8005a0c:	481e      	ldr	r0, [pc, #120]	; (8005a88 <m_MX_TIM3_Init+0xcc>)
 8005a0e:	a901      	add	r1, sp, #4
 8005a10:	e9cd 3501 	strd	r3, r5, [sp, #4]
 8005a14:	f7ff fa24 	bl	8004e60 <HAL_TIMEx_MasterConfigSynchronization>
 8005a18:	b108      	cbz	r0, 8005a1e <m_MX_TIM3_Init+0x62>
 8005a1a:	f7ff ff11 	bl	8005840 <Error_Handler>
 8005a1e:	2160      	movs	r1, #96	; 0x60
 8005a20:	f44f 73fa 	mov.w	r3, #500	; 0x1f4
 8005a24:	2200      	movs	r2, #0
 8005a26:	e9cd 1307 	strd	r1, r3, [sp, #28]
 8005a2a:	2304      	movs	r3, #4
 8005a2c:	4816      	ldr	r0, [pc, #88]	; (8005a88 <m_MX_TIM3_Init+0xcc>)
 8005a2e:	a907      	add	r1, sp, #28
 8005a30:	9209      	str	r2, [sp, #36]	; 0x24
 8005a32:	930b      	str	r3, [sp, #44]	; 0x2c
 8005a34:	f7fe ffea 	bl	8004a0c <HAL_TIM_PWM_ConfigChannel>
 8005a38:	b108      	cbz	r0, 8005a3e <m_MX_TIM3_Init+0x82>
 8005a3a:	f7ff ff01 	bl	8005840 <Error_Handler>
 8005a3e:	2204      	movs	r2, #4
 8005a40:	4811      	ldr	r0, [pc, #68]	; (8005a88 <m_MX_TIM3_Init+0xcc>)
 8005a42:	a907      	add	r1, sp, #28
 8005a44:	f7fe ffe2 	bl	8004a0c <HAL_TIM_PWM_ConfigChannel>
 8005a48:	b108      	cbz	r0, 8005a4e <m_MX_TIM3_Init+0x92>
 8005a4a:	f7ff fef9 	bl	8005840 <Error_Handler>
 8005a4e:	2300      	movs	r3, #0
 8005a50:	9305      	str	r3, [sp, #20]
 8005a52:	f103 4380 	add.w	r3, r3, #1073741824	; 0x40000000
 8005a56:	f503 3304 	add.w	r3, r3, #135168	; 0x21000
 8005a5a:	699a      	ldr	r2, [r3, #24]
 8005a5c:	480c      	ldr	r0, [pc, #48]	; (8005a90 <m_MX_TIM3_Init+0xd4>)
 8005a5e:	f042 0204 	orr.w	r2, r2, #4
 8005a62:	619a      	str	r2, [r3, #24]
 8005a64:	699b      	ldr	r3, [r3, #24]
 8005a66:	22c0      	movs	r2, #192	; 0xc0
 8005a68:	f003 0304 	and.w	r3, r3, #4
 8005a6c:	9300      	str	r3, [sp, #0]
 8005a6e:	9b00      	ldr	r3, [sp, #0]
 8005a70:	2302      	movs	r3, #2
 8005a72:	e9cd 2303 	strd	r2, r3, [sp, #12]
 8005a76:	2303      	movs	r3, #3
 8005a78:	a903      	add	r1, sp, #12
 8005a7a:	9306      	str	r3, [sp, #24]
 8005a7c:	f7fc ffd8 	bl	8002a30 <HAL_GPIO_Init>
 8005a80:	b00f      	add	sp, #60	; 0x3c
 8005a82:	bd30      	pop	{r4, r5, pc}
 8005a84:	007a1200 	.word	0x007a1200
 8005a88:	200004b8 	.word	0x200004b8
 8005a8c:	40000400 	.word	0x40000400
 8005a90:	40010800 	.word	0x40010800

08005a94 <HAL_TIM_PWM_MspInit>:
 8005a94:	6802      	ldr	r2, [r0, #0]
 8005a96:	4b08      	ldr	r3, [pc, #32]	; (8005ab8 <HAL_TIM_PWM_MspInit+0x24>)
 8005a98:	b082      	sub	sp, #8
 8005a9a:	429a      	cmp	r2, r3
 8005a9c:	d10a      	bne.n	8005ab4 <HAL_TIM_PWM_MspInit+0x20>
 8005a9e:	f503 3303 	add.w	r3, r3, #134144	; 0x20c00
 8005aa2:	69da      	ldr	r2, [r3, #28]
 8005aa4:	f042 0202 	orr.w	r2, r2, #2
 8005aa8:	61da      	str	r2, [r3, #28]
 8005aaa:	69db      	ldr	r3, [r3, #28]
 8005aac:	f003 0302 	and.w	r3, r3, #2
 8005ab0:	9301      	str	r3, [sp, #4]
 8005ab2:	9b01      	ldr	r3, [sp, #4]
 8005ab4:	b002      	add	sp, #8
 8005ab6:	4770      	bx	lr
 8005ab8:	40000400 	.word	0x40000400

08005abc <HAL_TIM_Base_MspInit>:
 8005abc:	6802      	ldr	r2, [r0, #0]
 8005abe:	4b08      	ldr	r3, [pc, #32]	; (8005ae0 <HAL_TIM_Base_MspInit+0x24>)
 8005ac0:	b082      	sub	sp, #8
 8005ac2:	429a      	cmp	r2, r3
 8005ac4:	d10a      	bne.n	8005adc <HAL_TIM_Base_MspInit+0x20>
 8005ac6:	f503 4364 	add.w	r3, r3, #58368	; 0xe400
 8005aca:	699a      	ldr	r2, [r3, #24]
 8005acc:	f442 6200 	orr.w	r2, r2, #2048	; 0x800
 8005ad0:	619a      	str	r2, [r3, #24]
 8005ad2:	699b      	ldr	r3, [r3, #24]
 8005ad4:	f403 6300 	and.w	r3, r3, #2048	; 0x800
 8005ad8:	9301      	str	r3, [sp, #4]
 8005ada:	9b01      	ldr	r3, [sp, #4]
 8005adc:	b002      	add	sp, #8
 8005ade:	4770      	bx	lr
 8005ae0:	40012c00 	.word	0x40012c00

08005ae4 <HAL_TIM_MspPostInit>:
 8005ae4:	b510      	push	{r4, lr}
 8005ae6:	4604      	mov	r4, r0
 8005ae8:	b086      	sub	sp, #24
 8005aea:	2210      	movs	r2, #16
 8005aec:	2100      	movs	r1, #0
 8005aee:	a802      	add	r0, sp, #8
 8005af0:	f000 f902 	bl	8005cf8 <memset>
 8005af4:	6822      	ldr	r2, [r4, #0]
 8005af6:	4b10      	ldr	r3, [pc, #64]	; (8005b38 <HAL_TIM_MspPostInit+0x54>)
 8005af8:	429a      	cmp	r2, r3
 8005afa:	d11b      	bne.n	8005b34 <HAL_TIM_MspPostInit+0x50>
 8005afc:	f503 4364 	add.w	r3, r3, #58368	; 0xe400
 8005b00:	699a      	ldr	r2, [r3, #24]
 8005b02:	480e      	ldr	r0, [pc, #56]	; (8005b3c <HAL_TIM_MspPostInit+0x58>)
 8005b04:	f042 0208 	orr.w	r2, r2, #8
 8005b08:	619a      	str	r2, [r3, #24]
 8005b0a:	699b      	ldr	r3, [r3, #24]
 8005b0c:	a902      	add	r1, sp, #8
 8005b0e:	f003 0308 	and.w	r3, r3, #8
 8005b12:	9301      	str	r3, [sp, #4]
 8005b14:	9b01      	ldr	r3, [sp, #4]
 8005b16:	2302      	movs	r3, #2
 8005b18:	e9cd 3302 	strd	r3, r3, [sp, #8]
 8005b1c:	9305      	str	r3, [sp, #20]
 8005b1e:	f7fc ff87 	bl	8002a30 <HAL_GPIO_Init>
 8005b22:	4a07      	ldr	r2, [pc, #28]	; (8005b40 <HAL_TIM_MspPostInit+0x5c>)
 8005b24:	6853      	ldr	r3, [r2, #4]
 8005b26:	f023 03c0 	bic.w	r3, r3, #192	; 0xc0
 8005b2a:	f043 63e0 	orr.w	r3, r3, #117440512	; 0x7000000
 8005b2e:	f043 0340 	orr.w	r3, r3, #64	; 0x40
 8005b32:	6053      	str	r3, [r2, #4]
 8005b34:	b006      	add	sp, #24
 8005b36:	bd10      	pop	{r4, pc}
 8005b38:	40012c00 	.word	0x40012c00
 8005b3c:	40010c00 	.word	0x40010c00
 8005b40:	40010000 	.word	0x40010000

08005b44 <MX_TIM1_Init>:
 8005b44:	b510      	push	{r4, lr}
 8005b46:	b096      	sub	sp, #88	; 0x58
 8005b48:	2210      	movs	r2, #16
 8005b4a:	2100      	movs	r1, #0
 8005b4c:	a803      	add	r0, sp, #12
 8005b4e:	f000 f8d3 	bl	8005cf8 <memset>
 8005b52:	2400      	movs	r4, #0
 8005b54:	221c      	movs	r2, #28
 8005b56:	4621      	mov	r1, r4
 8005b58:	eb0d 0002 	add.w	r0, sp, r2
 8005b5c:	e9cd 4401 	strd	r4, r4, [sp, #4]
 8005b60:	f000 f8ca 	bl	8005cf8 <memset>
 8005b64:	2220      	movs	r2, #32
 8005b66:	4621      	mov	r1, r4
 8005b68:	a80e      	add	r0, sp, #56	; 0x38
 8005b6a:	f000 f8c5 	bl	8005cf8 <memset>
 8005b6e:	2347      	movs	r3, #71	; 0x47
 8005b70:	482a      	ldr	r0, [pc, #168]	; (8005c1c <MX_TIM1_Init+0xd8>)
 8005b72:	f8df c0ac 	ldr.w	ip, [pc, #172]	; 8005c20 <MX_TIM1_Init+0xdc>
 8005b76:	e9c0 4405 	strd	r4, r4, [r0, #20]
 8005b7a:	e9c0 c300 	strd	ip, r3, [r0]
 8005b7e:	f240 33e7 	movw	r3, #999	; 0x3e7
 8005b82:	6084      	str	r4, [r0, #8]
 8005b84:	e9c0 3403 	strd	r3, r4, [r0, #12]
 8005b88:	f7fe febc 	bl	8004904 <HAL_TIM_Base_Init>
 8005b8c:	b108      	cbz	r0, 8005b92 <MX_TIM1_Init+0x4e>
 8005b8e:	f7ff fe57 	bl	8005840 <Error_Handler>
 8005b92:	f44f 5380 	mov.w	r3, #4096	; 0x1000
 8005b96:	4821      	ldr	r0, [pc, #132]	; (8005c1c <MX_TIM1_Init+0xd8>)
 8005b98:	a903      	add	r1, sp, #12
 8005b9a:	9303      	str	r3, [sp, #12]
 8005b9c:	f7fe ff9b 	bl	8004ad6 <HAL_TIM_ConfigClockSource>
 8005ba0:	b108      	cbz	r0, 8005ba6 <MX_TIM1_Init+0x62>
 8005ba2:	f7ff fe4d 	bl	8005840 <Error_Handler>
 8005ba6:	481d      	ldr	r0, [pc, #116]	; (8005c1c <MX_TIM1_Init+0xd8>)
 8005ba8:	f7fe fed8 	bl	800495c <HAL_TIM_PWM_Init>
 8005bac:	b108      	cbz	r0, 8005bb2 <MX_TIM1_Init+0x6e>
 8005bae:	f7ff fe47 	bl	8005840 <Error_Handler>
 8005bb2:	2130      	movs	r1, #48	; 0x30
 8005bb4:	2300      	movs	r3, #0
 8005bb6:	4819      	ldr	r0, [pc, #100]	; (8005c1c <MX_TIM1_Init+0xd8>)
 8005bb8:	e9cd 1301 	strd	r1, r3, [sp, #4]
 8005bbc:	a901      	add	r1, sp, #4
 8005bbe:	f7ff f94f 	bl	8004e60 <HAL_TIMEx_MasterConfigSynchronization>
 8005bc2:	b108      	cbz	r0, 8005bc8 <MX_TIM1_Init+0x84>
 8005bc4:	f7ff fe3c 	bl	8005840 <Error_Handler>
 8005bc8:	2260      	movs	r2, #96	; 0x60
 8005bca:	f240 13f3 	movw	r3, #499	; 0x1f3
 8005bce:	2400      	movs	r4, #0
 8005bd0:	e9cd 2307 	strd	r2, r3, [sp, #28]
 8005bd4:	2304      	movs	r3, #4
 8005bd6:	2208      	movs	r2, #8
 8005bd8:	4810      	ldr	r0, [pc, #64]	; (8005c1c <MX_TIM1_Init+0xd8>)
 8005bda:	a907      	add	r1, sp, #28
 8005bdc:	e9cd 4409 	strd	r4, r4, [sp, #36]	; 0x24
 8005be0:	e9cd 340b 	strd	r3, r4, [sp, #44]	; 0x2c
 8005be4:	940d      	str	r4, [sp, #52]	; 0x34
 8005be6:	f7fe ff11 	bl	8004a0c <HAL_TIM_PWM_ConfigChannel>
 8005bea:	b108      	cbz	r0, 8005bf0 <MX_TIM1_Init+0xac>
 8005bec:	f7ff fe28 	bl	8005840 <Error_Handler>
 8005bf0:	f44f 5300 	mov.w	r3, #8192	; 0x2000
 8005bf4:	4809      	ldr	r0, [pc, #36]	; (8005c1c <MX_TIM1_Init+0xd8>)
 8005bf6:	a90e      	add	r1, sp, #56	; 0x38
 8005bf8:	e9cd 440e 	strd	r4, r4, [sp, #56]	; 0x38
 8005bfc:	e9cd 4410 	strd	r4, r4, [sp, #64]	; 0x40
 8005c00:	9412      	str	r4, [sp, #72]	; 0x48
 8005c02:	9313      	str	r3, [sp, #76]	; 0x4c
 8005c04:	9415      	str	r4, [sp, #84]	; 0x54
 8005c06:	f7ff f959 	bl	8004ebc <HAL_TIMEx_ConfigBreakDeadTime>
 8005c0a:	b108      	cbz	r0, 8005c10 <MX_TIM1_Init+0xcc>
 8005c0c:	f7ff fe18 	bl	8005840 <Error_Handler>
 8005c10:	4802      	ldr	r0, [pc, #8]	; (8005c1c <MX_TIM1_Init+0xd8>)
 8005c12:	f7ff ff67 	bl	8005ae4 <HAL_TIM_MspPostInit>
 8005c16:	b016      	add	sp, #88	; 0x58
 8005c18:	bd10      	pop	{r4, pc}
 8005c1a:	bf00      	nop
 8005c1c:	20000500 	.word	0x20000500
 8005c20:	40012c00 	.word	0x40012c00

08005c24 <Reset_Handler>:
 8005c24:	2100      	movs	r1, #0
 8005c26:	e003      	b.n	8005c30 <LoopCopyDataInit>

08005c28 <CopyDataInit>:
 8005c28:	4b0b      	ldr	r3, [pc, #44]	; (8005c58 <LoopFillZerobss+0x14>)
 8005c2a:	585b      	ldr	r3, [r3, r1]
 8005c2c:	5043      	str	r3, [r0, r1]
 8005c2e:	3104      	adds	r1, #4

08005c30 <LoopCopyDataInit>:
 8005c30:	480a      	ldr	r0, [pc, #40]	; (8005c5c <LoopFillZerobss+0x18>)
 8005c32:	4b0b      	ldr	r3, [pc, #44]	; (8005c60 <LoopFillZerobss+0x1c>)
 8005c34:	1842      	adds	r2, r0, r1
 8005c36:	429a      	cmp	r2, r3
 8005c38:	d3f6      	bcc.n	8005c28 <CopyDataInit>
 8005c3a:	4a0a      	ldr	r2, [pc, #40]	; (8005c64 <LoopFillZerobss+0x20>)
 8005c3c:	e002      	b.n	8005c44 <LoopFillZerobss>

08005c3e <FillZerobss>:
 8005c3e:	2300      	movs	r3, #0
 8005c40:	f842 3b04 	str.w	r3, [r2], #4

08005c44 <LoopFillZerobss>:
 8005c44:	4b08      	ldr	r3, [pc, #32]	; (8005c68 <LoopFillZerobss+0x24>)
 8005c46:	429a      	cmp	r2, r3
 8005c48:	d3f9      	bcc.n	8005c3e <FillZerobss>
 8005c4a:	f7ff fe8b 	bl	8005964 <SystemInit>
 8005c4e:	f000 f815 	bl	8005c7c <__libc_init_array>
 8005c52:	f7ff fbdf 	bl	8005414 <main>
 8005c56:	4770      	bx	lr
 8005c58:	0800707c 	.word	0x0800707c
 8005c5c:	20000000 	.word	0x20000000
 8005c60:	200000e0 	.word	0x200000e0
 8005c64:	200000e0 	.word	0x200000e0
 8005c68:	20000558 	.word	0x20000558

08005c6c <CAN1_RX1_IRQHandler>:
 8005c6c:	e7fe      	b.n	8005c6c <CAN1_RX1_IRQHandler>
	...

08005c70 <__errno>:
 8005c70:	4b01      	ldr	r3, [pc, #4]	; (8005c78 <__errno+0x8>)
 8005c72:	6818      	ldr	r0, [r3, #0]
 8005c74:	4770      	bx	lr
 8005c76:	bf00      	nop
 8005c78:	2000007c 	.word	0x2000007c

08005c7c <__libc_init_array>:
 8005c7c:	b570      	push	{r4, r5, r6, lr}
 8005c7e:	2600      	movs	r6, #0
 8005c80:	4d0c      	ldr	r5, [pc, #48]	; (8005cb4 <__libc_init_array+0x38>)
 8005c82:	4c0d      	ldr	r4, [pc, #52]	; (8005cb8 <__libc_init_array+0x3c>)
 8005c84:	1b64      	subs	r4, r4, r5
 8005c86:	10a4      	asrs	r4, r4, #2
 8005c88:	42a6      	cmp	r6, r4
 8005c8a:	d109      	bne.n	8005ca0 <__libc_init_array+0x24>
 8005c8c:	f000 fd58 	bl	8006740 <_init>
 8005c90:	2600      	movs	r6, #0
 8005c92:	4d0a      	ldr	r5, [pc, #40]	; (8005cbc <__libc_init_array+0x40>)
 8005c94:	4c0a      	ldr	r4, [pc, #40]	; (8005cc0 <__libc_init_array+0x44>)
 8005c96:	1b64      	subs	r4, r4, r5
 8005c98:	10a4      	asrs	r4, r4, #2
 8005c9a:	42a6      	cmp	r6, r4
 8005c9c:	d105      	bne.n	8005caa <__libc_init_array+0x2e>
 8005c9e:	bd70      	pop	{r4, r5, r6, pc}
 8005ca0:	f855 3b04 	ldr.w	r3, [r5], #4
 8005ca4:	4798      	blx	r3
 8005ca6:	3601      	adds	r6, #1
 8005ca8:	e7ee      	b.n	8005c88 <__libc_init_array+0xc>
 8005caa:	f855 3b04 	ldr.w	r3, [r5], #4
 8005cae:	4798      	blx	r3
 8005cb0:	3601      	adds	r6, #1
 8005cb2:	e7f2      	b.n	8005c9a <__libc_init_array+0x1e>
 8005cb4:	08007074 	.word	0x08007074
 8005cb8:	08007074 	.word	0x08007074
 8005cbc:	08007074 	.word	0x08007074
 8005cc0:	08007078 	.word	0x08007078

08005cc4 <__itoa>:
 8005cc4:	1e93      	subs	r3, r2, #2
 8005cc6:	2b22      	cmp	r3, #34	; 0x22
 8005cc8:	b510      	push	{r4, lr}
 8005cca:	460c      	mov	r4, r1
 8005ccc:	d904      	bls.n	8005cd8 <__itoa+0x14>
 8005cce:	2300      	movs	r3, #0
 8005cd0:	461c      	mov	r4, r3
 8005cd2:	700b      	strb	r3, [r1, #0]
 8005cd4:	4620      	mov	r0, r4
 8005cd6:	bd10      	pop	{r4, pc}
 8005cd8:	2a0a      	cmp	r2, #10
 8005cda:	d109      	bne.n	8005cf0 <__itoa+0x2c>
 8005cdc:	2800      	cmp	r0, #0
 8005cde:	da07      	bge.n	8005cf0 <__itoa+0x2c>
 8005ce0:	232d      	movs	r3, #45	; 0x2d
 8005ce2:	700b      	strb	r3, [r1, #0]
 8005ce4:	2101      	movs	r1, #1
 8005ce6:	4240      	negs	r0, r0
 8005ce8:	4421      	add	r1, r4
 8005cea:	f000 f89b 	bl	8005e24 <__utoa>
 8005cee:	e7f1      	b.n	8005cd4 <__itoa+0x10>
 8005cf0:	2100      	movs	r1, #0
 8005cf2:	e7f9      	b.n	8005ce8 <__itoa+0x24>

08005cf4 <itoa>:
 8005cf4:	f7ff bfe6 	b.w	8005cc4 <__itoa>

08005cf8 <memset>:
 8005cf8:	4603      	mov	r3, r0
 8005cfa:	4402      	add	r2, r0
 8005cfc:	4293      	cmp	r3, r2
 8005cfe:	d100      	bne.n	8005d02 <memset+0xa>
 8005d00:	4770      	bx	lr
 8005d02:	f803 1b01 	strb.w	r1, [r3], #1
 8005d06:	e7f9      	b.n	8005cfc <memset+0x4>

08005d08 <_puts_r>:
 8005d08:	b570      	push	{r4, r5, r6, lr}
 8005d0a:	460e      	mov	r6, r1
 8005d0c:	4605      	mov	r5, r0
 8005d0e:	b118      	cbz	r0, 8005d18 <_puts_r+0x10>
 8005d10:	6983      	ldr	r3, [r0, #24]
 8005d12:	b90b      	cbnz	r3, 8005d18 <_puts_r+0x10>
 8005d14:	f000 faa2 	bl	800625c <__sinit>
 8005d18:	69ab      	ldr	r3, [r5, #24]
 8005d1a:	68ac      	ldr	r4, [r5, #8]
 8005d1c:	b913      	cbnz	r3, 8005d24 <_puts_r+0x1c>
 8005d1e:	4628      	mov	r0, r5
 8005d20:	f000 fa9c 	bl	800625c <__sinit>
 8005d24:	4b2c      	ldr	r3, [pc, #176]	; (8005dd8 <_puts_r+0xd0>)
 8005d26:	429c      	cmp	r4, r3
 8005d28:	d120      	bne.n	8005d6c <_puts_r+0x64>
 8005d2a:	686c      	ldr	r4, [r5, #4]
 8005d2c:	6e63      	ldr	r3, [r4, #100]	; 0x64
 8005d2e:	07db      	lsls	r3, r3, #31
 8005d30:	d405      	bmi.n	8005d3e <_puts_r+0x36>
 8005d32:	89a3      	ldrh	r3, [r4, #12]
 8005d34:	0598      	lsls	r0, r3, #22
 8005d36:	d402      	bmi.n	8005d3e <_puts_r+0x36>
 8005d38:	6da0      	ldr	r0, [r4, #88]	; 0x58
 8005d3a:	f000 fb2d 	bl	8006398 <__retarget_lock_acquire_recursive>
 8005d3e:	89a3      	ldrh	r3, [r4, #12]
 8005d40:	0719      	lsls	r1, r3, #28
 8005d42:	d51d      	bpl.n	8005d80 <_puts_r+0x78>
 8005d44:	6923      	ldr	r3, [r4, #16]
 8005d46:	b1db      	cbz	r3, 8005d80 <_puts_r+0x78>
 8005d48:	3e01      	subs	r6, #1
 8005d4a:	68a3      	ldr	r3, [r4, #8]
 8005d4c:	f816 1f01 	ldrb.w	r1, [r6, #1]!
 8005d50:	3b01      	subs	r3, #1
 8005d52:	60a3      	str	r3, [r4, #8]
 8005d54:	bb39      	cbnz	r1, 8005da6 <_puts_r+0x9e>
 8005d56:	2b00      	cmp	r3, #0
 8005d58:	da38      	bge.n	8005dcc <_puts_r+0xc4>
 8005d5a:	4622      	mov	r2, r4
 8005d5c:	210a      	movs	r1, #10
 8005d5e:	4628      	mov	r0, r5
 8005d60:	f000 f8a2 	bl	8005ea8 <__swbuf_r>
 8005d64:	3001      	adds	r0, #1
 8005d66:	d011      	beq.n	8005d8c <_puts_r+0x84>
 8005d68:	250a      	movs	r5, #10
 8005d6a:	e011      	b.n	8005d90 <_puts_r+0x88>
 8005d6c:	4b1b      	ldr	r3, [pc, #108]	; (8005ddc <_puts_r+0xd4>)
 8005d6e:	429c      	cmp	r4, r3
 8005d70:	d101      	bne.n	8005d76 <_puts_r+0x6e>
 8005d72:	68ac      	ldr	r4, [r5, #8]
 8005d74:	e7da      	b.n	8005d2c <_puts_r+0x24>
 8005d76:	4b1a      	ldr	r3, [pc, #104]	; (8005de0 <_puts_r+0xd8>)
 8005d78:	429c      	cmp	r4, r3
 8005d7a:	bf08      	it	eq
 8005d7c:	68ec      	ldreq	r4, [r5, #12]
 8005d7e:	e7d5      	b.n	8005d2c <_puts_r+0x24>
 8005d80:	4621      	mov	r1, r4
 8005d82:	4628      	mov	r0, r5
 8005d84:	f000 f8e2 	bl	8005f4c <__swsetup_r>
 8005d88:	2800      	cmp	r0, #0
 8005d8a:	d0dd      	beq.n	8005d48 <_puts_r+0x40>
 8005d8c:	f04f 35ff 	mov.w	r5, #4294967295
 8005d90:	6e63      	ldr	r3, [r4, #100]	; 0x64
 8005d92:	07da      	lsls	r2, r3, #31
 8005d94:	d405      	bmi.n	8005da2 <_puts_r+0x9a>
 8005d96:	89a3      	ldrh	r3, [r4, #12]
 8005d98:	059b      	lsls	r3, r3, #22
 8005d9a:	d402      	bmi.n	8005da2 <_puts_r+0x9a>
 8005d9c:	6da0      	ldr	r0, [r4, #88]	; 0x58
 8005d9e:	f000 fafc 	bl	800639a <__retarget_lock_release_recursive>
 8005da2:	4628      	mov	r0, r5
 8005da4:	bd70      	pop	{r4, r5, r6, pc}
 8005da6:	2b00      	cmp	r3, #0
 8005da8:	da04      	bge.n	8005db4 <_puts_r+0xac>
 8005daa:	69a2      	ldr	r2, [r4, #24]
 8005dac:	429a      	cmp	r2, r3
 8005dae:	dc06      	bgt.n	8005dbe <_puts_r+0xb6>
 8005db0:	290a      	cmp	r1, #10
 8005db2:	d004      	beq.n	8005dbe <_puts_r+0xb6>
 8005db4:	6823      	ldr	r3, [r4, #0]
 8005db6:	1c5a      	adds	r2, r3, #1
 8005db8:	6022      	str	r2, [r4, #0]
 8005dba:	7019      	strb	r1, [r3, #0]
 8005dbc:	e7c5      	b.n	8005d4a <_puts_r+0x42>
 8005dbe:	4622      	mov	r2, r4
 8005dc0:	4628      	mov	r0, r5
 8005dc2:	f000 f871 	bl	8005ea8 <__swbuf_r>
 8005dc6:	3001      	adds	r0, #1
 8005dc8:	d1bf      	bne.n	8005d4a <_puts_r+0x42>
 8005dca:	e7df      	b.n	8005d8c <_puts_r+0x84>
 8005dcc:	250a      	movs	r5, #10
 8005dce:	6823      	ldr	r3, [r4, #0]
 8005dd0:	1c5a      	adds	r2, r3, #1
 8005dd2:	6022      	str	r2, [r4, #0]
 8005dd4:	701d      	strb	r5, [r3, #0]
 8005dd6:	e7db      	b.n	8005d90 <_puts_r+0x88>
 8005dd8:	08007034 	.word	0x08007034
 8005ddc:	08007054 	.word	0x08007054
 8005de0:	08007014 	.word	0x08007014

08005de4 <puts>:
 8005de4:	4b02      	ldr	r3, [pc, #8]	; (8005df0 <puts+0xc>)
 8005de6:	4601      	mov	r1, r0
 8005de8:	6818      	ldr	r0, [r3, #0]
 8005dea:	f7ff bf8d 	b.w	8005d08 <_puts_r>
 8005dee:	bf00      	nop
 8005df0:	2000007c 	.word	0x2000007c

08005df4 <strcat>:
 8005df4:	4602      	mov	r2, r0
 8005df6:	b510      	push	{r4, lr}
 8005df8:	7814      	ldrb	r4, [r2, #0]
 8005dfa:	4613      	mov	r3, r2
 8005dfc:	3201      	adds	r2, #1
 8005dfe:	2c00      	cmp	r4, #0
 8005e00:	d1fa      	bne.n	8005df8 <strcat+0x4>
 8005e02:	3b01      	subs	r3, #1
 8005e04:	f811 2b01 	ldrb.w	r2, [r1], #1
 8005e08:	f803 2f01 	strb.w	r2, [r3, #1]!
 8005e0c:	2a00      	cmp	r2, #0
 8005e0e:	d1f9      	bne.n	8005e04 <strcat+0x10>
 8005e10:	bd10      	pop	{r4, pc}

08005e12 <strcpy>:
 8005e12:	4603      	mov	r3, r0
 8005e14:	f811 2b01 	ldrb.w	r2, [r1], #1
 8005e18:	f803 2b01 	strb.w	r2, [r3], #1
 8005e1c:	2a00      	cmp	r2, #0
 8005e1e:	d1f9      	bne.n	8005e14 <strcpy+0x2>
 8005e20:	4770      	bx	lr
	...

08005e24 <__utoa>:
 8005e24:	b5f0      	push	{r4, r5, r6, r7, lr}
 8005e26:	b08b      	sub	sp, #44	; 0x2c
 8005e28:	4605      	mov	r5, r0
 8005e2a:	460b      	mov	r3, r1
 8005e2c:	466e      	mov	r6, sp
 8005e2e:	4c1d      	ldr	r4, [pc, #116]	; (8005ea4 <__utoa+0x80>)
 8005e30:	f104 0c20 	add.w	ip, r4, #32
 8005e34:	4637      	mov	r7, r6
 8005e36:	6820      	ldr	r0, [r4, #0]
 8005e38:	6861      	ldr	r1, [r4, #4]
 8005e3a:	3408      	adds	r4, #8
 8005e3c:	c703      	stmia	r7!, {r0, r1}
 8005e3e:	4564      	cmp	r4, ip
 8005e40:	463e      	mov	r6, r7
 8005e42:	d1f7      	bne.n	8005e34 <__utoa+0x10>
 8005e44:	7921      	ldrb	r1, [r4, #4]
 8005e46:	6820      	ldr	r0, [r4, #0]
 8005e48:	7139      	strb	r1, [r7, #4]
 8005e4a:	1e91      	subs	r1, r2, #2
 8005e4c:	2922      	cmp	r1, #34	; 0x22
 8005e4e:	6038      	str	r0, [r7, #0]
 8005e50:	f04f 0100 	mov.w	r1, #0
 8005e54:	d904      	bls.n	8005e60 <__utoa+0x3c>
 8005e56:	7019      	strb	r1, [r3, #0]
 8005e58:	460b      	mov	r3, r1
 8005e5a:	4618      	mov	r0, r3
 8005e5c:	b00b      	add	sp, #44	; 0x2c
 8005e5e:	bdf0      	pop	{r4, r5, r6, r7, pc}
 8005e60:	1e58      	subs	r0, r3, #1
 8005e62:	4684      	mov	ip, r0
 8005e64:	fbb5 f7f2 	udiv	r7, r5, r2
 8005e68:	fb02 5617 	mls	r6, r2, r7, r5
 8005e6c:	f10d 0e28 	add.w	lr, sp, #40	; 0x28
 8005e70:	4476      	add	r6, lr
 8005e72:	f816 6c28 	ldrb.w	r6, [r6, #-40]
 8005e76:	460c      	mov	r4, r1
 8005e78:	f80c 6f01 	strb.w	r6, [ip, #1]!
 8005e7c:	462e      	mov	r6, r5
 8005e7e:	42b2      	cmp	r2, r6
 8005e80:	463d      	mov	r5, r7
 8005e82:	f101 0101 	add.w	r1, r1, #1
 8005e86:	d9ed      	bls.n	8005e64 <__utoa+0x40>
 8005e88:	2200      	movs	r2, #0
 8005e8a:	545a      	strb	r2, [r3, r1]
 8005e8c:	1919      	adds	r1, r3, r4
 8005e8e:	1aa5      	subs	r5, r4, r2
 8005e90:	42aa      	cmp	r2, r5
 8005e92:	dae2      	bge.n	8005e5a <__utoa+0x36>
 8005e94:	f810 5f01 	ldrb.w	r5, [r0, #1]!
 8005e98:	780e      	ldrb	r6, [r1, #0]
 8005e9a:	3201      	adds	r2, #1
 8005e9c:	7006      	strb	r6, [r0, #0]
 8005e9e:	f801 5901 	strb.w	r5, [r1], #-1
 8005ea2:	e7f4      	b.n	8005e8e <__utoa+0x6a>
 8005ea4:	08006fec 	.word	0x08006fec

08005ea8 <__swbuf_r>:
 8005ea8:	b5f8      	push	{r3, r4, r5, r6, r7, lr}
 8005eaa:	460e      	mov	r6, r1
 8005eac:	4614      	mov	r4, r2
 8005eae:	4605      	mov	r5, r0
 8005eb0:	b118      	cbz	r0, 8005eba <__swbuf_r+0x12>
 8005eb2:	6983      	ldr	r3, [r0, #24]
 8005eb4:	b90b      	cbnz	r3, 8005eba <__swbuf_r+0x12>
 8005eb6:	f000 f9d1 	bl	800625c <__sinit>
 8005eba:	4b21      	ldr	r3, [pc, #132]	; (8005f40 <__swbuf_r+0x98>)
 8005ebc:	429c      	cmp	r4, r3
 8005ebe:	d12b      	bne.n	8005f18 <__swbuf_r+0x70>
 8005ec0:	686c      	ldr	r4, [r5, #4]
 8005ec2:	69a3      	ldr	r3, [r4, #24]
 8005ec4:	60a3      	str	r3, [r4, #8]
 8005ec6:	89a3      	ldrh	r3, [r4, #12]
 8005ec8:	071a      	lsls	r2, r3, #28
 8005eca:	d52f      	bpl.n	8005f2c <__swbuf_r+0x84>
 8005ecc:	6923      	ldr	r3, [r4, #16]
 8005ece:	b36b      	cbz	r3, 8005f2c <__swbuf_r+0x84>
 8005ed0:	6923      	ldr	r3, [r4, #16]
 8005ed2:	6820      	ldr	r0, [r4, #0]
 8005ed4:	b2f6      	uxtb	r6, r6
 8005ed6:	1ac0      	subs	r0, r0, r3
 8005ed8:	6963      	ldr	r3, [r4, #20]
 8005eda:	4637      	mov	r7, r6
 8005edc:	4283      	cmp	r3, r0
 8005ede:	dc04      	bgt.n	8005eea <__swbuf_r+0x42>
 8005ee0:	4621      	mov	r1, r4
 8005ee2:	4628      	mov	r0, r5
 8005ee4:	f000 f926 	bl	8006134 <_fflush_r>
 8005ee8:	bb30      	cbnz	r0, 8005f38 <__swbuf_r+0x90>
 8005eea:	68a3      	ldr	r3, [r4, #8]
 8005eec:	3001      	adds	r0, #1
 8005eee:	3b01      	subs	r3, #1
 8005ef0:	60a3      	str	r3, [r4, #8]
 8005ef2:	6823      	ldr	r3, [r4, #0]
 8005ef4:	1c5a      	adds	r2, r3, #1
 8005ef6:	6022      	str	r2, [r4, #0]
 8005ef8:	701e      	strb	r6, [r3, #0]
 8005efa:	6963      	ldr	r3, [r4, #20]
 8005efc:	4283      	cmp	r3, r0
 8005efe:	d004      	beq.n	8005f0a <__swbuf_r+0x62>
 8005f00:	89a3      	ldrh	r3, [r4, #12]
 8005f02:	07db      	lsls	r3, r3, #31
 8005f04:	d506      	bpl.n	8005f14 <__swbuf_r+0x6c>
 8005f06:	2e0a      	cmp	r6, #10
 8005f08:	d104      	bne.n	8005f14 <__swbuf_r+0x6c>
 8005f0a:	4621      	mov	r1, r4
 8005f0c:	4628      	mov	r0, r5
 8005f0e:	f000 f911 	bl	8006134 <_fflush_r>
 8005f12:	b988      	cbnz	r0, 8005f38 <__swbuf_r+0x90>
 8005f14:	4638      	mov	r0, r7
 8005f16:	bdf8      	pop	{r3, r4, r5, r6, r7, pc}
 8005f18:	4b0a      	ldr	r3, [pc, #40]	; (8005f44 <__swbuf_r+0x9c>)
 8005f1a:	429c      	cmp	r4, r3
 8005f1c:	d101      	bne.n	8005f22 <__swbuf_r+0x7a>
 8005f1e:	68ac      	ldr	r4, [r5, #8]
 8005f20:	e7cf      	b.n	8005ec2 <__swbuf_r+0x1a>
 8005f22:	4b09      	ldr	r3, [pc, #36]	; (8005f48 <__swbuf_r+0xa0>)
 8005f24:	429c      	cmp	r4, r3
 8005f26:	bf08      	it	eq
 8005f28:	68ec      	ldreq	r4, [r5, #12]
 8005f2a:	e7ca      	b.n	8005ec2 <__swbuf_r+0x1a>
 8005f2c:	4621      	mov	r1, r4
 8005f2e:	4628      	mov	r0, r5
 8005f30:	f000 f80c 	bl	8005f4c <__swsetup_r>
 8005f34:	2800      	cmp	r0, #0
 8005f36:	d0cb      	beq.n	8005ed0 <__swbuf_r+0x28>
 8005f38:	f04f 37ff 	mov.w	r7, #4294967295
 8005f3c:	e7ea      	b.n	8005f14 <__swbuf_r+0x6c>
 8005f3e:	bf00      	nop
 8005f40:	08007034 	.word	0x08007034
 8005f44:	08007054 	.word	0x08007054
 8005f48:	08007014 	.word	0x08007014

08005f4c <__swsetup_r>:
 8005f4c:	4b32      	ldr	r3, [pc, #200]	; (8006018 <__swsetup_r+0xcc>)
 8005f4e:	b570      	push	{r4, r5, r6, lr}
 8005f50:	681d      	ldr	r5, [r3, #0]
 8005f52:	4606      	mov	r6, r0
 8005f54:	460c      	mov	r4, r1
 8005f56:	b125      	cbz	r5, 8005f62 <__swsetup_r+0x16>
 8005f58:	69ab      	ldr	r3, [r5, #24]
 8005f5a:	b913      	cbnz	r3, 8005f62 <__swsetup_r+0x16>
 8005f5c:	4628      	mov	r0, r5
 8005f5e:	f000 f97d 	bl	800625c <__sinit>
 8005f62:	4b2e      	ldr	r3, [pc, #184]	; (800601c <__swsetup_r+0xd0>)
 8005f64:	429c      	cmp	r4, r3
 8005f66:	d10f      	bne.n	8005f88 <__swsetup_r+0x3c>
 8005f68:	686c      	ldr	r4, [r5, #4]
 8005f6a:	89a3      	ldrh	r3, [r4, #12]
 8005f6c:	f9b4 200c 	ldrsh.w	r2, [r4, #12]
 8005f70:	0719      	lsls	r1, r3, #28
 8005f72:	d42c      	bmi.n	8005fce <__swsetup_r+0x82>
 8005f74:	06dd      	lsls	r5, r3, #27
 8005f76:	d411      	bmi.n	8005f9c <__swsetup_r+0x50>
 8005f78:	2309      	movs	r3, #9
 8005f7a:	6033      	str	r3, [r6, #0]
 8005f7c:	f042 0340 	orr.w	r3, r2, #64	; 0x40
 8005f80:	f04f 30ff 	mov.w	r0, #4294967295
 8005f84:	81a3      	strh	r3, [r4, #12]
 8005f86:	e03e      	b.n	8006006 <__swsetup_r+0xba>
 8005f88:	4b25      	ldr	r3, [pc, #148]	; (8006020 <__swsetup_r+0xd4>)
 8005f8a:	429c      	cmp	r4, r3
 8005f8c:	d101      	bne.n	8005f92 <__swsetup_r+0x46>
 8005f8e:	68ac      	ldr	r4, [r5, #8]
 8005f90:	e7eb      	b.n	8005f6a <__swsetup_r+0x1e>
 8005f92:	4b24      	ldr	r3, [pc, #144]	; (8006024 <__swsetup_r+0xd8>)
 8005f94:	429c      	cmp	r4, r3
 8005f96:	bf08      	it	eq
 8005f98:	68ec      	ldreq	r4, [r5, #12]
 8005f9a:	e7e6      	b.n	8005f6a <__swsetup_r+0x1e>
 8005f9c:	0758      	lsls	r0, r3, #29
 8005f9e:	d512      	bpl.n	8005fc6 <__swsetup_r+0x7a>
 8005fa0:	6b61      	ldr	r1, [r4, #52]	; 0x34
 8005fa2:	b141      	cbz	r1, 8005fb6 <__swsetup_r+0x6a>
 8005fa4:	f104 0344 	add.w	r3, r4, #68	; 0x44
 8005fa8:	4299      	cmp	r1, r3
 8005faa:	d002      	beq.n	8005fb2 <__swsetup_r+0x66>
 8005fac:	4630      	mov	r0, r6
 8005fae:	f000 fa59 	bl	8006464 <_free_r>
 8005fb2:	2300      	movs	r3, #0
 8005fb4:	6363      	str	r3, [r4, #52]	; 0x34
 8005fb6:	89a3      	ldrh	r3, [r4, #12]
 8005fb8:	f023 0324 	bic.w	r3, r3, #36	; 0x24
 8005fbc:	81a3      	strh	r3, [r4, #12]
 8005fbe:	2300      	movs	r3, #0
 8005fc0:	6063      	str	r3, [r4, #4]
 8005fc2:	6923      	ldr	r3, [r4, #16]
 8005fc4:	6023      	str	r3, [r4, #0]
 8005fc6:	89a3      	ldrh	r3, [r4, #12]
 8005fc8:	f043 0308 	orr.w	r3, r3, #8
 8005fcc:	81a3      	strh	r3, [r4, #12]
 8005fce:	6923      	ldr	r3, [r4, #16]
 8005fd0:	b94b      	cbnz	r3, 8005fe6 <__swsetup_r+0x9a>
 8005fd2:	89a3      	ldrh	r3, [r4, #12]
 8005fd4:	f403 7320 	and.w	r3, r3, #640	; 0x280
 8005fd8:	f5b3 7f00 	cmp.w	r3, #512	; 0x200
 8005fdc:	d003      	beq.n	8005fe6 <__swsetup_r+0x9a>
 8005fde:	4621      	mov	r1, r4
 8005fe0:	4630      	mov	r0, r6
 8005fe2:	f000 f9ff 	bl	80063e4 <__smakebuf_r>
 8005fe6:	89a0      	ldrh	r0, [r4, #12]
 8005fe8:	f9b4 200c 	ldrsh.w	r2, [r4, #12]
 8005fec:	f010 0301 	ands.w	r3, r0, #1
 8005ff0:	d00a      	beq.n	8006008 <__swsetup_r+0xbc>
 8005ff2:	2300      	movs	r3, #0
 8005ff4:	60a3      	str	r3, [r4, #8]
 8005ff6:	6963      	ldr	r3, [r4, #20]
 8005ff8:	425b      	negs	r3, r3
 8005ffa:	61a3      	str	r3, [r4, #24]
 8005ffc:	6923      	ldr	r3, [r4, #16]
 8005ffe:	b943      	cbnz	r3, 8006012 <__swsetup_r+0xc6>
 8006000:	f010 0080 	ands.w	r0, r0, #128	; 0x80
 8006004:	d1ba      	bne.n	8005f7c <__swsetup_r+0x30>
 8006006:	bd70      	pop	{r4, r5, r6, pc}
 8006008:	0781      	lsls	r1, r0, #30
 800600a:	bf58      	it	pl
 800600c:	6963      	ldrpl	r3, [r4, #20]
 800600e:	60a3      	str	r3, [r4, #8]
 8006010:	e7f4      	b.n	8005ffc <__swsetup_r+0xb0>
 8006012:	2000      	movs	r0, #0
 8006014:	e7f7      	b.n	8006006 <__swsetup_r+0xba>
 8006016:	bf00      	nop
 8006018:	2000007c 	.word	0x2000007c
 800601c:	08007034 	.word	0x08007034
 8006020:	08007054 	.word	0x08007054
 8006024:	08007014 	.word	0x08007014

08006028 <__sflush_r>:
 8006028:	898a      	ldrh	r2, [r1, #12]
 800602a:	e92d 41f0 	stmdb	sp!, {r4, r5, r6, r7, r8, lr}
 800602e:	4605      	mov	r5, r0
 8006030:	0710      	lsls	r0, r2, #28
 8006032:	460c      	mov	r4, r1
 8006034:	d458      	bmi.n	80060e8 <__sflush_r+0xc0>
 8006036:	684b      	ldr	r3, [r1, #4]
 8006038:	2b00      	cmp	r3, #0
 800603a:	dc05      	bgt.n	8006048 <__sflush_r+0x20>
 800603c:	6c0b      	ldr	r3, [r1, #64]	; 0x40
 800603e:	2b00      	cmp	r3, #0
 8006040:	dc02      	bgt.n	8006048 <__sflush_r+0x20>
 8006042:	2000      	movs	r0, #0
 8006044:	e8bd 81f0 	ldmia.w	sp!, {r4, r5, r6, r7, r8, pc}
 8006048:	6ae6      	ldr	r6, [r4, #44]	; 0x2c
 800604a:	2e00      	cmp	r6, #0
 800604c:	d0f9      	beq.n	8006042 <__sflush_r+0x1a>
 800604e:	2300      	movs	r3, #0
 8006050:	f412 5280 	ands.w	r2, r2, #4096	; 0x1000
 8006054:	682f      	ldr	r7, [r5, #0]
 8006056:	602b      	str	r3, [r5, #0]
 8006058:	d032      	beq.n	80060c0 <__sflush_r+0x98>
 800605a:	6d60      	ldr	r0, [r4, #84]	; 0x54
 800605c:	89a3      	ldrh	r3, [r4, #12]
 800605e:	075a      	lsls	r2, r3, #29
 8006060:	d505      	bpl.n	800606e <__sflush_r+0x46>
 8006062:	6863      	ldr	r3, [r4, #4]
 8006064:	1ac0      	subs	r0, r0, r3
 8006066:	6b63      	ldr	r3, [r4, #52]	; 0x34
 8006068:	b10b      	cbz	r3, 800606e <__sflush_r+0x46>
 800606a:	6c23      	ldr	r3, [r4, #64]	; 0x40
 800606c:	1ac0      	subs	r0, r0, r3
 800606e:	2300      	movs	r3, #0
 8006070:	4602      	mov	r2, r0
 8006072:	6ae6      	ldr	r6, [r4, #44]	; 0x2c
 8006074:	4628      	mov	r0, r5
 8006076:	6a21      	ldr	r1, [r4, #32]
 8006078:	47b0      	blx	r6
 800607a:	1c43      	adds	r3, r0, #1
 800607c:	89a3      	ldrh	r3, [r4, #12]
 800607e:	d106      	bne.n	800608e <__sflush_r+0x66>
 8006080:	6829      	ldr	r1, [r5, #0]
 8006082:	291d      	cmp	r1, #29
 8006084:	d82c      	bhi.n	80060e0 <__sflush_r+0xb8>
 8006086:	4a2a      	ldr	r2, [pc, #168]	; (8006130 <__sflush_r+0x108>)
 8006088:	40ca      	lsrs	r2, r1
 800608a:	07d6      	lsls	r6, r2, #31
 800608c:	d528      	bpl.n	80060e0 <__sflush_r+0xb8>
 800608e:	2200      	movs	r2, #0
 8006090:	6062      	str	r2, [r4, #4]
 8006092:	6922      	ldr	r2, [r4, #16]
 8006094:	04d9      	lsls	r1, r3, #19
 8006096:	6022      	str	r2, [r4, #0]
 8006098:	d504      	bpl.n	80060a4 <__sflush_r+0x7c>
 800609a:	1c42      	adds	r2, r0, #1
 800609c:	d101      	bne.n	80060a2 <__sflush_r+0x7a>
 800609e:	682b      	ldr	r3, [r5, #0]
 80060a0:	b903      	cbnz	r3, 80060a4 <__sflush_r+0x7c>
 80060a2:	6560      	str	r0, [r4, #84]	; 0x54
 80060a4:	6b61      	ldr	r1, [r4, #52]	; 0x34
 80060a6:	602f      	str	r7, [r5, #0]
 80060a8:	2900      	cmp	r1, #0
 80060aa:	d0ca      	beq.n	8006042 <__sflush_r+0x1a>
 80060ac:	f104 0344 	add.w	r3, r4, #68	; 0x44
 80060b0:	4299      	cmp	r1, r3
 80060b2:	d002      	beq.n	80060ba <__sflush_r+0x92>
 80060b4:	4628      	mov	r0, r5
 80060b6:	f000 f9d5 	bl	8006464 <_free_r>
 80060ba:	2000      	movs	r0, #0
 80060bc:	6360      	str	r0, [r4, #52]	; 0x34
 80060be:	e7c1      	b.n	8006044 <__sflush_r+0x1c>
 80060c0:	6a21      	ldr	r1, [r4, #32]
 80060c2:	2301      	movs	r3, #1
 80060c4:	4628      	mov	r0, r5
 80060c6:	47b0      	blx	r6
 80060c8:	1c41      	adds	r1, r0, #1
 80060ca:	d1c7      	bne.n	800605c <__sflush_r+0x34>
 80060cc:	682b      	ldr	r3, [r5, #0]
 80060ce:	2b00      	cmp	r3, #0
 80060d0:	d0c4      	beq.n	800605c <__sflush_r+0x34>
 80060d2:	2b1d      	cmp	r3, #29
 80060d4:	d001      	beq.n	80060da <__sflush_r+0xb2>
 80060d6:	2b16      	cmp	r3, #22
 80060d8:	d101      	bne.n	80060de <__sflush_r+0xb6>
 80060da:	602f      	str	r7, [r5, #0]
 80060dc:	e7b1      	b.n	8006042 <__sflush_r+0x1a>
 80060de:	89a3      	ldrh	r3, [r4, #12]
 80060e0:	f043 0340 	orr.w	r3, r3, #64	; 0x40
 80060e4:	81a3      	strh	r3, [r4, #12]
 80060e6:	e7ad      	b.n	8006044 <__sflush_r+0x1c>
 80060e8:	690f      	ldr	r7, [r1, #16]
 80060ea:	2f00      	cmp	r7, #0
 80060ec:	d0a9      	beq.n	8006042 <__sflush_r+0x1a>
 80060ee:	0793      	lsls	r3, r2, #30
 80060f0:	bf18      	it	ne
 80060f2:	2300      	movne	r3, #0
 80060f4:	680e      	ldr	r6, [r1, #0]
 80060f6:	bf08      	it	eq
 80060f8:	694b      	ldreq	r3, [r1, #20]
 80060fa:	eba6 0807 	sub.w	r8, r6, r7
 80060fe:	600f      	str	r7, [r1, #0]
 8006100:	608b      	str	r3, [r1, #8]
 8006102:	f1b8 0f00 	cmp.w	r8, #0
 8006106:	dd9c      	ble.n	8006042 <__sflush_r+0x1a>
 8006108:	4643      	mov	r3, r8
 800610a:	463a      	mov	r2, r7
 800610c:	4628      	mov	r0, r5
 800610e:	6a21      	ldr	r1, [r4, #32]
 8006110:	6aa6      	ldr	r6, [r4, #40]	; 0x28
 8006112:	47b0      	blx	r6
 8006114:	2800      	cmp	r0, #0
 8006116:	dc06      	bgt.n	8006126 <__sflush_r+0xfe>
 8006118:	89a3      	ldrh	r3, [r4, #12]
 800611a:	f04f 30ff 	mov.w	r0, #4294967295
 800611e:	f043 0340 	orr.w	r3, r3, #64	; 0x40
 8006122:	81a3      	strh	r3, [r4, #12]
 8006124:	e78e      	b.n	8006044 <__sflush_r+0x1c>
 8006126:	4407      	add	r7, r0
 8006128:	eba8 0800 	sub.w	r8, r8, r0
 800612c:	e7e9      	b.n	8006102 <__sflush_r+0xda>
 800612e:	bf00      	nop
 8006130:	20400001 	.word	0x20400001

08006134 <_fflush_r>:
 8006134:	b538      	push	{r3, r4, r5, lr}
 8006136:	690b      	ldr	r3, [r1, #16]
 8006138:	4605      	mov	r5, r0
 800613a:	460c      	mov	r4, r1
 800613c:	b913      	cbnz	r3, 8006144 <_fflush_r+0x10>
 800613e:	2500      	movs	r5, #0
 8006140:	4628      	mov	r0, r5
 8006142:	bd38      	pop	{r3, r4, r5, pc}
 8006144:	b118      	cbz	r0, 800614e <_fflush_r+0x1a>
 8006146:	6983      	ldr	r3, [r0, #24]
 8006148:	b90b      	cbnz	r3, 800614e <_fflush_r+0x1a>
 800614a:	f000 f887 	bl	800625c <__sinit>
 800614e:	4b14      	ldr	r3, [pc, #80]	; (80061a0 <_fflush_r+0x6c>)
 8006150:	429c      	cmp	r4, r3
 8006152:	d11b      	bne.n	800618c <_fflush_r+0x58>
 8006154:	686c      	ldr	r4, [r5, #4]
 8006156:	f9b4 300c 	ldrsh.w	r3, [r4, #12]
 800615a:	2b00      	cmp	r3, #0
 800615c:	d0ef      	beq.n	800613e <_fflush_r+0xa>
 800615e:	6e62      	ldr	r2, [r4, #100]	; 0x64
 8006160:	07d0      	lsls	r0, r2, #31
 8006162:	d404      	bmi.n	800616e <_fflush_r+0x3a>
 8006164:	0599      	lsls	r1, r3, #22
 8006166:	d402      	bmi.n	800616e <_fflush_r+0x3a>
 8006168:	6da0      	ldr	r0, [r4, #88]	; 0x58
 800616a:	f000 f915 	bl	8006398 <__retarget_lock_acquire_recursive>
 800616e:	4628      	mov	r0, r5
 8006170:	4621      	mov	r1, r4
 8006172:	f7ff ff59 	bl	8006028 <__sflush_r>
 8006176:	6e63      	ldr	r3, [r4, #100]	; 0x64
 8006178:	4605      	mov	r5, r0
 800617a:	07da      	lsls	r2, r3, #31
 800617c:	d4e0      	bmi.n	8006140 <_fflush_r+0xc>
 800617e:	89a3      	ldrh	r3, [r4, #12]
 8006180:	059b      	lsls	r3, r3, #22
 8006182:	d4dd      	bmi.n	8006140 <_fflush_r+0xc>
 8006184:	6da0      	ldr	r0, [r4, #88]	; 0x58
 8006186:	f000 f908 	bl	800639a <__retarget_lock_release_recursive>
 800618a:	e7d9      	b.n	8006140 <_fflush_r+0xc>
 800618c:	4b05      	ldr	r3, [pc, #20]	; (80061a4 <_fflush_r+0x70>)
 800618e:	429c      	cmp	r4, r3
 8006190:	d101      	bne.n	8006196 <_fflush_r+0x62>
 8006192:	68ac      	ldr	r4, [r5, #8]
 8006194:	e7df      	b.n	8006156 <_fflush_r+0x22>
 8006196:	4b04      	ldr	r3, [pc, #16]	; (80061a8 <_fflush_r+0x74>)
 8006198:	429c      	cmp	r4, r3
 800619a:	bf08      	it	eq
 800619c:	68ec      	ldreq	r4, [r5, #12]
 800619e:	e7da      	b.n	8006156 <_fflush_r+0x22>
 80061a0:	08007034 	.word	0x08007034
 80061a4:	08007054 	.word	0x08007054
 80061a8:	08007014 	.word	0x08007014

080061ac <std>:
 80061ac:	2300      	movs	r3, #0
 80061ae:	b510      	push	{r4, lr}
 80061b0:	4604      	mov	r4, r0
 80061b2:	e9c0 3300 	strd	r3, r3, [r0]
 80061b6:	e9c0 3304 	strd	r3, r3, [r0, #16]
 80061ba:	6083      	str	r3, [r0, #8]
 80061bc:	8181      	strh	r1, [r0, #12]
 80061be:	6643      	str	r3, [r0, #100]	; 0x64
 80061c0:	81c2      	strh	r2, [r0, #14]
 80061c2:	6183      	str	r3, [r0, #24]
 80061c4:	4619      	mov	r1, r3
 80061c6:	2208      	movs	r2, #8
 80061c8:	305c      	adds	r0, #92	; 0x5c
 80061ca:	f7ff fd95 	bl	8005cf8 <memset>
 80061ce:	4b05      	ldr	r3, [pc, #20]	; (80061e4 <std+0x38>)
 80061d0:	6224      	str	r4, [r4, #32]
 80061d2:	6263      	str	r3, [r4, #36]	; 0x24
 80061d4:	4b04      	ldr	r3, [pc, #16]	; (80061e8 <std+0x3c>)
 80061d6:	62a3      	str	r3, [r4, #40]	; 0x28
 80061d8:	4b04      	ldr	r3, [pc, #16]	; (80061ec <std+0x40>)
 80061da:	62e3      	str	r3, [r4, #44]	; 0x2c
 80061dc:	4b04      	ldr	r3, [pc, #16]	; (80061f0 <std+0x44>)
 80061de:	6323      	str	r3, [r4, #48]	; 0x30
 80061e0:	bd10      	pop	{r4, pc}
 80061e2:	bf00      	nop
 80061e4:	080065d1 	.word	0x080065d1
 80061e8:	080065f3 	.word	0x080065f3
 80061ec:	0800662b 	.word	0x0800662b
 80061f0:	0800664f 	.word	0x0800664f

080061f4 <_cleanup_r>:
 80061f4:	4901      	ldr	r1, [pc, #4]	; (80061fc <_cleanup_r+0x8>)
 80061f6:	f000 b8af 	b.w	8006358 <_fwalk_reent>
 80061fa:	bf00      	nop
 80061fc:	08006135 	.word	0x08006135

08006200 <__sfmoreglue>:
 8006200:	b570      	push	{r4, r5, r6, lr}
 8006202:	2568      	movs	r5, #104	; 0x68
 8006204:	1e4a      	subs	r2, r1, #1
 8006206:	4355      	muls	r5, r2
 8006208:	460e      	mov	r6, r1
 800620a:	f105 0174 	add.w	r1, r5, #116	; 0x74
 800620e:	f000 f975 	bl	80064fc <_malloc_r>
 8006212:	4604      	mov	r4, r0
 8006214:	b140      	cbz	r0, 8006228 <__sfmoreglue+0x28>
 8006216:	2100      	movs	r1, #0
 8006218:	e9c0 1600 	strd	r1, r6, [r0]
 800621c:	300c      	adds	r0, #12
 800621e:	60a0      	str	r0, [r4, #8]
 8006220:	f105 0268 	add.w	r2, r5, #104	; 0x68
 8006224:	f7ff fd68 	bl	8005cf8 <memset>
 8006228:	4620      	mov	r0, r4
 800622a:	bd70      	pop	{r4, r5, r6, pc}

0800622c <__sfp_lock_acquire>:
 800622c:	4801      	ldr	r0, [pc, #4]	; (8006234 <__sfp_lock_acquire+0x8>)
 800622e:	f000 b8b3 	b.w	8006398 <__retarget_lock_acquire_recursive>
 8006232:	bf00      	nop
 8006234:	20000550 	.word	0x20000550

08006238 <__sfp_lock_release>:
 8006238:	4801      	ldr	r0, [pc, #4]	; (8006240 <__sfp_lock_release+0x8>)
 800623a:	f000 b8ae 	b.w	800639a <__retarget_lock_release_recursive>
 800623e:	bf00      	nop
 8006240:	20000550 	.word	0x20000550

08006244 <__sinit_lock_acquire>:
 8006244:	4801      	ldr	r0, [pc, #4]	; (800624c <__sinit_lock_acquire+0x8>)
 8006246:	f000 b8a7 	b.w	8006398 <__retarget_lock_acquire_recursive>
 800624a:	bf00      	nop
 800624c:	2000054b 	.word	0x2000054b

08006250 <__sinit_lock_release>:
 8006250:	4801      	ldr	r0, [pc, #4]	; (8006258 <__sinit_lock_release+0x8>)
 8006252:	f000 b8a2 	b.w	800639a <__retarget_lock_release_recursive>
 8006256:	bf00      	nop
 8006258:	2000054b 	.word	0x2000054b

0800625c <__sinit>:
 800625c:	b510      	push	{r4, lr}
 800625e:	4604      	mov	r4, r0
 8006260:	f7ff fff0 	bl	8006244 <__sinit_lock_acquire>
 8006264:	69a3      	ldr	r3, [r4, #24]
 8006266:	b11b      	cbz	r3, 8006270 <__sinit+0x14>
 8006268:	e8bd 4010 	ldmia.w	sp!, {r4, lr}
 800626c:	f7ff bff0 	b.w	8006250 <__sinit_lock_release>
 8006270:	e9c4 3312 	strd	r3, r3, [r4, #72]	; 0x48
 8006274:	6523      	str	r3, [r4, #80]	; 0x50
 8006276:	4b13      	ldr	r3, [pc, #76]	; (80062c4 <__sinit+0x68>)
 8006278:	4a13      	ldr	r2, [pc, #76]	; (80062c8 <__sinit+0x6c>)
 800627a:	681b      	ldr	r3, [r3, #0]
 800627c:	62a2      	str	r2, [r4, #40]	; 0x28
 800627e:	42a3      	cmp	r3, r4
 8006280:	bf08      	it	eq
 8006282:	2301      	moveq	r3, #1
 8006284:	4620      	mov	r0, r4
 8006286:	bf08      	it	eq
 8006288:	61a3      	streq	r3, [r4, #24]
 800628a:	f000 f81f 	bl	80062cc <__sfp>
 800628e:	6060      	str	r0, [r4, #4]
 8006290:	4620      	mov	r0, r4
 8006292:	f000 f81b 	bl	80062cc <__sfp>
 8006296:	60a0      	str	r0, [r4, #8]
 8006298:	4620      	mov	r0, r4
 800629a:	f000 f817 	bl	80062cc <__sfp>
 800629e:	2200      	movs	r2, #0
 80062a0:	2104      	movs	r1, #4
 80062a2:	60e0      	str	r0, [r4, #12]
 80062a4:	6860      	ldr	r0, [r4, #4]
 80062a6:	f7ff ff81 	bl	80061ac <std>
 80062aa:	2201      	movs	r2, #1
 80062ac:	2109      	movs	r1, #9
 80062ae:	68a0      	ldr	r0, [r4, #8]
 80062b0:	f7ff ff7c 	bl	80061ac <std>
 80062b4:	2202      	movs	r2, #2
 80062b6:	2112      	movs	r1, #18
 80062b8:	68e0      	ldr	r0, [r4, #12]
 80062ba:	f7ff ff77 	bl	80061ac <std>
 80062be:	2301      	movs	r3, #1
 80062c0:	61a3      	str	r3, [r4, #24]
 80062c2:	e7d1      	b.n	8006268 <__sinit+0xc>
 80062c4:	08006fe8 	.word	0x08006fe8
 80062c8:	080061f5 	.word	0x080061f5

080062cc <__sfp>:
 80062cc:	b5f8      	push	{r3, r4, r5, r6, r7, lr}
 80062ce:	4607      	mov	r7, r0
 80062d0:	f7ff ffac 	bl	800622c <__sfp_lock_acquire>
 80062d4:	4b1e      	ldr	r3, [pc, #120]	; (8006350 <__sfp+0x84>)
 80062d6:	681e      	ldr	r6, [r3, #0]
 80062d8:	69b3      	ldr	r3, [r6, #24]
 80062da:	b913      	cbnz	r3, 80062e2 <__sfp+0x16>
 80062dc:	4630      	mov	r0, r6
 80062de:	f7ff ffbd 	bl	800625c <__sinit>
 80062e2:	3648      	adds	r6, #72	; 0x48
 80062e4:	e9d6 3401 	ldrd	r3, r4, [r6, #4]
 80062e8:	3b01      	subs	r3, #1
 80062ea:	d503      	bpl.n	80062f4 <__sfp+0x28>
 80062ec:	6833      	ldr	r3, [r6, #0]
 80062ee:	b30b      	cbz	r3, 8006334 <__sfp+0x68>
 80062f0:	6836      	ldr	r6, [r6, #0]
 80062f2:	e7f7      	b.n	80062e4 <__sfp+0x18>
 80062f4:	f9b4 500c 	ldrsh.w	r5, [r4, #12]
 80062f8:	b9d5      	cbnz	r5, 8006330 <__sfp+0x64>
 80062fa:	4b16      	ldr	r3, [pc, #88]	; (8006354 <__sfp+0x88>)
 80062fc:	f104 0058 	add.w	r0, r4, #88	; 0x58
 8006300:	60e3      	str	r3, [r4, #12]
 8006302:	6665      	str	r5, [r4, #100]	; 0x64
 8006304:	f000 f847 	bl	8006396 <__retarget_lock_init_recursive>
 8006308:	f7ff ff96 	bl	8006238 <__sfp_lock_release>
 800630c:	2208      	movs	r2, #8
 800630e:	4629      	mov	r1, r5
 8006310:	e9c4 5501 	strd	r5, r5, [r4, #4]
 8006314:	e9c4 5504 	strd	r5, r5, [r4, #16]
 8006318:	6025      	str	r5, [r4, #0]
 800631a:	61a5      	str	r5, [r4, #24]
 800631c:	f104 005c 	add.w	r0, r4, #92	; 0x5c
 8006320:	f7ff fcea 	bl	8005cf8 <memset>
 8006324:	e9c4 550d 	strd	r5, r5, [r4, #52]	; 0x34
 8006328:	e9c4 5512 	strd	r5, r5, [r4, #72]	; 0x48
 800632c:	4620      	mov	r0, r4
 800632e:	bdf8      	pop	{r3, r4, r5, r6, r7, pc}
 8006330:	3468      	adds	r4, #104	; 0x68
 8006332:	e7d9      	b.n	80062e8 <__sfp+0x1c>
 8006334:	2104      	movs	r1, #4
 8006336:	4638      	mov	r0, r7
 8006338:	f7ff ff62 	bl	8006200 <__sfmoreglue>
 800633c:	4604      	mov	r4, r0
 800633e:	6030      	str	r0, [r6, #0]
 8006340:	2800      	cmp	r0, #0
 8006342:	d1d5      	bne.n	80062f0 <__sfp+0x24>
 8006344:	f7ff ff78 	bl	8006238 <__sfp_lock_release>
 8006348:	230c      	movs	r3, #12
 800634a:	603b      	str	r3, [r7, #0]
 800634c:	e7ee      	b.n	800632c <__sfp+0x60>
 800634e:	bf00      	nop
 8006350:	08006fe8 	.word	0x08006fe8
 8006354:	ffff0001 	.word	0xffff0001

08006358 <_fwalk_reent>:
 8006358:	e92d 43f8 	stmdb	sp!, {r3, r4, r5, r6, r7, r8, r9, lr}
 800635c:	4606      	mov	r6, r0
 800635e:	4688      	mov	r8, r1
 8006360:	2700      	movs	r7, #0
 8006362:	f100 0448 	add.w	r4, r0, #72	; 0x48
 8006366:	e9d4 9501 	ldrd	r9, r5, [r4, #4]
 800636a:	f1b9 0901 	subs.w	r9, r9, #1
 800636e:	d505      	bpl.n	800637c <_fwalk_reent+0x24>
 8006370:	6824      	ldr	r4, [r4, #0]
 8006372:	2c00      	cmp	r4, #0
 8006374:	d1f7      	bne.n	8006366 <_fwalk_reent+0xe>
 8006376:	4638      	mov	r0, r7
 8006378:	e8bd 83f8 	ldmia.w	sp!, {r3, r4, r5, r6, r7, r8, r9, pc}
 800637c:	89ab      	ldrh	r3, [r5, #12]
 800637e:	2b01      	cmp	r3, #1
 8006380:	d907      	bls.n	8006392 <_fwalk_reent+0x3a>
 8006382:	f9b5 300e 	ldrsh.w	r3, [r5, #14]
 8006386:	3301      	adds	r3, #1
 8006388:	d003      	beq.n	8006392 <_fwalk_reent+0x3a>
 800638a:	4629      	mov	r1, r5
 800638c:	4630      	mov	r0, r6
 800638e:	47c0      	blx	r8
 8006390:	4307      	orrs	r7, r0
 8006392:	3568      	adds	r5, #104	; 0x68
 8006394:	e7e9      	b.n	800636a <_fwalk_reent+0x12>

08006396 <__retarget_lock_init_recursive>:
 8006396:	4770      	bx	lr

08006398 <__retarget_lock_acquire_recursive>:
 8006398:	4770      	bx	lr

0800639a <__retarget_lock_release_recursive>:
 800639a:	4770      	bx	lr

0800639c <__swhatbuf_r>:
 800639c:	b570      	push	{r4, r5, r6, lr}
 800639e:	460e      	mov	r6, r1
 80063a0:	f9b1 100e 	ldrsh.w	r1, [r1, #14]
 80063a4:	4614      	mov	r4, r2
 80063a6:	2900      	cmp	r1, #0
 80063a8:	461d      	mov	r5, r3
 80063aa:	b096      	sub	sp, #88	; 0x58
 80063ac:	da07      	bge.n	80063be <__swhatbuf_r+0x22>
 80063ae:	2300      	movs	r3, #0
 80063b0:	602b      	str	r3, [r5, #0]
 80063b2:	89b3      	ldrh	r3, [r6, #12]
 80063b4:	061a      	lsls	r2, r3, #24
 80063b6:	d410      	bmi.n	80063da <__swhatbuf_r+0x3e>
 80063b8:	f44f 6380 	mov.w	r3, #1024	; 0x400
 80063bc:	e00e      	b.n	80063dc <__swhatbuf_r+0x40>
 80063be:	466a      	mov	r2, sp
 80063c0:	f000 f96c 	bl	800669c <_fstat_r>
 80063c4:	2800      	cmp	r0, #0
 80063c6:	dbf2      	blt.n	80063ae <__swhatbuf_r+0x12>
 80063c8:	9a01      	ldr	r2, [sp, #4]
 80063ca:	f402 4270 	and.w	r2, r2, #61440	; 0xf000
 80063ce:	f5a2 5300 	sub.w	r3, r2, #8192	; 0x2000
 80063d2:	425a      	negs	r2, r3
 80063d4:	415a      	adcs	r2, r3
 80063d6:	602a      	str	r2, [r5, #0]
 80063d8:	e7ee      	b.n	80063b8 <__swhatbuf_r+0x1c>
 80063da:	2340      	movs	r3, #64	; 0x40
 80063dc:	2000      	movs	r0, #0
 80063de:	6023      	str	r3, [r4, #0]
 80063e0:	b016      	add	sp, #88	; 0x58
 80063e2:	bd70      	pop	{r4, r5, r6, pc}

080063e4 <__smakebuf_r>:
 80063e4:	898b      	ldrh	r3, [r1, #12]
 80063e6:	b573      	push	{r0, r1, r4, r5, r6, lr}
 80063e8:	079d      	lsls	r5, r3, #30
 80063ea:	4606      	mov	r6, r0
 80063ec:	460c      	mov	r4, r1
 80063ee:	d507      	bpl.n	8006400 <__smakebuf_r+0x1c>
 80063f0:	f104 0347 	add.w	r3, r4, #71	; 0x47
 80063f4:	6023      	str	r3, [r4, #0]
 80063f6:	6123      	str	r3, [r4, #16]
 80063f8:	2301      	movs	r3, #1
 80063fa:	6163      	str	r3, [r4, #20]
 80063fc:	b002      	add	sp, #8
 80063fe:	bd70      	pop	{r4, r5, r6, pc}
 8006400:	466a      	mov	r2, sp
 8006402:	ab01      	add	r3, sp, #4
 8006404:	f7ff ffca 	bl	800639c <__swhatbuf_r>
 8006408:	9900      	ldr	r1, [sp, #0]
 800640a:	4605      	mov	r5, r0
 800640c:	4630      	mov	r0, r6
 800640e:	f000 f875 	bl	80064fc <_malloc_r>
 8006412:	b948      	cbnz	r0, 8006428 <__smakebuf_r+0x44>
 8006414:	f9b4 300c 	ldrsh.w	r3, [r4, #12]
 8006418:	059a      	lsls	r2, r3, #22
 800641a:	d4ef      	bmi.n	80063fc <__smakebuf_r+0x18>
 800641c:	f023 0303 	bic.w	r3, r3, #3
 8006420:	f043 0302 	orr.w	r3, r3, #2
 8006424:	81a3      	strh	r3, [r4, #12]
 8006426:	e7e3      	b.n	80063f0 <__smakebuf_r+0xc>
 8006428:	4b0d      	ldr	r3, [pc, #52]	; (8006460 <__smakebuf_r+0x7c>)
 800642a:	62b3      	str	r3, [r6, #40]	; 0x28
 800642c:	89a3      	ldrh	r3, [r4, #12]
 800642e:	6020      	str	r0, [r4, #0]
 8006430:	f043 0380 	orr.w	r3, r3, #128	; 0x80
 8006434:	81a3      	strh	r3, [r4, #12]
 8006436:	9b00      	ldr	r3, [sp, #0]
 8006438:	6120      	str	r0, [r4, #16]
 800643a:	6163      	str	r3, [r4, #20]
 800643c:	9b01      	ldr	r3, [sp, #4]
 800643e:	b15b      	cbz	r3, 8006458 <__smakebuf_r+0x74>
 8006440:	4630      	mov	r0, r6
 8006442:	f9b4 100e 	ldrsh.w	r1, [r4, #14]
 8006446:	f000 f93b 	bl	80066c0 <_isatty_r>
 800644a:	b128      	cbz	r0, 8006458 <__smakebuf_r+0x74>
 800644c:	89a3      	ldrh	r3, [r4, #12]
 800644e:	f023 0303 	bic.w	r3, r3, #3
 8006452:	f043 0301 	orr.w	r3, r3, #1
 8006456:	81a3      	strh	r3, [r4, #12]
 8006458:	89a0      	ldrh	r0, [r4, #12]
 800645a:	4305      	orrs	r5, r0
 800645c:	81a5      	strh	r5, [r4, #12]
 800645e:	e7cd      	b.n	80063fc <__smakebuf_r+0x18>
 8006460:	080061f5 	.word	0x080061f5

08006464 <_free_r>:
 8006464:	b538      	push	{r3, r4, r5, lr}
 8006466:	4605      	mov	r5, r0
 8006468:	2900      	cmp	r1, #0
 800646a:	d043      	beq.n	80064f4 <_free_r+0x90>
 800646c:	f851 3c04 	ldr.w	r3, [r1, #-4]
 8006470:	1f0c      	subs	r4, r1, #4
 8006472:	2b00      	cmp	r3, #0
 8006474:	bfb8      	it	lt
 8006476:	18e4      	addlt	r4, r4, r3
 8006478:	f000 f944 	bl	8006704 <__malloc_lock>
 800647c:	4a1e      	ldr	r2, [pc, #120]	; (80064f8 <_free_r+0x94>)
 800647e:	6813      	ldr	r3, [r2, #0]
 8006480:	4610      	mov	r0, r2
 8006482:	b933      	cbnz	r3, 8006492 <_free_r+0x2e>
 8006484:	6063      	str	r3, [r4, #4]
 8006486:	6014      	str	r4, [r2, #0]
 8006488:	4628      	mov	r0, r5
 800648a:	e8bd 4038 	ldmia.w	sp!, {r3, r4, r5, lr}
 800648e:	f000 b93f 	b.w	8006710 <__malloc_unlock>
 8006492:	42a3      	cmp	r3, r4
 8006494:	d90a      	bls.n	80064ac <_free_r+0x48>
 8006496:	6821      	ldr	r1, [r4, #0]
 8006498:	1862      	adds	r2, r4, r1
 800649a:	4293      	cmp	r3, r2
 800649c:	bf01      	itttt	eq
 800649e:	681a      	ldreq	r2, [r3, #0]
 80064a0:	685b      	ldreq	r3, [r3, #4]
 80064a2:	1852      	addeq	r2, r2, r1
 80064a4:	6022      	streq	r2, [r4, #0]
 80064a6:	6063      	str	r3, [r4, #4]
 80064a8:	6004      	str	r4, [r0, #0]
 80064aa:	e7ed      	b.n	8006488 <_free_r+0x24>
 80064ac:	461a      	mov	r2, r3
 80064ae:	685b      	ldr	r3, [r3, #4]
 80064b0:	b10b      	cbz	r3, 80064b6 <_free_r+0x52>
 80064b2:	42a3      	cmp	r3, r4
 80064b4:	d9fa      	bls.n	80064ac <_free_r+0x48>
 80064b6:	6811      	ldr	r1, [r2, #0]
 80064b8:	1850      	adds	r0, r2, r1
 80064ba:	42a0      	cmp	r0, r4
 80064bc:	d10b      	bne.n	80064d6 <_free_r+0x72>
 80064be:	6820      	ldr	r0, [r4, #0]
 80064c0:	4401      	add	r1, r0
 80064c2:	1850      	adds	r0, r2, r1
 80064c4:	4283      	cmp	r3, r0
 80064c6:	6011      	str	r1, [r2, #0]
 80064c8:	d1de      	bne.n	8006488 <_free_r+0x24>
 80064ca:	6818      	ldr	r0, [r3, #0]
 80064cc:	685b      	ldr	r3, [r3, #4]
 80064ce:	4401      	add	r1, r0
 80064d0:	6011      	str	r1, [r2, #0]
 80064d2:	6053      	str	r3, [r2, #4]
 80064d4:	e7d8      	b.n	8006488 <_free_r+0x24>
 80064d6:	d902      	bls.n	80064de <_free_r+0x7a>
 80064d8:	230c      	movs	r3, #12
 80064da:	602b      	str	r3, [r5, #0]
 80064dc:	e7d4      	b.n	8006488 <_free_r+0x24>
 80064de:	6820      	ldr	r0, [r4, #0]
 80064e0:	1821      	adds	r1, r4, r0
 80064e2:	428b      	cmp	r3, r1
 80064e4:	bf01      	itttt	eq
 80064e6:	6819      	ldreq	r1, [r3, #0]
 80064e8:	685b      	ldreq	r3, [r3, #4]
 80064ea:	1809      	addeq	r1, r1, r0
 80064ec:	6021      	streq	r1, [r4, #0]
 80064ee:	6063      	str	r3, [r4, #4]
 80064f0:	6054      	str	r4, [r2, #4]
 80064f2:	e7c9      	b.n	8006488 <_free_r+0x24>
 80064f4:	bd38      	pop	{r3, r4, r5, pc}
 80064f6:	bf00      	nop
 80064f8:	20000318 	.word	0x20000318

080064fc <_malloc_r>:
 80064fc:	b5f8      	push	{r3, r4, r5, r6, r7, lr}
 80064fe:	1ccd      	adds	r5, r1, #3
 8006500:	f025 0503 	bic.w	r5, r5, #3
 8006504:	3508      	adds	r5, #8
 8006506:	2d0c      	cmp	r5, #12
 8006508:	bf38      	it	cc
 800650a:	250c      	movcc	r5, #12
 800650c:	2d00      	cmp	r5, #0
 800650e:	4606      	mov	r6, r0
 8006510:	db01      	blt.n	8006516 <_malloc_r+0x1a>
 8006512:	42a9      	cmp	r1, r5
 8006514:	d903      	bls.n	800651e <_malloc_r+0x22>
 8006516:	230c      	movs	r3, #12
 8006518:	6033      	str	r3, [r6, #0]
 800651a:	2000      	movs	r0, #0
 800651c:	bdf8      	pop	{r3, r4, r5, r6, r7, pc}
 800651e:	f000 f8f1 	bl	8006704 <__malloc_lock>
 8006522:	4921      	ldr	r1, [pc, #132]	; (80065a8 <_malloc_r+0xac>)
 8006524:	680a      	ldr	r2, [r1, #0]
 8006526:	4614      	mov	r4, r2
 8006528:	b99c      	cbnz	r4, 8006552 <_malloc_r+0x56>
 800652a:	4f20      	ldr	r7, [pc, #128]	; (80065ac <_malloc_r+0xb0>)
 800652c:	683b      	ldr	r3, [r7, #0]
 800652e:	b923      	cbnz	r3, 800653a <_malloc_r+0x3e>
 8006530:	4621      	mov	r1, r4
 8006532:	4630      	mov	r0, r6
 8006534:	f000 f83c 	bl	80065b0 <_sbrk_r>
 8006538:	6038      	str	r0, [r7, #0]
 800653a:	4629      	mov	r1, r5
 800653c:	4630      	mov	r0, r6
 800653e:	f000 f837 	bl	80065b0 <_sbrk_r>
 8006542:	1c43      	adds	r3, r0, #1
 8006544:	d123      	bne.n	800658e <_malloc_r+0x92>
 8006546:	230c      	movs	r3, #12
 8006548:	4630      	mov	r0, r6
 800654a:	6033      	str	r3, [r6, #0]
 800654c:	f000 f8e0 	bl	8006710 <__malloc_unlock>
 8006550:	e7e3      	b.n	800651a <_malloc_r+0x1e>
 8006552:	6823      	ldr	r3, [r4, #0]
 8006554:	1b5b      	subs	r3, r3, r5
 8006556:	d417      	bmi.n	8006588 <_malloc_r+0x8c>
 8006558:	2b0b      	cmp	r3, #11
 800655a:	d903      	bls.n	8006564 <_malloc_r+0x68>
 800655c:	6023      	str	r3, [r4, #0]
 800655e:	441c      	add	r4, r3
 8006560:	6025      	str	r5, [r4, #0]
 8006562:	e004      	b.n	800656e <_malloc_r+0x72>
 8006564:	6863      	ldr	r3, [r4, #4]
 8006566:	42a2      	cmp	r2, r4
 8006568:	bf0c      	ite	eq
 800656a:	600b      	streq	r3, [r1, #0]
 800656c:	6053      	strne	r3, [r2, #4]
 800656e:	4630      	mov	r0, r6
 8006570:	f000 f8ce 	bl	8006710 <__malloc_unlock>
 8006574:	f104 000b 	add.w	r0, r4, #11
 8006578:	1d23      	adds	r3, r4, #4
 800657a:	f020 0007 	bic.w	r0, r0, #7
 800657e:	1ac2      	subs	r2, r0, r3
 8006580:	d0cc      	beq.n	800651c <_malloc_r+0x20>
 8006582:	1a1b      	subs	r3, r3, r0
 8006584:	50a3      	str	r3, [r4, r2]
 8006586:	e7c9      	b.n	800651c <_malloc_r+0x20>
 8006588:	4622      	mov	r2, r4
 800658a:	6864      	ldr	r4, [r4, #4]
 800658c:	e7cc      	b.n	8006528 <_malloc_r+0x2c>
 800658e:	1cc4      	adds	r4, r0, #3
 8006590:	f024 0403 	bic.w	r4, r4, #3
 8006594:	42a0      	cmp	r0, r4
 8006596:	d0e3      	beq.n	8006560 <_malloc_r+0x64>
 8006598:	1a21      	subs	r1, r4, r0
 800659a:	4630      	mov	r0, r6
 800659c:	f000 f808 	bl	80065b0 <_sbrk_r>
 80065a0:	3001      	adds	r0, #1
 80065a2:	d1dd      	bne.n	8006560 <_malloc_r+0x64>
 80065a4:	e7cf      	b.n	8006546 <_malloc_r+0x4a>
 80065a6:	bf00      	nop
 80065a8:	20000318 	.word	0x20000318
 80065ac:	2000031c 	.word	0x2000031c

080065b0 <_sbrk_r>:
 80065b0:	b538      	push	{r3, r4, r5, lr}
 80065b2:	2300      	movs	r3, #0
 80065b4:	4d05      	ldr	r5, [pc, #20]	; (80065cc <_sbrk_r+0x1c>)
 80065b6:	4604      	mov	r4, r0
 80065b8:	4608      	mov	r0, r1
 80065ba:	602b      	str	r3, [r5, #0]
 80065bc:	f7ff f9b2 	bl	8005924 <_sbrk>
 80065c0:	1c43      	adds	r3, r0, #1
 80065c2:	d102      	bne.n	80065ca <_sbrk_r+0x1a>
 80065c4:	682b      	ldr	r3, [r5, #0]
 80065c6:	b103      	cbz	r3, 80065ca <_sbrk_r+0x1a>
 80065c8:	6023      	str	r3, [r4, #0]
 80065ca:	bd38      	pop	{r3, r4, r5, pc}
 80065cc:	20000554 	.word	0x20000554

080065d0 <__sread>:
 80065d0:	b510      	push	{r4, lr}
 80065d2:	460c      	mov	r4, r1
 80065d4:	f9b1 100e 	ldrsh.w	r1, [r1, #14]
 80065d8:	f000 f8a0 	bl	800671c <_read_r>
 80065dc:	2800      	cmp	r0, #0
 80065de:	bfab      	itete	ge
 80065e0:	6d63      	ldrge	r3, [r4, #84]	; 0x54
 80065e2:	89a3      	ldrhlt	r3, [r4, #12]
 80065e4:	181b      	addge	r3, r3, r0
 80065e6:	f423 5380 	biclt.w	r3, r3, #4096	; 0x1000
 80065ea:	bfac      	ite	ge
 80065ec:	6563      	strge	r3, [r4, #84]	; 0x54
 80065ee:	81a3      	strhlt	r3, [r4, #12]
 80065f0:	bd10      	pop	{r4, pc}

080065f2 <__swrite>:
 80065f2:	e92d 41f0 	stmdb	sp!, {r4, r5, r6, r7, r8, lr}
 80065f6:	461f      	mov	r7, r3
 80065f8:	898b      	ldrh	r3, [r1, #12]
 80065fa:	4605      	mov	r5, r0
 80065fc:	05db      	lsls	r3, r3, #23
 80065fe:	460c      	mov	r4, r1
 8006600:	4616      	mov	r6, r2
 8006602:	d505      	bpl.n	8006610 <__swrite+0x1e>
 8006604:	2302      	movs	r3, #2
 8006606:	2200      	movs	r2, #0
 8006608:	f9b1 100e 	ldrsh.w	r1, [r1, #14]
 800660c:	f000 f868 	bl	80066e0 <_lseek_r>
 8006610:	89a3      	ldrh	r3, [r4, #12]
 8006612:	4632      	mov	r2, r6
 8006614:	f423 5380 	bic.w	r3, r3, #4096	; 0x1000
 8006618:	81a3      	strh	r3, [r4, #12]
 800661a:	4628      	mov	r0, r5
 800661c:	463b      	mov	r3, r7
 800661e:	f9b4 100e 	ldrsh.w	r1, [r4, #14]
 8006622:	e8bd 41f0 	ldmia.w	sp!, {r4, r5, r6, r7, r8, lr}
 8006626:	f000 b817 	b.w	8006658 <_write_r>

0800662a <__sseek>:
 800662a:	b510      	push	{r4, lr}
 800662c:	460c      	mov	r4, r1
 800662e:	f9b1 100e 	ldrsh.w	r1, [r1, #14]
 8006632:	f000 f855 	bl	80066e0 <_lseek_r>
 8006636:	1c43      	adds	r3, r0, #1
 8006638:	89a3      	ldrh	r3, [r4, #12]
 800663a:	bf15      	itete	ne
 800663c:	6560      	strne	r0, [r4, #84]	; 0x54
 800663e:	f423 5380 	biceq.w	r3, r3, #4096	; 0x1000
 8006642:	f443 5380 	orrne.w	r3, r3, #4096	; 0x1000
 8006646:	81a3      	strheq	r3, [r4, #12]
 8006648:	bf18      	it	ne
 800664a:	81a3      	strhne	r3, [r4, #12]
 800664c:	bd10      	pop	{r4, pc}

0800664e <__sclose>:
 800664e:	f9b1 100e 	ldrsh.w	r1, [r1, #14]
 8006652:	f000 b813 	b.w	800667c <_close_r>
	...

08006658 <_write_r>:
 8006658:	b538      	push	{r3, r4, r5, lr}
 800665a:	4604      	mov	r4, r0
 800665c:	4608      	mov	r0, r1
 800665e:	4611      	mov	r1, r2
 8006660:	2200      	movs	r2, #0
 8006662:	4d05      	ldr	r5, [pc, #20]	; (8006678 <_write_r+0x20>)
 8006664:	602a      	str	r2, [r5, #0]
 8006666:	461a      	mov	r2, r3
 8006668:	f7ff f943 	bl	80058f2 <_write>
 800666c:	1c43      	adds	r3, r0, #1
 800666e:	d102      	bne.n	8006676 <_write_r+0x1e>
 8006670:	682b      	ldr	r3, [r5, #0]
 8006672:	b103      	cbz	r3, 8006676 <_write_r+0x1e>
 8006674:	6023      	str	r3, [r4, #0]
 8006676:	bd38      	pop	{r3, r4, r5, pc}
 8006678:	20000554 	.word	0x20000554

0800667c <_close_r>:
 800667c:	b538      	push	{r3, r4, r5, lr}
 800667e:	2300      	movs	r3, #0
 8006680:	4d05      	ldr	r5, [pc, #20]	; (8006698 <_close_r+0x1c>)
 8006682:	4604      	mov	r4, r0
 8006684:	4608      	mov	r0, r1
 8006686:	602b      	str	r3, [r5, #0]
 8006688:	f7ff f940 	bl	800590c <_close>
 800668c:	1c43      	adds	r3, r0, #1
 800668e:	d102      	bne.n	8006696 <_close_r+0x1a>
 8006690:	682b      	ldr	r3, [r5, #0]
 8006692:	b103      	cbz	r3, 8006696 <_close_r+0x1a>
 8006694:	6023      	str	r3, [r4, #0]
 8006696:	bd38      	pop	{r3, r4, r5, pc}
 8006698:	20000554 	.word	0x20000554

0800669c <_fstat_r>:
 800669c:	b538      	push	{r3, r4, r5, lr}
 800669e:	2300      	movs	r3, #0
 80066a0:	4d06      	ldr	r5, [pc, #24]	; (80066bc <_fstat_r+0x20>)
 80066a2:	4604      	mov	r4, r0
 80066a4:	4608      	mov	r0, r1
 80066a6:	4611      	mov	r1, r2
 80066a8:	602b      	str	r3, [r5, #0]
 80066aa:	f7ff f932 	bl	8005912 <_fstat>
 80066ae:	1c43      	adds	r3, r0, #1
 80066b0:	d102      	bne.n	80066b8 <_fstat_r+0x1c>
 80066b2:	682b      	ldr	r3, [r5, #0]
 80066b4:	b103      	cbz	r3, 80066b8 <_fstat_r+0x1c>
 80066b6:	6023      	str	r3, [r4, #0]
 80066b8:	bd38      	pop	{r3, r4, r5, pc}
 80066ba:	bf00      	nop
 80066bc:	20000554 	.word	0x20000554

080066c0 <_isatty_r>:
 80066c0:	b538      	push	{r3, r4, r5, lr}
 80066c2:	2300      	movs	r3, #0
 80066c4:	4d05      	ldr	r5, [pc, #20]	; (80066dc <_isatty_r+0x1c>)
 80066c6:	4604      	mov	r4, r0
 80066c8:	4608      	mov	r0, r1
 80066ca:	602b      	str	r3, [r5, #0]
 80066cc:	f7ff f926 	bl	800591c <_isatty>
 80066d0:	1c43      	adds	r3, r0, #1
 80066d2:	d102      	bne.n	80066da <_isatty_r+0x1a>
 80066d4:	682b      	ldr	r3, [r5, #0]
 80066d6:	b103      	cbz	r3, 80066da <_isatty_r+0x1a>
 80066d8:	6023      	str	r3, [r4, #0]
 80066da:	bd38      	pop	{r3, r4, r5, pc}
 80066dc:	20000554 	.word	0x20000554

080066e0 <_lseek_r>:
 80066e0:	b538      	push	{r3, r4, r5, lr}
 80066e2:	4604      	mov	r4, r0
 80066e4:	4608      	mov	r0, r1
 80066e6:	4611      	mov	r1, r2
 80066e8:	2200      	movs	r2, #0
 80066ea:	4d05      	ldr	r5, [pc, #20]	; (8006700 <_lseek_r+0x20>)
 80066ec:	602a      	str	r2, [r5, #0]
 80066ee:	461a      	mov	r2, r3
 80066f0:	f7ff f916 	bl	8005920 <_lseek>
 80066f4:	1c43      	adds	r3, r0, #1
 80066f6:	d102      	bne.n	80066fe <_lseek_r+0x1e>
 80066f8:	682b      	ldr	r3, [r5, #0]
 80066fa:	b103      	cbz	r3, 80066fe <_lseek_r+0x1e>
 80066fc:	6023      	str	r3, [r4, #0]
 80066fe:	bd38      	pop	{r3, r4, r5, pc}
 8006700:	20000554 	.word	0x20000554

08006704 <__malloc_lock>:
 8006704:	4801      	ldr	r0, [pc, #4]	; (800670c <__malloc_lock+0x8>)
 8006706:	f7ff be47 	b.w	8006398 <__retarget_lock_acquire_recursive>
 800670a:	bf00      	nop
 800670c:	2000054c 	.word	0x2000054c

08006710 <__malloc_unlock>:
 8006710:	4801      	ldr	r0, [pc, #4]	; (8006718 <__malloc_unlock+0x8>)
 8006712:	f7ff be42 	b.w	800639a <__retarget_lock_release_recursive>
 8006716:	bf00      	nop
 8006718:	2000054c 	.word	0x2000054c

0800671c <_read_r>:
 800671c:	b538      	push	{r3, r4, r5, lr}
 800671e:	4604      	mov	r4, r0
 8006720:	4608      	mov	r0, r1
 8006722:	4611      	mov	r1, r2
 8006724:	2200      	movs	r2, #0
 8006726:	4d05      	ldr	r5, [pc, #20]	; (800673c <_read_r+0x20>)
 8006728:	602a      	str	r2, [r5, #0]
 800672a:	461a      	mov	r2, r3
 800672c:	f7ff f8d4 	bl	80058d8 <_read>
 8006730:	1c43      	adds	r3, r0, #1
 8006732:	d102      	bne.n	800673a <_read_r+0x1e>
 8006734:	682b      	ldr	r3, [r5, #0]
 8006736:	b103      	cbz	r3, 800673a <_read_r+0x1e>
 8006738:	6023      	str	r3, [r4, #0]
 800673a:	bd38      	pop	{r3, r4, r5, pc}
 800673c:	20000554 	.word	0x20000554

08006740 <_init>:
 8006740:	b5f8      	push	{r3, r4, r5, r6, r7, lr}
 8006742:	bf00      	nop
 8006744:	bcf8      	pop	{r3, r4, r5, r6, r7}
 8006746:	bc08      	pop	{r3}
 8006748:	469e      	mov	lr, r3
 800674a:	4770      	bx	lr

0800674c <_fini>:
 800674c:	b5f8      	push	{r3, r4, r5, r6, r7, lr}
 800674e:	bf00      	nop
 8006750:	bcf8      	pop	{r3, r4, r5, r6, r7}
 8006752:	bc08      	pop	{r3}
 8006754:	469e      	mov	lr, r3
 8006756:	4770      	bx	lr
